; Listing generated by Microsoft (R) Optimizing Compiler Version 19.38.33135.0 

include listing.inc

INCLUDELIB OLDNAMES

PUBLIC	??_C@_1BK@LCODAJLO@?$AAo?$AAp?$AAe?$AAn?$AAg?$AAl?$AA3?$AA2?$AA?4?$AAd?$AAl?$AAl@ ; `string'
PUBLIC	??_C@_0BC@FFKMKEGM@wglGetProcAddress@		; `string'
PUBLIC	??_C@_0L@BAPBLHME@glCullFace@			; `string'
PUBLIC	??_C@_0M@ILBMDJDA@glFrontFace@			; `string'
PUBLIC	??_C@_06HEADGMBC@glHint@			; `string'
PUBLIC	??_C@_0M@CFLGNFPG@glLineWidth@			; `string'
PUBLIC	??_C@_0M@EEAPMMNM@glPointSize@			; `string'
PUBLIC	??_C@_0O@DKMNBFMB@glPolygonMode@		; `string'
PUBLIC	??_C@_09ECGPAEPL@glScissor@			; `string'
PUBLIC	??_C@_0BA@INKFIMGP@glTexParameterf@		; `string'
PUBLIC	??_C@_0BB@KEOFAHDF@glTexParameterfv@		; `string'
PUBLIC	??_C@_0BA@KDNJAKA@glTexParameteri@		; `string'
PUBLIC	??_C@_0BB@KPLJEAAI@glTexParameteriv@		; `string'
PUBLIC	??_C@_0N@JDMMMFHL@glTexImage1D@			; `string'
PUBLIC	??_C@_0N@JBIKHLCC@glTexImage2D@			; `string'
PUBLIC	??_C@_0N@EKCLGPL@glDrawBuffer@			; `string'
PUBLIC	??_C@_07IBAPPAHJ@glClear@			; `string'
PUBLIC	??_C@_0N@OGLMDNKC@glClearColor@			; `string'
PUBLIC	??_C@_0P@KBLPBBFP@glClearStencil@		; `string'
PUBLIC	??_C@_0N@LJIELNG@glClearDepth@			; `string'
PUBLIC	??_C@_0O@DJFHPFEP@glStencilMask@		; `string'
PUBLIC	??_C@_0M@DLGOAHPH@glColorMask@			; `string'
PUBLIC	??_C@_0M@KABMFLLN@glDepthMask@			; `string'
PUBLIC	??_C@_09MHGMIMKN@glDisable@			; `string'
PUBLIC	??_C@_08OOEHEKOP@glEnable@			; `string'
PUBLIC	??_C@_08DFCPOKBK@glFinish@			; `string'
PUBLIC	??_C@_07COFELLJA@glFlush@			; `string'
PUBLIC	??_C@_0M@PFBKOKOH@glBlendFunc@			; `string'
PUBLIC	??_C@_09GKGMNAKG@glLogicOp@			; `string'
PUBLIC	??_C@_0O@ENNLLOLN@glStencilFunc@		; `string'
PUBLIC	??_C@_0M@BILBNGF@glStencilOp@			; `string'
PUBLIC	??_C@_0M@NEJABAEP@glDepthFunc@			; `string'
PUBLIC	??_C@_0O@BFLAHHCK@glPixelStoref@		; `string'
PUBLIC	??_C@_0O@JCCIGLOF@glPixelStorei@		; `string'
PUBLIC	??_C@_0N@HFKHBECK@glReadBuffer@			; `string'
PUBLIC	??_C@_0N@CKFNNHOO@glReadPixels@			; `string'
PUBLIC	??_C@_0O@NLMELLCJ@glGetBooleanv@		; `string'
PUBLIC	??_C@_0N@OFBMMCDH@glGetDoublev@			; `string'
PUBLIC	??_C@_0L@FPKAMKHB@glGetError@			; `string'
PUBLIC	??_C@_0M@CKCOBONE@glGetFloatv@			; `string'
PUBLIC	??_C@_0O@DHHDCCLF@glGetIntegerv@		; `string'
PUBLIC	??_C@_0M@OPOBFDCB@glGetString@			; `string'
PUBLIC	??_C@_0O@DOIIJLAD@glGetTexImage@		; `string'
PUBLIC	??_C@_0BE@DNHBPKMC@glGetTexParameterfv@		; `string'
PUBLIC	??_C@_0BE@DGCNLNPP@glGetTexParameteriv@		; `string'
PUBLIC	??_C@_0BJ@GAMLGIFF@glGetTexLevelParameterfv@	; `string'
PUBLIC	??_C@_0BJ@GLJHCPGI@glGetTexLevelParameteriv@	; `string'
PUBLIC	??_C@_0M@INHMIHKC@glIsEnabled@			; `string'
PUBLIC	??_C@_0N@PEBDIKOA@glDepthRange@			; `string'
PUBLIC	??_C@_0L@KBLIPDFH@glViewport@			; `string'
PUBLIC	??_C@_09KAGOBDOO@glNewList@			; `string'
PUBLIC	??_C@_09HKEBCLHH@glEndList@			; `string'
PUBLIC	??_C@_0L@CIPLDIDL@glCallList@			; `string'
PUBLIC	??_C@_0M@LFDBDICJ@glCallLists@			; `string'
PUBLIC	??_C@_0O@KPJIJAFM@glDeleteLists@		; `string'
PUBLIC	??_C@_0L@BNOFOEBP@glGenLists@			; `string'
PUBLIC	??_C@_0L@HDOJDFBA@glListBase@			; `string'
PUBLIC	??_C@_07FCOIFMD@glBegin@			; `string'
PUBLIC	??_C@_08PJOLDJDK@glBitmap@			; `string'
PUBLIC	??_C@_09JLHBBGHE@glColor3b@			; `string'
PUBLIC	??_C@_0L@COJGBKED@glColor3bv@			; `string'
PUBLIC	??_C@_09MNCLLBPC@glColor3d@			; `string'
PUBLIC	??_C@_0L@CKBLGGPB@glColor3dv@			; `string'
PUBLIC	??_C@_09PPBNNDHA@glColor3f@			; `string'
PUBLIC	??_C@_0L@CJJPLCJP@glColor3fv@			; `string'
PUBLIC	??_C@_09HIIFMPLP@glColor3i@			; `string'
PUBLIC	??_C@_0L@CCMDPFKC@glColor3iv@			; `string'
PUBLIC	??_C@_09MIKIDFGE@glColor3s@			; `string'
PUBLIC	??_C@_0L@DDHCNDAE@glColor3sv@			; `string'
PUBLIC	??_C@_0L@BJFBHIOD@glColor3ub@			; `string'
PUBLIC	??_C@_0M@EAHPDMMK@glColor3ubv@			; `string'
PUBLIC	??_C@_0L@PKKFKBCI@glColor3ui@			; `string'
PUBLIC	??_C@_0M@EMCKNDCL@glColor3uiv@			; `string'
PUBLIC	??_C@_0L@EKIIFLPD@glColor3us@			; `string'
PUBLIC	??_C@_0M@FNJLPFIN@glColor3usv@			; `string'
PUBLIC	??_C@_09JODOAAPB@glColor4b@			; `string'
PUBLIC	??_C@_0L@LDEBCCPK@glColor4bv@			; `string'
PUBLIC	??_C@_09MIGEKHHH@glColor4d@			; `string'
PUBLIC	??_C@_0L@LHMMFOEI@glColor4dv@			; `string'
PUBLIC	??_C@_09PKFCMFPF@glColor4f@			; `string'
PUBLIC	??_C@_0L@LEEIIKCG@glColor4fv@			; `string'
PUBLIC	??_C@_09HNMKNJDK@glColor4i@			; `string'
PUBLIC	??_C@_0L@LPBEMNBL@glColor4iv@			; `string'
PUBLIC	??_C@_09MNOHCDOB@glColor4s@			; `string'
PUBLIC	??_C@_0L@KOKFOLLN@glColor4sv@			; `string'
PUBLIC	??_C@_0L@IEIGEAFK@glColor4ub@			; `string'
PUBLIC	??_C@_0M@PCFPOANK@glColor4ubv@			; `string'
PUBLIC	??_C@_0L@GHHCJJJB@glColor4ui@			; `string'
PUBLIC	??_C@_0M@POAKAPDL@glColor4uiv@			; `string'
PUBLIC	??_C@_0L@NHFPGDEK@glColor4us@			; `string'
PUBLIC	??_C@_0M@OPLLCJJN@glColor4usv@			; `string'
PUBLIC	??_C@_0L@DFCKJEPI@glEdgeFlag@			; `string'
PUBLIC	??_C@_0M@MKDGIOMK@glEdgeFlagv@			; `string'
PUBLIC	??_C@_05OIBMBLHE@glEnd@				; `string'
PUBLIC	??_C@_08HOOEKNLP@glIndexd@			; `string'
PUBLIC	??_C@_09CCMFJEMA@glIndexdv@			; `string'
PUBLIC	??_C@_08EMNCMPDN@glIndexf@			; `string'
PUBLIC	??_C@_09CBEBEAKO@glIndexfv@			; `string'
PUBLIC	??_C@_08MLEKNDPC@glIndexi@			; `string'
PUBLIC	??_C@_09CKBNAHJD@glIndexiv@			; `string'
PUBLIC	??_C@_08HLGHCJCJ@glIndexs@			; `string'
PUBLIC	??_C@_09DLKMCBDF@glIndexsv@			; `string'
PUBLIC	??_C@_0L@FCAONKPI@glNormal3b@			; `string'
PUBLIC	??_C@_0M@MKFBKKIE@glNormal3bv@			; `string'
PUBLIC	??_C@_0L@EFEHNHO@glNormal3d@			; `string'
PUBLIC	??_C@_0M@MONMNGDG@glNormal3dv@			; `string'
PUBLIC	??_C@_0L@DGGCBPPM@glNormal3f@			; `string'
PUBLIC	??_C@_0M@MNFIACFI@glNormal3fv@			; `string'
PUBLIC	??_C@_0L@LBPKADDD@glNormal3i@			; `string'
PUBLIC	??_C@_0M@MGAEEFGF@glNormal3iv@			; `string'
PUBLIC	??_C@_0L@BNHPJOI@glNormal3s@			; `string'
PUBLIC	??_C@_0M@NHLFGDMD@glNormal3sv@			; `string'
PUBLIC	??_C@_0O@JNCPGME@glRasterPos2d@			; `string'
PUBLIC	??_C@_0P@OFGFAKCP@glRasterPos2dv@		; `string'
PUBLIC	??_C@_0O@DLOEJEEG@glRasterPos2f@		; `string'
PUBLIC	??_C@_0P@OGOBNOEB@glRasterPos2fv@		; `string'
PUBLIC	??_C@_0O@LMHMIIIJ@glRasterPos2i@		; `string'
PUBLIC	??_C@_0P@ONLNJJHM@glRasterPos2iv@		; `string'
PUBLIC	??_C@_0O@MFBHCFC@glRasterPos2s@			; `string'
PUBLIC	??_C@_0P@PMAMLPNK@glRasterPos2sv@		; `string'
PUBLIC	??_C@_0O@IBAJMPD@glRasterPos3d@			; `string'
PUBLIC	??_C@_0P@FNNJGNEK@glRasterPos3dv@		; `string'
PUBLIC	??_C@_0O@DKCGPOHB@glRasterPos3f@		; `string'
PUBLIC	??_C@_0P@FOFNLJCE@glRasterPos3fv@		; `string'
PUBLIC	??_C@_0O@LNLOOCLO@glRasterPos3i@		; `string'
PUBLIC	??_C@_0P@FFABPOBJ@glRasterPos3iv@		; `string'
PUBLIC	??_C@_0O@NJDBIGF@glRasterPos3s@			; `string'
PUBLIC	??_C@_0P@EELANILP@glRasterPos3sv@		; `string'
PUBLIC	??_C@_0O@NFPIKHG@glRasterPos4d@			; `string'
PUBLIC	??_C@_0P@MAAOFFPD@glRasterPos4dv@		; `string'
PUBLIC	??_C@_0O@DPGJOIPE@glRasterPos4f@		; `string'
PUBLIC	??_C@_0P@MDIKIBJN@glRasterPos4fv@		; `string'
PUBLIC	??_C@_0O@LIPBPEDL@glRasterPos4i@		; `string'
PUBLIC	??_C@_0P@MINGMGKA@glRasterPos4iv@		; `string'
PUBLIC	??_C@_0O@INMAOOA@glRasterPos4s@			; `string'
PUBLIC	??_C@_0P@NJGHOAAG@glRasterPos4sv@		; `string'
PUBLIC	??_C@_07GHILMIKG@glRectd@			; `string'
PUBLIC	??_C@_08EGLHFDGF@glRectdv@			; `string'
PUBLIC	??_C@_07FFLNKKCE@glRectf@			; `string'
PUBLIC	??_C@_08EFDDIHAL@glRectfv@			; `string'
PUBLIC	??_C@_07NCCFLGOL@glRecti@			; `string'
PUBLIC	??_C@_08EOGPMADG@glRectiv@			; `string'
PUBLIC	??_C@_07GCAIEMDA@glRects@			; `string'
PUBLIC	??_C@_08FPNOOGJA@glRectsv@			; `string'
PUBLIC	??_C@_0N@CKKBPCNP@glTexCoord1d@			; `string'
PUBLIC	??_C@_0O@GPCDLAMH@glTexCoord1dv@		; `string'
PUBLIC	??_C@_0N@BIJHJAFN@glTexCoord1f@			; `string'
PUBLIC	??_C@_0O@GMKHGEKJ@glTexCoord1fv@		; `string'
PUBLIC	??_C@_0N@JPAPIMJC@glTexCoord1i@			; `string'
PUBLIC	??_C@_0O@GHPLCDJE@glTexCoord1iv@		; `string'
PUBLIC	??_C@_0N@CPCCHGEJ@glTexCoord1s@			; `string'
PUBLIC	??_C@_0O@HGEKAFDC@glTexCoord1sv@		; `string'
PUBLIC	??_C@_0N@CIOHEMIG@glTexCoord2d@			; `string'
PUBLIC	??_C@_0O@HNJGBPCJ@glTexCoord2dv@		; `string'
PUBLIC	??_C@_0N@BKNBCOAE@glTexCoord2f@			; `string'
PUBLIC	??_C@_0O@HOBCMLEH@glTexCoord2fv@		; `string'
PUBLIC	??_C@_0N@JNEJDCML@glTexCoord2i@			; `string'
PUBLIC	??_C@_0O@HFEOIMHK@glTexCoord2iv@		; `string'
PUBLIC	??_C@_0N@CNGEMIBA@glTexCoord2s@			; `string'
PUBLIC	??_C@_0O@GEPPKKNM@glTexCoord2sv@		; `string'
PUBLIC	??_C@_0N@CJCFCGLB@glTexCoord3d@			; `string'
PUBLIC	??_C@_0O@MFCKHIEM@glTexCoord3dv@		; `string'
PUBLIC	??_C@_0N@BLBDEEDD@glTexCoord3f@			; `string'
PUBLIC	??_C@_0O@MGKOKMCC@glTexCoord3fv@		; `string'
PUBLIC	??_C@_0N@JMILFIPM@glTexCoord3i@			; `string'
PUBLIC	??_C@_0O@MNPCOLBP@glTexCoord3iv@		; `string'
PUBLIC	??_C@_0N@CMKGKCCH@glTexCoord3s@			; `string'
PUBLIC	??_C@_0O@NMEDMNLJ@glTexCoord3sv@		; `string'
PUBLIC	??_C@_0N@CMGKDADE@glTexCoord4d@			; `string'
PUBLIC	??_C@_0O@FIPNEAPF@glTexCoord4dv@		; `string'
PUBLIC	??_C@_0N@BOFMFCLG@glTexCoord4f@			; `string'
PUBLIC	??_C@_0O@FLHJJEJL@glTexCoord4fv@		; `string'
PUBLIC	??_C@_0N@JJMEEOHJ@glTexCoord4i@			; `string'
PUBLIC	??_C@_0O@FACFNDKG@glTexCoord4iv@		; `string'
PUBLIC	??_C@_0N@CJOJLEKC@glTexCoord4s@			; `string'
PUBLIC	??_C@_0O@EBJEPFAA@glTexCoord4sv@		; `string'
PUBLIC	??_C@_0L@INGMNOLD@glVertex2d@			; `string'
PUBLIC	??_C@_0M@CLIAFAJI@glVertex2dv@			; `string'
PUBLIC	??_C@_0L@LPFKLMDB@glVertex2f@			; `string'
PUBLIC	??_C@_0M@CIAEIEPG@glVertex2fv@			; `string'
PUBLIC	??_C@_0L@DIMCKAPO@glVertex2i@			; `string'
PUBLIC	??_C@_0M@CDFIMDML@glVertex2iv@			; `string'
PUBLIC	??_C@_0L@IIOPFKCF@glVertex2s@			; `string'
PUBLIC	??_C@_0M@DCOJOFGN@glVertex2sv@			; `string'
PUBLIC	??_C@_0L@IMKOLEIE@glVertex3d@			; `string'
PUBLIC	??_C@_0M@JDDMDHPN@glVertex3dv@			; `string'
PUBLIC	??_C@_0L@LOJINGAG@glVertex3f@			; `string'
PUBLIC	??_C@_0M@JALIODJD@glVertex3fv@			; `string'
PUBLIC	??_C@_0L@DJAAMKMJ@glVertex3i@			; `string'
PUBLIC	??_C@_0M@JLOEKEKO@glVertex3iv@			; `string'
PUBLIC	??_C@_0L@IJCNDABC@glVertex3s@			; `string'
PUBLIC	??_C@_0M@IKFFICAI@glVertex3sv@			; `string'
PUBLIC	??_C@_0L@IJOBKCAB@glVertex4d@			; `string'
PUBLIC	??_C@_0M@OOLAPEE@glVertex4dv@			; `string'
PUBLIC	??_C@_0L@LLNHMAID@glVertex4f@			; `string'
PUBLIC	??_C@_0M@NGPNLCK@glVertex4fv@			; `string'
PUBLIC	??_C@_0L@DMEPNMEM@glVertex4i@			; `string'
PUBLIC	??_C@_0M@GDDJMBH@glVertex4iv@			; `string'
PUBLIC	??_C@_0L@IMGCCGJH@glVertex4s@			; `string'
PUBLIC	??_C@_0M@BHICLKLB@glVertex4sv@			; `string'
PUBLIC	??_C@_0M@OHCNGGFF@glClipPlane@			; `string'
PUBLIC	??_C@_0BA@OOEHEGPC@glColorMaterial@		; `string'
PUBLIC	??_C@_06JJHNMGPD@glFogf@			; `string'
PUBLIC	??_C@_07FNEIAABA@glFogfv@			; `string'
PUBLIC	??_C@_06BOOFNKDM@glFogi@			; `string'
PUBLIC	??_C@_07FGBEEHCN@glFogiv@			; `string'
PUBLIC	??_C@_08LPDPILEL@glLightf@			; `string'
PUBLIC	??_C@_09JINEHJOD@glLightfv@			; `string'
PUBLIC	??_C@_08DIKHJHIE@glLighti@			; `string'
PUBLIC	??_C@_09JDIIDONO@glLightiv@			; `string'
PUBLIC	??_C@_0O@HPCJLAII@glLightModelf@		; `string'
PUBLIC	??_C@_0P@JKHJPMNC@glLightModelfv@		; `string'
PUBLIC	??_C@_0O@PILBKMEH@glLightModeli@		; `string'
PUBLIC	??_C@_0P@JBCFLLOP@glLightModeliv@		; `string'
PUBLIC	??_C@_0O@LDOINBOK@glLineStipple@		; `string'
PUBLIC	??_C@_0M@HANOIKMC@glMaterialf@			; `string'
PUBLIC	??_C@_0N@MHPKDGG@glMaterialfv@			; `string'
PUBLIC	??_C@_0M@PHEGJGAN@glMateriali@			; `string'
PUBLIC	??_C@_0N@HCDOEFL@glMaterialiv@			; `string'
PUBLIC	??_C@_0BB@GIADEJGP@glPolygonStipple@		; `string'
PUBLIC	??_C@_0N@NALMFHKN@glShadeModel@			; `string'
PUBLIC	??_C@_09FCLLGECI@glTexEnvf@			; `string'
PUBLIC	??_C@_0L@EMICMNOO@glTexEnvfv@			; `string'
PUBLIC	??_C@_09NFCDHIOH@glTexEnvi@			; `string'
PUBLIC	??_C@_0L@EHNOIKND@glTexEnviv@			; `string'
PUBLIC	??_C@_09NPHJCAAD@glTexGend@			; `string'
PUBLIC	??_C@_0L@OALDPGOK@glTexGendv@			; `string'
PUBLIC	??_C@_09ONEPECIB@glTexGenf@			; `string'
PUBLIC	??_C@_0L@ODDHCCIE@glTexGenfv@			; `string'
PUBLIC	??_C@_09GKNHFOEO@glTexGeni@			; `string'
PUBLIC	??_C@_0L@OIGLGFLJ@glTexGeniv@			; `string'
PUBLIC	??_C@_0BB@COFAIKCN@glFeedbackBuffer@		; `string'
PUBLIC	??_C@_0P@KACPMBCN@glSelectBuffer@		; `string'
PUBLIC	??_C@_0N@HCFJFDGP@glRenderMode@			; `string'
PUBLIC	??_C@_0M@LBOBLINN@glInitNames@			; `string'
PUBLIC	??_C@_0L@JFFJNAJA@glLoadName@			; `string'
PUBLIC	??_C@_0O@KCIMMNEH@glPassThrough@		; `string'
PUBLIC	??_C@_09IKDPIJOE@glPopName@			; `string'
PUBLIC	??_C@_0L@LFFFABIK@glPushName@			; `string'
PUBLIC	??_C@_0N@OKAMEJMG@glClearAccum@			; `string'
PUBLIC	??_C@_0N@EIILHCMH@glClearIndex@			; `string'
PUBLIC	??_C@_0M@ONDJOEOA@glIndexMask@			; `string'
PUBLIC	??_C@_07LNIJJMEN@glAccum@			; `string'
PUBLIC	??_C@_0M@LLNGAHMN@glPopAttrib@			; `string'
PUBLIC	??_C@_0N@KDMLHFJM@glPushAttrib@			; `string'
PUBLIC	??_C@_07FEHGGJHC@glMap1d@			; `string'
PUBLIC	??_C@_07GGEAALPA@glMap1f@			; `string'
PUBLIC	??_C@_07FGDANHCL@glMap2d@			; `string'
PUBLIC	??_C@_07GEAGLFKJ@glMap2f@			; `string'
PUBLIC	??_C@_0M@MNDKIDNO@glMapGrid1d@			; `string'
PUBLIC	??_C@_0M@PPAMOBFM@glMapGrid1f@			; `string'
PUBLIC	??_C@_0M@MPHMDNIH@glMapGrid2d@			; `string'
PUBLIC	??_C@_0M@PNEKFPAF@glMapGrid2f@			; `string'
PUBLIC	??_C@_0O@FJBIDDKI@glEvalCoord1d@		; `string'
PUBLIC	??_C@_0P@KBDBONJJ@glEvalCoord1dv@		; `string'
PUBLIC	??_C@_0O@GLCOFBCK@glEvalCoord1f@		; `string'
PUBLIC	??_C@_0P@KCLFDJPH@glEvalCoord1fv@		; `string'
PUBLIC	??_C@_0O@FLFOINPB@glEvalCoord2d@		; `string'
PUBLIC	??_C@_0P@LDIEECHH@glEvalCoord2dv@		; `string'
PUBLIC	??_C@_0O@GJGIOPHD@glEvalCoord2f@		; `string'
PUBLIC	??_C@_0P@LAAAJGBJ@glEvalCoord2fv@		; `string'
PUBLIC	??_C@_0M@DCFEDLDA@glEvalMesh1@			; `string'
PUBLIC	??_C@_0N@DOEOCCJJ@glEvalPoint1@			; `string'
PUBLIC	??_C@_0M@BJHJGIPD@glEvalMesh2@			; `string'
PUBLIC	??_C@_0N@BFGDHBFK@glEvalPoint2@			; `string'
PUBLIC	??_C@_0M@BJGLMKCC@glAlphaFunc@			; `string'
PUBLIC	??_C@_0M@JAMJIGNB@glPixelZoom@			; `string'
PUBLIC	??_C@_0BB@HFCIPEN@glPixelTransferf@		; `string'
PUBLIC	??_C@_0BB@IAMKJDIC@glPixelTransferi@		; `string'
PUBLIC	??_C@_0N@CNONNBNO@glPixelMapfv@			; `string'
PUBLIC	??_C@_0O@ENPFNAEO@glPixelMapuiv@		; `string'
PUBLIC	??_C@_0O@FMEEPGOI@glPixelMapusv@		; `string'
PUBLIC	??_C@_0N@OACCOOE@glCopyPixels@			; `string'
PUBLIC	??_C@_0N@FLFIHFDP@glDrawPixels@			; `string'
PUBLIC	??_C@_0P@MMMNLMC@glGetClipPlane@		; `string'
PUBLIC	??_C@_0N@MGGMJGKA@glGetLightfv@			; `string'
PUBLIC	??_C@_0N@MNDANBJN@glGetLightiv@			; `string'
PUBLIC	??_C@_0L@FGIDEHCA@glGetMapdv@			; `string'
PUBLIC	??_C@_0L@FFAHJDEO@glGetMapfv@			; `string'
PUBLIC	??_C@_0L@FOFLNEHD@glGetMapiv@			; `string'
PUBLIC	??_C@_0BA@GCPPEEDM@glGetMaterialfv@		; `string'
PUBLIC	??_C@_0BA@GJKDADAB@glGetMaterialiv@		; `string'
PUBLIC	??_C@_0BA@EDGNDGIE@glGetPixelMapfv@		; `string'
PUBLIC	??_C@_0BB@MGCFOIED@glGetPixelMapuiv@		; `string'
PUBLIC	??_C@_0BB@NHJEMOOF@glGetPixelMapusv@		; `string'
PUBLIC	??_C@_0BE@PBJHLEJI@glGetPolygonStipple@		; `string'
PUBLIC	??_C@_0O@KDAJGFCL@glGetTexEnvfv@		; `string'
PUBLIC	??_C@_0O@KIFFCCBG@glGetTexEnviv@		; `string'
PUBLIC	??_C@_0O@PDIFOCP@glGetTexGendv@			; `string'
PUBLIC	??_C@_0O@MLMIKEB@glGetTexGenfv@			; `string'
PUBLIC	??_C@_0O@HOAMNHM@glGetTexGeniv@			; `string'
PUBLIC	??_C@_08DMFMJKDH@glIsList@			; `string'
PUBLIC	??_C@_09ICLFHOKP@glFrustum@			; `string'
PUBLIC	??_C@_0P@EJAFHEPO@glLoadIdentity@		; `string'
PUBLIC	??_C@_0O@DJGBMGEI@glLoadMatrixf@		; `string'
PUBLIC	??_C@_0O@LFHKEMK@glLoadMatrixd@			; `string'
PUBLIC	??_C@_0N@KDLNHKEJ@glMatrixMode@			; `string'
PUBLIC	??_C@_0O@LHKDNPKJ@glMultMatrixf@		; `string'
PUBLIC	??_C@_0O@IFJFLNCL@glMultMatrixd@		; `string'
PUBLIC	??_C@_07DBAFHOII@glOrtho@			; `string'
PUBLIC	??_C@_0M@JPEAAEEK@glPopMatrix@			; `string'
PUBLIC	??_C@_0N@IHFNHGBL@glPushMatrix@			; `string'
PUBLIC	??_C@_09GANFLDAO@glRotated@			; `string'
PUBLIC	??_C@_09FCODNBIM@glRotatef@			; `string'
PUBLIC	??_C@_08KAMCINDI@glScaled@			; `string'
PUBLIC	??_C@_08JCPEOPLK@glScalef@			; `string'
PUBLIC	??_C@_0N@LHMFFDFG@glTranslated@			; `string'
PUBLIC	??_C@_0N@IFPDDBNE@glTranslatef@			; `string'
PUBLIC	??_C@_0N@CMNPPOHA@glDrawArrays@			; `string'
PUBLIC	??_C@_0P@MENFIFGE@glDrawElements@		; `string'
PUBLIC	??_C@_0O@LADEDGJO@glGetPointerv@		; `string'
PUBLIC	??_C@_0BA@FFBJGNC@glPolygonOffset@		; `string'
PUBLIC	??_C@_0BB@MEEDBHPL@glCopyTexImage1D@		; `string'
PUBLIC	??_C@_0BB@MGAFKJKC@glCopyTexImage2D@		; `string'
PUBLIC	??_C@_0BE@PKNCAIGI@glCopyTexSubImage1D@		; `string'
PUBLIC	??_C@_0BE@PIJELGDB@glCopyTexSubImage2D@		; `string'
PUBLIC	??_C@_0BA@NFOOCKJD@glTexSubImage1D@		; `string'
PUBLIC	??_C@_0BA@NHKIJEMK@glTexSubImage2D@		; `string'
PUBLIC	??_C@_0O@JKKCIBGC@glBindTexture@		; `string'
PUBLIC	??_C@_0BB@KMPLFJIC@glDeleteTextures@		; `string'
PUBLIC	??_C@_0O@LLMANLNK@glGenTextures@		; `string'
PUBLIC	??_C@_0M@NJHAEPDN@glIsTexture@			; `string'
PUBLIC	??_C@_0P@CKCIJELG@glArrayElement@		; `string'
PUBLIC	??_C@_0P@DPKEGLKI@glColorPointer@		; `string'
PUBLIC	??_C@_0BF@LJDHBNBP@glDisableClientState@	; `string'
PUBLIC	??_C@_0BC@LILGCNN@glEdgeFlagPointer@		; `string'
PUBLIC	??_C@_0BE@KECPKGNE@glEnableClientState@		; `string'
PUBLIC	??_C@_0P@KGJBLKPD@glIndexPointer@		; `string'
PUBLIC	??_C@_0BE@EDEDCKLI@glInterleavedArrays@		; `string'
PUBLIC	??_C@_0BA@DCLMCEOP@glNormalPointer@		; `string'
PUBLIC	??_C@_0BC@DAOMILMO@glTexCoordPointer@		; `string'
PUBLIC	??_C@_0BA@HAHECJNK@glVertexPointer@		; `string'
PUBLIC	??_C@_0BG@DHOKJLEP@glAreTexturesResident@	; `string'
PUBLIC	??_C@_0BF@FFCGNNIA@glPrioritizeTextures@	; `string'
PUBLIC	??_C@_09BBIPIKNC@glIndexub@			; `string'
PUBLIC	??_C@_0L@BBKJOCAC@glIndexubv@			; `string'
PUBLIC	??_C@_0BC@GOOJKIDH@glPopClientAttrib@		; `string'
PUBLIC	??_C@_0BD@JKGPLNEA@glPushClientAttrib@		; `string'
PUBLIC	??_C@_0BE@IHNAGJGJ@glDrawRangeElements@		; `string'
PUBLIC	??_C@_0N@JAEIBBBF@glTexImage3D@			; `string'
PUBLIC	??_C@_0BA@NGGKPOPN@glTexSubImage3D@		; `string'
PUBLIC	??_C@_0BE@PJFGNMAG@glCopyTexSubImage3D@		; `string'
PUBLIC	??_C@_0BA@KOBBIKOF@glActiveTexture@		; `string'
PUBLIC	??_C@_0BB@BJGIPMOA@glSampleCoverage@		; `string'
PUBLIC	??_C@_0BH@GGHNMAGP@glCompressedTexImage3D@	; `string'
PUBLIC	??_C@_0BH@GHLPKKFI@glCompressedTexImage2D@	; `string'
PUBLIC	??_C@_0BH@GFPJBEAB@glCompressedTexImage1D@	; `string'
PUBLIC	??_C@_0BK@EBJMCDPA@glCompressedTexSubImage3D@	; `string'
PUBLIC	??_C@_0BK@EAFOEJMH@glCompressedTexSubImage2D@	; `string'
PUBLIC	??_C@_0BK@ECBIPHJO@glCompressedTexSubImage1D@	; `string'
PUBLIC	??_C@_0BI@MPANLPPL@glGetCompressedTexImage@	; `string'
PUBLIC	??_C@_0BG@EGKOMLFO@glClientActiveTexture@	; `string'
PUBLIC	??_C@_0BC@IHHPPFPP@glMultiTexCoord1d@		; `string'
PUBLIC	??_C@_0BD@FEOAEOAI@glMultiTexCoord1dv@		; `string'
PUBLIC	??_C@_0BC@LFEJJHHN@glMultiTexCoord1f@		; `string'
PUBLIC	??_C@_0BD@FHGEJKGG@glMultiTexCoord1fv@		; `string'
PUBLIC	??_C@_0BC@DCNBILLC@glMultiTexCoord1i@		; `string'
PUBLIC	??_C@_0BD@FMDINNFL@glMultiTexCoord1iv@		; `string'
PUBLIC	??_C@_0BC@ICPMHBGJ@glMultiTexCoord1s@		; `string'
PUBLIC	??_C@_0BD@ENIJPLPN@glMultiTexCoord1sv@		; `string'
PUBLIC	??_C@_0BC@IFDJELKG@glMultiTexCoord2d@		; `string'
PUBLIC	??_C@_0BD@EGFFOBOG@glMultiTexCoord2dv@		; `string'
PUBLIC	??_C@_0BC@LHAPCJCE@glMultiTexCoord2f@		; `string'
PUBLIC	??_C@_0BD@EFNBDFII@glMultiTexCoord2fv@		; `string'
PUBLIC	??_C@_0BC@DAJHDFOL@glMultiTexCoord2i@		; `string'
PUBLIC	??_C@_0BD@EOINHCLF@glMultiTexCoord2iv@		; `string'
PUBLIC	??_C@_0BC@IALKMPDA@glMultiTexCoord2s@		; `string'
PUBLIC	??_C@_0BD@FPDMFEBD@glMultiTexCoord2sv@		; `string'
PUBLIC	??_C@_0BC@IEPLCBJB@glMultiTexCoord3d@		; `string'
PUBLIC	??_C@_0BD@POOJIGID@glMultiTexCoord3dv@		; `string'
PUBLIC	??_C@_0BC@LGMNEDBD@glMultiTexCoord3f@		; `string'
PUBLIC	??_C@_0BD@PNGNFCON@glMultiTexCoord3fv@		; `string'
PUBLIC	??_C@_0BC@DBFFFPNM@glMultiTexCoord3i@		; `string'
PUBLIC	??_C@_0BD@PGDBBFNA@glMultiTexCoord3iv@		; `string'
PUBLIC	??_C@_0BC@IBHIKFAH@glMultiTexCoord3s@		; `string'
PUBLIC	??_C@_0BD@OHIADDHG@glMultiTexCoord3sv@		; `string'
PUBLIC	??_C@_0BC@IBLEDHBE@glMultiTexCoord4d@		; `string'
PUBLIC	??_C@_0BD@GDDOLODK@glMultiTexCoord4dv@		; `string'
PUBLIC	??_C@_0BC@LDICFFJG@glMultiTexCoord4f@		; `string'
PUBLIC	??_C@_0BD@GALKGKFE@glMultiTexCoord4fv@		; `string'
PUBLIC	??_C@_0BC@DEBKEJFJ@glMultiTexCoord4i@		; `string'
PUBLIC	??_C@_0BD@GLOGCNGJ@glMultiTexCoord4iv@		; `string'
PUBLIC	??_C@_0BC@IEDHLDIC@glMultiTexCoord4s@		; `string'
PUBLIC	??_C@_0BD@HKFHALMP@glMultiTexCoord4sv@		; `string'
PUBLIC	??_C@_0BH@OJNLGHA@glLoadTransposeMatrixf@	; `string'
PUBLIC	??_C@_0BH@DMKLNEPC@glLoadTransposeMatrixd@	; `string'
PUBLIC	??_C@_0BH@DPBMPCNC@glMultTransposeMatrixf@	; `string'
PUBLIC	??_C@_0BH@NCKJAFA@glMultTransposeMatrixd@	; `string'
PUBLIC	??_C@_0BE@LLLCIIOO@glBlendFuncSeparate@		; `string'
PUBLIC	??_C@_0BC@IBABPJFA@glMultiDrawArrays@		; `string'
PUBLIC	??_C@_0BE@MPDFJJLL@glMultiDrawElements@		; `string'
PUBLIC	??_C@_0BC@FGOOEDO@glPointParameterf@		; `string'
PUBLIC	??_C@_0BD@LIABKNDP@glPointParameterfv@		; `string'
PUBLIC	??_C@_0BC@ICPGPIPB@glPointParameteri@		; `string'
PUBLIC	??_C@_0BD@LDFNOKAC@glPointParameteriv@		; `string'
PUBLIC	??_C@_0M@GCBCNNOF@glFogCoordf@			; `string'
PUBLIC	??_C@_0N@KJGHNKFK@glFogCoordfv@			; `string'
PUBLIC	??_C@_0M@FACELPGH@glFogCoordd@			; `string'
PUBLIC	??_C@_0N@KKODAODE@glFogCoorddv@			; `string'
PUBLIC	??_C@_0BC@GECGFLP@glFogCoordPointer@		; `string'
PUBLIC	??_C@_0BD@MCCHHBGK@glSecondaryColor3b@		; `string'
PUBLIC	??_C@_0BE@NEMAHBEH@glSecondaryColor3bv@		; `string'
PUBLIC	??_C@_0BD@JEHNNGOM@glSecondaryColor3d@		; `string'
PUBLIC	??_C@_0BE@NAENANPF@glSecondaryColor3dv@		; `string'
PUBLIC	??_C@_0BD@KGELLEGO@glSecondaryColor3f@		; `string'
PUBLIC	??_C@_0BE@NDMJNJJL@glSecondaryColor3fv@		; `string'
PUBLIC	??_C@_0BD@CBNDKIKB@glSecondaryColor3i@		; `string'
PUBLIC	??_C@_0BE@NIJFJOKG@glSecondaryColor3iv@		; `string'
PUBLIC	??_C@_0BD@JBPOFCHK@glSecondaryColor3s@		; `string'
PUBLIC	??_C@_0BE@MJCELIAA@glSecondaryColor3sv@		; `string'
PUBLIC	??_C@_0BE@ODAHBDOH@glSecondaryColor3ub@		; `string'
PUBLIC	??_C@_0BF@EHOIKOLI@glSecondaryColor3ubv@	; `string'
PUBLIC	??_C@_0BE@PDMKCM@glSecondaryColor3ui@		; `string'
PUBLIC	??_C@_0BF@ELLNEBFJ@glSecondaryColor3uiv@	; `string'
PUBLIC	??_C@_0BE@LANODAPH@glSecondaryColor3us@		; `string'
PUBLIC	??_C@_0BF@FKAMGHPP@glSecondaryColor3usv@	; `string'
PUBLIC	??_C@_0BI@EFMNDJOO@glSecondaryColorPointer@	; `string'
PUBLIC	??_C@_0O@JGNKBLNH@glWindowPos2d@		; `string'
PUBLIC	??_C@_0P@GBEEEDBM@glWindowPos2dv@		; `string'
PUBLIC	??_C@_0O@KEOMHJFF@glWindowPos2f@		; `string'
PUBLIC	??_C@_0P@GCMAJHHC@glWindowPos2fv@		; `string'
PUBLIC	??_C@_0O@CDHEGFJK@glWindowPos2i@		; `string'
PUBLIC	??_C@_0P@GJJMNAEP@glWindowPos2iv@		; `string'
PUBLIC	??_C@_0O@JDFJJPEB@glWindowPos2s@		; `string'
PUBLIC	??_C@_0P@HICNPGOJ@glWindowPos2sv@		; `string'
PUBLIC	??_C@_0O@JHBIHBOA@glWindowPos3d@		; `string'
PUBLIC	??_C@_0P@NJPICEHJ@glWindowPos3dv@		; `string'
PUBLIC	??_C@_0O@KFCOBDGC@glWindowPos3f@		; `string'
PUBLIC	??_C@_0P@NKHMPABH@glWindowPos3fv@		; `string'
PUBLIC	??_C@_0O@CCLGAPKN@glWindowPos3i@		; `string'
PUBLIC	??_C@_0P@NBCALHCK@glWindowPos3iv@		; `string'
PUBLIC	??_C@_0O@JCJLPFHG@glWindowPos3s@		; `string'
PUBLIC	??_C@_0P@MAJBJBIM@glWindowPos3sv@		; `string'
PUBLIC	??_C@_0N@PKBMFJDK@glBlendColor@			; `string'
PUBLIC	??_C@_0BA@PFHILPAN@glBlendEquation@		; `string'
PUBLIC	??_C@_0N@CJIGHHJ@glGenQueries@			; `string'
PUBLIC	??_C@_0BA@IOKEHMOH@glDeleteQueries@		; `string'
PUBLIC	??_C@_09CNNLCEBN@glIsQuery@			; `string'
PUBLIC	??_C@_0N@GIAGIGPA@glBeginQuery@			; `string'
PUBLIC	??_C@_0L@FLEBHIDM@glEndQuery@			; `string'
PUBLIC	??_C@_0N@BPACPFCI@glGetQueryiv@			; `string'
PUBLIC	??_C@_0BD@KMBBCJID@glGetQueryObjectiv@		; `string'
PUBLIC	??_C@_0BE@MNBBKJ@glGetQueryObjectuiv@		; `string'
PUBLIC	??_C@_0N@BONEPPLO@glBindBuffer@			; `string'
PUBLIC	??_C@_0BA@DMNLADIO@glDeleteBuffers@		; `string'
PUBLIC	??_C@_0N@LAOHBIBA@glGenBuffers@			; `string'
PUBLIC	??_C@_0L@KFPDMKNG@glIsBuffer@			; `string'
PUBLIC	??_C@_0N@JHHJMABP@glBufferData@			; `string'
PUBLIC	??_C@_0BA@GAJMDBBN@glBufferSubData@		; `string'
PUBLIC	??_C@_0BD@PNDAHMBO@glGetBufferSubData@		; `string'
PUBLIC	??_C@_0M@NNHDPACA@glMapBuffer@			; `string'
PUBLIC	??_C@_0O@OFGHBLEO@glUnmapBuffer@		; `string'
PUBLIC	??_C@_0BH@BMIEIFJP@glGetBufferParameteriv@	; `string'
PUBLIC	??_C@_0BE@KNJEIFMC@glGetBufferPointerv@		; `string'
PUBLIC	??_C@_0BI@JNHDNJAG@glBlendEquationSeparate@	; `string'
PUBLIC	??_C@_0O@COHJKDBH@glDrawBuffers@		; `string'
PUBLIC	??_C@_0BE@GAPLDNGF@glStencilOpSeparate@		; `string'
PUBLIC	??_C@_0BG@FCMNCEIA@glStencilFuncSeparate@	; `string'
PUBLIC	??_C@_0BG@MMKPIEJI@glStencilMaskSeparate@	; `string'
PUBLIC	??_C@_0P@LDMLEABL@glAttachShader@		; `string'
PUBLIC	??_C@_0BF@MHKEFIHM@glBindAttribLocation@	; `string'
PUBLIC	??_C@_0BA@DGIEGONF@glCompileShader@		; `string'
PUBLIC	??_C@_0BA@FLKLHNKP@glCreateProgram@		; `string'
PUBLIC	??_C@_0P@HGHBNC@glCreateShader@			; `string'
PUBLIC	??_C@_0BA@NKGCDOPO@glDeleteProgram@		; `string'
PUBLIC	??_C@_0P@HHCDONAG@glDeleteShader@		; `string'
PUBLIC	??_C@_0P@DJFJFCJL@glDetachShader@		; `string'
PUBLIC	??_C@_0BL@NKHLOFFF@glDisableVertexAttribArray@	; `string'
PUBLIC	??_C@_0BK@EHBAHNHE@glEnableVertexAttribArray@	; `string'
PUBLIC	??_C@_0BC@MBALAOHF@glGetActiveAttrib@		; `string'
PUBLIC	??_C@_0BD@NIMHLLKN@glGetActiveUniform@		; `string'
PUBLIC	??_C@_0BF@GHMDGFEM@glGetAttachedShaders@	; `string'
PUBLIC	??_C@_0BE@BEPGJDMM@glGetAttribLocation@		; `string'
PUBLIC	??_C@_0P@FMMDFLCO@glGetProgramiv@		; `string'
PUBLIC	??_C@_0BE@DHGHAJFL@glGetProgramInfoLog@		; `string'
PUBLIC	??_C@_0O@JBDFPDMG@glGetShaderiv@		; `string'
PUBLIC	??_C@_0BD@GIABBCMO@glGetShaderInfoLog@		; `string'
PUBLIC	??_C@_0BC@ELEIFJEL@glGetShaderSource@		; `string'
PUBLIC	??_C@_0BF@KIOPGICP@glGetUniformLocation@	; `string'
PUBLIC	??_C@_0P@DFCJIBG@glGetUniformfv@		; `string'
PUBLIC	??_C@_0P@IAONPCL@glGetUniformiv@		; `string'
PUBLIC	??_C@_0BE@HDPMJMIN@glGetVertexAttribdv@		; `string'
PUBLIC	??_C@_0BE@HAHIEIOD@glGetVertexAttribfv@		; `string'
PUBLIC	??_C@_0BE@HLCEAPNO@glGetVertexAttribiv@		; `string'
PUBLIC	??_C@_0BK@DOJMENLD@glGetVertexAttribPointerv@	; `string'
PUBLIC	??_C@_0M@INLOJDGO@glIsProgram@			; `string'
PUBLIC	??_C@_0L@MDDLFIHC@glIsShader@			; `string'
PUBLIC	??_C@_0O@PIOEEBPO@glLinkProgram@		; `string'
PUBLIC	??_C@_0P@DFHCPFMO@glShaderSource@		; `string'
PUBLIC	??_C@_0N@ICBDHBI@glUseProgram@			; `string'
PUBLIC	??_C@_0M@MLICAPOF@glUniform1f@			; `string'
PUBLIC	??_C@_0M@MJMELBLM@glUniform2f@			; `string'
PUBLIC	??_C@_0M@MIAGNLIL@glUniform3f@			; `string'
PUBLIC	??_C@_0M@MNEJMNAO@glUniform4f@			; `string'
PUBLIC	??_C@_0M@EMBKBDCK@glUniform1i@			; `string'
PUBLIC	??_C@_0M@EOFMKNHD@glUniform2i@			; `string'
PUBLIC	??_C@_0M@EPJOMHEE@glUniform3i@			; `string'
PUBLIC	??_C@_0M@EKNBNBMB@glUniform4i@			; `string'
PUBLIC	??_C@_0N@KJMOEKII@glUniform1fv@			; `string'
PUBLIC	??_C@_0N@LLHLOFGG@glUniform2fv@			; `string'
PUBLIC	??_C@_0N@DMHICAD@glUniform3fv@			; `string'
PUBLIC	??_C@_0N@JOBALKLK@glUniform4fv@			; `string'
PUBLIC	??_C@_0N@KCJCANLF@glUniform1iv@			; `string'
PUBLIC	??_C@_0N@LACHKCFL@glUniform2iv@			; `string'
PUBLIC	??_C@_0N@IJLMFDO@glUniform3iv@			; `string'
PUBLIC	??_C@_0N@JFEMPNIH@glUniform4iv@			; `string'
PUBLIC	??_C@_0BD@JIBJELHD@glUniformMatrix2fv@		; `string'
PUBLIC	??_C@_0BD@CAKFCMBG@glUniformMatrix3fv@		; `string'
PUBLIC	??_C@_0BD@LNHCBEKP@glUniformMatrix4fv@		; `string'
PUBLIC	??_C@_0BC@MAPGDLJK@glValidateProgram@		; `string'
PUBLIC	??_C@_0BB@PIOLPNPC@glVertexAttrib1d@		; `string'
PUBLIC	??_C@_0BC@CKCOKGLN@glVertexAttrib1dv@		; `string'
PUBLIC	??_C@_0BB@MKNNJPHA@glVertexAttrib1f@		; `string'
PUBLIC	??_C@_0BC@CJKKHCND@glVertexAttrib1fv@		; `string'
PUBLIC	??_C@_0BB@PNGIHJGE@glVertexAttrib1s@		; `string'
PUBLIC	??_C@_0BC@DDEHBDEI@glVertexAttrib1sv@		; `string'
PUBLIC	??_C@_0BB@PKKNEDKL@glVertexAttrib2d@		; `string'
PUBLIC	??_C@_0BC@DIJLAJFD@glVertexAttrib2dv@		; `string'
PUBLIC	??_C@_0BB@MIJLCBCJ@glVertexAttrib2f@		; `string'
PUBLIC	??_C@_0BC@DLBPNNDN@glVertexAttrib2fv@		; `string'
PUBLIC	??_C@_0BB@PPCOMHDN@glVertexAttrib2s@		; `string'
PUBLIC	??_C@_0BC@CBPCLMKG@glVertexAttrib2sv@		; `string'
PUBLIC	??_C@_0BB@PLGPCJJM@glVertexAttrib3d@		; `string'
PUBLIC	??_C@_0BC@IACHGODG@glVertexAttrib3dv@		; `string'
PUBLIC	??_C@_0BB@MJFJELBO@glVertexAttrib3f@		; `string'
PUBLIC	??_C@_0BC@IDKDLKFI@glVertexAttrib3fv@		; `string'
PUBLIC	??_C@_0BB@POOMKNAK@glVertexAttrib3s@		; `string'
PUBLIC	??_C@_0BC@JJEONLMD@glVertexAttrib3sv@		; `string'
PUBLIC	??_C@_0BD@NANPPEGB@glVertexAttrib4Nbv@		; `string'
PUBLIC	??_C@_0BD@NMIKBLIA@glVertexAttrib4Niv@		; `string'
PUBLIC	??_C@_0BD@MNDLDNCG@glVertexAttrib4Nsv@		; `string'
PUBLIC	??_C@_0BD@OHBIJGMB@glVertexAttrib4Nub@		; `string'
PUBLIC	??_C@_0BE@JFOBDEMA@glVertexAttrib4Nubv@		; `string'
PUBLIC	??_C@_0BE@JJLENLCB@glVertexAttrib4Nuiv@		; `string'
PUBLIC	??_C@_0BE@IIAFPNIH@glVertexAttrib4Nusv@		; `string'
PUBLIC	??_C@_0BC@BJHNCKDN@glVertexAttrib4bv@		; `string'
PUBLIC	??_C@_0BB@POCADPBJ@glVertexAttrib4d@		; `string'
PUBLIC	??_C@_0BC@BNPAFGIP@glVertexAttrib4dv@		; `string'
PUBLIC	??_C@_0BB@MMBGFNJL@glVertexAttrib4f@		; `string'
PUBLIC	??_C@_0BC@BOHEICOB@glVertexAttrib4fv@		; `string'
PUBLIC	??_C@_0BC@BFCIMFNM@glVertexAttrib4iv@		; `string'
PUBLIC	??_C@_0BB@PLKDLLIP@glVertexAttrib4s@		; `string'
PUBLIC	??_C@_0BC@EJJODHK@glVertexAttrib4sv@		; `string'
PUBLIC	??_C@_0BD@PHPFILMB@glVertexAttrib4ubv@		; `string'
PUBLIC	??_C@_0BD@PLKAGECA@glVertexAttrib4uiv@		; `string'
PUBLIC	??_C@_0BD@OKBBECIG@glVertexAttrib4usv@		; `string'
PUBLIC	??_C@_0BG@JPNNNPKG@glVertexAttribPointer@	; `string'
PUBLIC	??_C@_0BF@KDDJMCDK@glUniformMatrix2x3fv@	; `string'
PUBLIC	??_C@_0BF@NANJHGPK@glUniformMatrix3x2fv@	; `string'
PUBLIC	??_C@_0BF@DOOOPKID@glUniformMatrix2x4fv@	; `string'
PUBLIC	??_C@_0BF@MNNMEGEC@glUniformMatrix4x2fv@	; `string'
PUBLIC	??_C@_0BF@PFLCCJCG@glUniformMatrix3x4fv@	; `string'
PUBLIC	??_C@_0BF@HFGACBCH@glUniformMatrix4x3fv@	; `string'
PUBLIC	??_C@_0N@JHNNNJFG@glColorMaski@			; `string'
PUBLIC	??_C@_0BA@OAKNOBP@glGetBooleani_v@		; `string'
PUBLIC	??_C@_0BA@FKCNNMFO@glGetIntegeri_v@		; `string'
PUBLIC	??_C@_09IEGEGIEN@glEnablei@			; `string'
PUBLIC	??_C@_0L@BMJPGDDH@glDisablei@			; `string'
PUBLIC	??_C@_0N@IMGKGOKN@glIsEnabledi@			; `string'
PUBLIC	??_C@_0BJ@FHJKOECC@glBeginTransformFeedback@	; `string'
PUBLIC	??_C@_0BH@LCFLNNBH@glEndTransformFeedback@	; `string'
PUBLIC	??_C@_0BC@EEMMCHMB@glBindBufferRange@		; `string'
PUBLIC	??_C@_0BB@LDPKOCJI@glBindBufferBase@		; `string'
PUBLIC	??_C@_0BM@IJFAKBEF@glTransformFeedbackVaryings@	; `string'
PUBLIC	??_C@_0BO@ODFLPNG@glGetTransformFeedbackVarying@ ; `string'
PUBLIC	??_C@_0N@HLGAGIMI@glClampColor@			; `string'
PUBLIC	??_C@_0BJ@EHEPIEPF@glBeginConditionalRender@	; `string'
PUBLIC	??_C@_0BH@KCIOLNMA@glEndConditionalRender@	; `string'
PUBLIC	??_C@_0BH@NLOEHKCD@glVertexAttribIPointer@	; `string'
PUBLIC	??_C@_0BF@KPDNEONP@glGetVertexAttribIiv@	; `string'
PUBLIC	??_C@_0BG@GCBDCABB@glGetVertexAttribIuiv@	; `string'
PUBLIC	??_C@_0BC@CDIIMMAL@glVertexAttribI1i@		; `string'
PUBLIC	??_C@_0BC@CBMOHCFC@glVertexAttribI2i@		; `string'
PUBLIC	??_C@_0BC@CAAMBIGF@glVertexAttribI3i@		; `string'
PUBLIC	??_C@_0BC@CFEDAOOA@glVertexAttribI4i@		; `string'
PUBLIC	??_C@_0BD@DGPCNLLO@glVertexAttribI1ui@		; `string'
PUBLIC	??_C@_0BD@CEEHHEFA@glVertexAttribI2ui@		; `string'
PUBLIC	??_C@_0BD@JMPLBDDF@glVertexAttribI3ui@		; `string'
PUBLIC	??_C@_0BD@BCMCLIM@glVertexAttribI4ui@		; `string'
PUBLIC	??_C@_0BD@OOJEIPDE@glVertexAttribI1iv@		; `string'
PUBLIC	??_C@_0BD@PMCBCANK@glVertexAttribI2iv@		; `string'
PUBLIC	??_C@_0BD@EEJNEHLP@glVertexAttribI3iv@		; `string'
PUBLIC	??_C@_0BD@NJEKHPAG@glVertexAttribI4iv@		; `string'
PUBLIC	??_C@_0BE@FFIKLCCA@glVertexAttribI1uiv@		; `string'
PUBLIC	??_C@_0BE@BCCKMIPA@glVertexAttribI2uiv@		; `string'
PUBLIC	??_C@_0BE@CPEKOBEA@glVertexAttribI3uiv@		; `string'
PUBLIC	??_C@_0BE@JNGKDNFA@glVertexAttribI4uiv@		; `string'
PUBLIC	??_C@_0BD@NFBPJAOH@glVertexAttribI4bv@		; `string'
PUBLIC	??_C@_0BD@MIPLFJKA@glVertexAttribI4sv@		; `string'
PUBLIC	??_C@_0BE@JBDPNCLB@glVertexAttribI4ubv@		; `string'
PUBLIC	??_C@_0BE@IMNLBLPG@glVertexAttribI4usv@		; `string'
PUBLIC	??_C@_0BA@NIGECFIF@glGetUniformuiv@		; `string'
PUBLIC	??_C@_0BH@DLJLAGBA@glBindFragDataLocation@	; `string'
PUBLIC	??_C@_0BG@NDOIGAMC@glGetFragDataLocation@	; `string'
PUBLIC	??_C@_0N@HKPEFJDP@glUniform1ui@			; `string'
PUBLIC	??_C@_0N@GIEBPGNB@glUniform2ui@			; `string'
PUBLIC	??_C@_0N@NAPNJBLE@glUniform3ui@			; `string'
PUBLIC	??_C@_0N@ENCKKJAN@glUniform4ui@			; `string'
PUBLIC	??_C@_0O@MPHJAHBE@glUniform1uiv@		; `string'
PUBLIC	??_C@_0O@IINJHNME@glUniform2uiv@		; `string'
PUBLIC	??_C@_0O@LFLJFEHE@glUniform3uiv@		; `string'
PUBLIC	??_C@_0O@HJJIIGE@glUniform4uiv@			; `string'
PUBLIC	??_C@_0BC@MAFJKEHB@glTexParameterIiv@		; `string'
PUBLIC	??_C@_0BD@FDBCMKBE@glTexParameterIuiv@		; `string'
PUBLIC	??_C@_0BF@ODBJFHDD@glGetTexParameterIiv@	; `string'
PUBLIC	??_C@_0BG@MLODKKFL@glGetTexParameterIuiv@	; `string'
PUBLIC	??_C@_0BA@CGCJAEIN@glClearBufferiv@		; `string'
PUBLIC	??_C@_0BB@OHPPAEID@glClearBufferuiv@		; `string'
PUBLIC	??_C@_0BA@CNHFEDLA@glClearBufferfv@		; `string'
PUBLIC	??_C@_0BA@OACPENCO@glClearBufferfi@		; `string'
PUBLIC	??_C@_0N@PILJCBOD@glGetStringi@			; `string'
PUBLIC	??_C@_0BB@DGGHKKOH@glIsRenderbuffer@		; `string'
PUBLIC	??_C@_0BD@EPOPJGFA@glBindRenderbuffer@		; `string'
PUBLIC	??_C@_0BG@KKOKEJDE@glDeleteRenderbuffers@	; `string'
PUBLIC	??_C@_0BD@MIGEDNGJ@glGenRenderbuffers@		; `string'
PUBLIC	??_C@_0BG@EOIILGMJ@glRenderbufferStorage@	; `string'
PUBLIC	??_C@_0BN@FGKAECKO@glGetRenderbufferParameteriv@ ; `string'
PUBLIC	??_C@_0BA@FGBIJCNH@glIsFramebuffer@		; `string'
PUBLIC	??_C@_0BC@CJMIBNO@glBindFramebuffer@		; `string'
PUBLIC	??_C@_0BF@DJNJENP@glDeleteFramebuffers@		; `string'
PUBLIC	??_C@_0BC@FAPEBGID@glGenFramebuffers@		; `string'
PUBLIC	??_C@_0BJ@GIOLHEAD@glCheckFramebufferStatus@	; `string'
PUBLIC	??_C@_0BH@JAMDNNBM@glFramebufferTexture1D@	; `string'
PUBLIC	??_C@_0BH@JCIFGDEF@glFramebufferTexture2D@	; `string'
PUBLIC	??_C@_0BH@JDEHAJHC@glFramebufferTexture3D@	; `string'
PUBLIC	??_C@_0BK@OJDINAOA@glFramebufferRenderbuffer@	; `string'
PUBLIC	??_C@_0CG@KLDGJEON@glGetFramebufferAttachmentParam@ ; `string'
PUBLIC	??_C@_0BB@BHNIMGDM@glGenerateMipmap@		; `string'
PUBLIC	??_C@_0BC@OANBDDEP@glBlitFramebuffer@		; `string'
PUBLIC	??_C@_0CB@HNONLGJE@glRenderbufferStorageMultisampl@ ; `string'
PUBLIC	??_C@_0BK@NIHIDBBO@glFramebufferTextureLayer@	; `string'
PUBLIC	??_C@_0BB@EOHJGBIO@glMapBufferRange@		; `string'
PUBLIC	??_C@_0BJ@NCDMGHKF@glFlushMappedBufferRange@	; `string'
PUBLIC	??_C@_0BC@LHBAHFAN@glBindVertexArray@		; `string'
PUBLIC	??_C@_0BF@BMPCJLEF@glDeleteVertexArrays@	; `string'
PUBLIC	??_C@_0BC@EPJLBJBJ@glGenVertexArrays@		; `string'
PUBLIC	??_C@_0BA@ODJEGGAE@glIsVertexArray@		; `string'
PUBLIC	??_C@_0BG@HIOFINAN@glDrawArraysInstanced@	; `string'
PUBLIC	??_C@_0BI@CGJENFBH@glDrawElementsInstanced@	; `string'
PUBLIC	??_C@_0M@IIMBBALL@glTexBuffer@			; `string'
PUBLIC	??_C@_0BI@LJDLNGAF@glPrimitiveRestartIndex@	; `string'
PUBLIC	??_C@_0BE@EPKABDOG@glCopyBufferSubData@		; `string'
PUBLIC	??_C@_0BE@MDPMIDEE@glGetUniformIndices@		; `string'
PUBLIC	??_C@_0BG@JEHIMPCG@glGetActiveUniformsiv@	; `string'
PUBLIC	??_C@_0BH@EGGFHKJJ@glGetActiveUniformName@	; `string'
PUBLIC	??_C@_0BH@CBDIMHHE@glGetUniformBlockIndex@	; `string'
PUBLIC	??_C@_0BK@DMHOPJGL@glGetActiveUniformBlockiv@	; `string'
PUBLIC	??_C@_0BM@KEMCJPAJ@glGetActiveUniformBlockName@	; `string'
PUBLIC	??_C@_0BG@BOLEKKCP@glUniformBlockBinding@	; `string'
PUBLIC	??_C@_0BJ@LFMMIAHA@glDrawElementsBaseVertex@	; `string'
PUBLIC	??_C@_0BO@KBDDBILP@glDrawRangeElementsBaseVertex@ ; `string'
PUBLIC	??_C@_0CC@KLOIIKNA@glDrawElementsInstancedBaseVert@ ; `string'
PUBLIC	??_C@_0BO@NAPFJEEK@glMultiDrawElementsBaseVertex@ ; `string'
PUBLIC	??_C@_0BC@ECOAPEBI@glProvokingVertex@		; `string'
PUBLIC	??_C@_0M@EFGFPFLP@glFenceSync@			; `string'
PUBLIC	??_C@_08JPIIHJEO@glIsSync@			; `string'
PUBLIC	??_C@_0N@PIFDNDFG@glDeleteSync@			; `string'
PUBLIC	??_C@_0BB@KDMPGJAC@glClientWaitSync@		; `string'
PUBLIC	??_C@_0L@MHLOGHGO@glWaitSync@			; `string'
PUBLIC	??_C@_0BA@INMBOHGL@glGetInteger64v@		; `string'
PUBLIC	??_C@_0M@MPEEOPIN@glGetSynciv@			; `string'
PUBLIC	??_C@_0BC@KOJILIEC@glGetInteger64i_v@		; `string'
PUBLIC	??_C@_0BJ@KKBIDGPP@glGetBufferParameteri64v@	; `string'
PUBLIC	??_C@_0BF@ENLMLILA@glFramebufferTexture@	; `string'
PUBLIC	??_C@_0BI@FHDFLFA@glTexImage2DMultisample@	; `string'
PUBLIC	??_C@_0BI@JIHMLKCG@glTexImage3DMultisample@	; `string'
PUBLIC	??_C@_0BD@DHLIMGN@glGetMultisamplefv@		; `string'
PUBLIC	??_C@_0O@JNHBCHMB@glSampleMaski@		; `string'
PUBLIC	??_C@_0BO@POJBGCGG@glBindFragDataLocationIndexed@ ; `string'
PUBLIC	??_C@_0BD@COCJFEOH@glGetFragDataIndex@		; `string'
PUBLIC	??_C@_0O@EMMLGGLG@glGenSamplers@		; `string'
PUBLIC	??_C@_0BB@FLPAOEOO@glDeleteSamplers@		; `string'
PUBLIC	??_C@_0M@LAJKHOKJ@glIsSampler@			; `string'
PUBLIC	??_C@_0O@PDEILAPG@glBindSampler@		; `string'
PUBLIC	??_C@_0BE@KBCBMPJO@glSamplerParameteri@		; `string'
PUBLIC	??_C@_0BF@GOHDEBPM@glSamplerParameteriv@	; `string'
PUBLIC	??_C@_0BE@CGLJNDFB@glSamplerParameterf@		; `string'
PUBLIC	??_C@_0BF@GFCPAGMB@glSamplerParameterfv@	; `string'
PUBLIC	??_C@_0BG@HKEIFIHF@glSamplerParameterIiv@	; `string'
PUBLIC	??_C@_0BH@FEMFBPPB@glSamplerParameterIuiv@	; `string'
PUBLIC	??_C@_0BI@FECAOLJP@glGetSamplerParameteriv@	; `string'
PUBLIC	??_C@_0BJ@KOMJDLDN@glGetSamplerParameterIiv@	; `string'
PUBLIC	??_C@_0BI@FPHMKMKC@glGetSamplerParameterfv@	; `string'
PUBLIC	??_C@_0BK@CMBGFHDA@glGetSamplerParameterIuiv@	; `string'
PUBLIC	??_C@_0P@KALICDIM@glQueryCounter@		; `string'
PUBLIC	??_C@_0BF@JDAPDEPE@glGetQueryObjecti64v@	; `string'
PUBLIC	??_C@_0BG@NEGGOMJO@glGetQueryObjectui64v@	; `string'
PUBLIC	??_C@_0BG@NEBMAEHM@glVertexAttribDivisor@	; `string'
PUBLIC	??_C@_0BD@FLACCOEN@glVertexAttribP1ui@		; `string'
PUBLIC	??_C@_0BE@HBFDOBHD@glVertexAttribP1uiv@		; `string'
PUBLIC	??_C@_0BD@EJLHIBKD@glVertexAttribP2ui@		; `string'
PUBLIC	??_C@_0BE@DGPDJLKD@glVertexAttribP2uiv@		; `string'
PUBLIC	??_C@_0BD@PBALOGMG@glVertexAttribP3ui@		; `string'
PUBLIC	??_C@_0BE@LJDLCBD@glVertexAttribP3uiv@		; `string'
PUBLIC	??_C@_0BD@GMNMNOHP@glVertexAttribP4ui@		; `string'
PUBLIC	??_C@_0BE@LJLDGOAD@glVertexAttribP4uiv@		; `string'
PUBLIC	??_C@_0N@EFBCIBMC@glVertexP2ui@			; `string'
PUBLIC	??_C@_0O@MEKGPGN@glVertexP2uiv@			; `string'
PUBLIC	??_C@_0N@PNKOOGKH@glVertexP3ui@			; `string'
PUBLIC	??_C@_0O@DBCKEGNN@glVertexP3uiv@		; `string'
PUBLIC	??_C@_0N@GAHJNOBO@glVertexP4ui@			; `string'
PUBLIC	??_C@_0O@IDAKJKMN@glVertexP4uiv@		; `string'
PUBLIC	??_C@_0P@OLJHLLHJ@glTexCoordP1ui@		; `string'
PUBLIC	??_C@_0BA@FAFHIAFD@glTexCoordP1uiv@		; `string'
PUBLIC	??_C@_0P@PJCCBEJH@glTexCoordP2ui@		; `string'
PUBLIC	??_C@_0BA@BHPHPKID@glTexCoordP2uiv@		; `string'
PUBLIC	??_C@_0P@EBJOHDPC@glTexCoordP3ui@		; `string'
PUBLIC	??_C@_0BA@CKJHNDDD@glTexCoordP3uiv@		; `string'
PUBLIC	??_C@_0P@NMEJELEL@glTexCoordP4ui@		; `string'
PUBLIC	??_C@_0BA@JILHAPCD@glTexCoordP4uiv@		; `string'
PUBLIC	??_C@_0BE@OAHHKHKG@glMultiTexCoordP1ui@		; `string'
PUBLIC	??_C@_0BF@EGDAKPAK@glMultiTexCoordP1uiv@	; `string'
PUBLIC	??_C@_0BE@PCMCAIEI@glMultiTexCoordP2ui@		; `string'
PUBLIC	??_C@_0BF@BJANFNK@glMultiTexCoordP2uiv@		; `string'
PUBLIC	??_C@_0BE@EKHOGPCN@glMultiTexCoordP3ui@		; `string'
PUBLIC	??_C@_0BF@DMPAPMGK@glMultiTexCoordP3uiv@	; `string'
PUBLIC	??_C@_0BE@NHKJFHJE@glMultiTexCoordP4ui@		; `string'
PUBLIC	??_C@_0BF@IONACAHK@glMultiTexCoordP4uiv@	; `string'
PUBLIC	??_C@_0N@PBEFBNHO@glNormalP3ui@			; `string'
PUBLIC	??_C@_0O@MOCJMHFG@glNormalP3uiv@		; `string'
PUBLIC	??_C@_0M@PEKBINNN@glColorP3ui@			; `string'
PUBLIC	??_C@_0N@IBPDNBJE@glColorP3uiv@			; `string'
PUBLIC	??_C@_0M@GJHGLFGE@glColorP4ui@			; `string'
PUBLIC	??_C@_0N@DDNDANIE@glColorP4uiv@			; `string'
PUBLIC	??_C@_0BF@PDDGBPKP@glSecondaryColorP3ui@	; `string'
PUBLIC	??_C@_0BG@DPPPFGBG@glSecondaryColorP3uiv@	; `string'
PUBLIC	??_C@_0BD@EDGCEBP@glMinSampleShading@		; `string'
PUBLIC	??_C@_0BB@MKHLNEOM@glBlendEquationi@		; `string'
PUBLIC	??_C@_0BJ@FNMBAGAC@glBlendEquationSeparatei@	; `string'
PUBLIC	??_C@_0N@IKKELNNP@glBlendFunci@			; `string'
PUBLIC	??_C@_0BF@PDDGKNBJ@glBlendFuncSeparatei@	; `string'
PUBLIC	??_C@_0BF@BGDCPAEP@glDrawArraysIndirect@	; `string'
PUBLIC	??_C@_0BH@LJJDOEDH@glDrawElementsIndirect@	; `string'
PUBLIC	??_C@_0M@PJLEGNGH@glUniform1d@			; `string'
PUBLIC	??_C@_0M@PLPCNDDO@glUniform2d@			; `string'
PUBLIC	??_C@_0M@PKDALJAJ@glUniform3d@			; `string'
PUBLIC	??_C@_0M@PPHPKPIM@glUniform4d@			; `string'
PUBLIC	??_C@_0N@KKEKJOOG@glUniform1dv@			; `string'
PUBLIC	??_C@_0N@LIPPDBAI@glUniform2dv@			; `string'
PUBLIC	??_C@_0N@EDFGGN@glUniform3dv@			; `string'
PUBLIC	??_C@_0N@JNJEGONE@glUniform4dv@			; `string'
PUBLIC	??_C@_0BD@JLJNJPBN@glUniformMatrix2dv@		; `string'
PUBLIC	??_C@_0BD@CDCBPIHI@glUniformMatrix3dv@		; `string'
PUBLIC	??_C@_0BD@LOPGMAMB@glUniformMatrix4dv@		; `string'
PUBLIC	??_C@_0BF@KALNBGFE@glUniformMatrix2x3dv@	; `string'
PUBLIC	??_C@_0BF@DNGKCOON@glUniformMatrix2x4dv@	; `string'
PUBLIC	??_C@_0BF@NDFNKCJE@glUniformMatrix3x2dv@	; `string'
PUBLIC	??_C@_0BF@PGDGPNEI@glUniformMatrix3x4dv@	; `string'
PUBLIC	??_C@_0BF@MOFIJCCM@glUniformMatrix4x2dv@	; `string'
PUBLIC	??_C@_0BF@HGOEPFEJ@glUniformMatrix4x3dv@	; `string'
PUBLIC	??_C@_0P@NGEMHI@glGetUniformdv@			; `string'
PUBLIC	??_C@_0BP@IBIPLDOA@glGetSubroutineUniformLocation@ ; `string'
PUBLIC	??_C@_0BF@ONDIGCJG@glGetSubroutineIndex@	; `string'
PUBLIC	??_C@_0BP@FAPFAJFP@glGetActiveSubroutineUniformiv@ ; `string'
PUBLIC	??_C@_0CB@KCFFPCGJ@glGetActiveSubroutineUniformNam@ ; `string'
PUBLIC	??_C@_0BK@JPHEACLL@glGetActiveSubroutineName@	; `string'
PUBLIC	??_C@_0BI@CDPOBBHI@glUniformSubroutinesuiv@	; `string'
PUBLIC	??_C@_0BK@BLMOFAGJ@glGetUniformSubroutineuiv@	; `string'
PUBLIC	??_C@_0BE@LOKJCDFH@glGetProgramStageiv@		; `string'
PUBLIC	??_C@_0BC@PAPDGMLA@glPatchParameteri@		; `string'
PUBLIC	??_C@_0BD@LJKINJKN@glPatchParameterfv@		; `string'
PUBLIC	??_C@_0BI@BPJKLMIG@glBindTransformFeedback@	; `string'
PUBLIC	??_C@_0BL@DIGEBFBK@glDeleteTransformFeedbacks@	; `string'
PUBLIC	??_C@_0BI@KANKBGAE@glGenTransformFeedbacks@	; `string'
PUBLIC	??_C@_0BG@BGFLKHBM@glIsTransformFeedback@	; `string'
PUBLIC	??_C@_0BJ@FFNLKBCB@glPauseTransformFeedback@	; `string'
PUBLIC	??_C@_0BK@JMHONFHF@glResumeTransformFeedback@	; `string'
PUBLIC	??_C@_0BI@LEOILCPN@glDrawTransformFeedback@	; `string'
PUBLIC	??_C@_0BO@IGLFNCDG@glDrawTransformFeedbackStream@ ; `string'
PUBLIC	??_C@_0BE@BDKPJDEE@glBeginQueryIndexed@		; `string'
PUBLIC	??_C@_0BC@DPMHMNME@glEndQueryIndexed@		; `string'
PUBLIC	??_C@_0BE@CCFJPMFI@glGetQueryIndexediv@		; `string'
PUBLIC	??_C@_0BI@HGKABJPJ@glReleaseShaderCompiler@	; `string'
PUBLIC	??_C@_0P@IMINELFB@glShaderBinary@		; `string'
PUBLIC	??_C@_0BL@MLAOOHPD@glGetShaderPrecisionFormat@	; `string'
PUBLIC	??_C@_0O@JDFJDNND@glDepthRangef@		; `string'
PUBLIC	??_C@_0O@FMBMCDIL@glClearDepthf@		; `string'
PUBLIC	??_C@_0BD@JBCEHKON@glGetProgramBinary@		; `string'
PUBLIC	??_C@_0BA@MIIDHOO@glProgramBinary@		; `string'
PUBLIC	??_C@_0BE@EELDBEME@glProgramParameteri@		; `string'
PUBLIC	??_C@_0BD@CADKHDMH@glUseProgramStages@		; `string'
PUBLIC	??_C@_0BG@IAIOGMEB@glActiveShaderProgram@	; `string'
PUBLIC	??_C@_0BH@BOJGDFJN@glCreateShaderProgramv@	; `string'
PUBLIC	??_C@_0BG@GLPOKNCG@glBindProgramPipeline@	; `string'
PUBLIC	??_C@_0BJ@CHBGABHE@glDeleteProgramPipelines@	; `string'
PUBLIC	??_C@_0BG@CCBKOCA@glGenProgramPipelines@	; `string'
PUBLIC	??_C@_0BE@DLHPDHCH@glIsProgramPipeline@		; `string'
PUBLIC	??_C@_0BH@DNOPNJMO@glGetProgramPipelineiv@	; `string'
PUBLIC	??_C@_0BD@COCLMGIM@glProgramUniform1i@		; `string'
PUBLIC	??_C@_0BE@JNEFDKLN@glProgramUniform1iv@		; `string'
PUBLIC	??_C@_0BD@KJLDNKED@glProgramUniform1f@		; `string'
PUBLIC	??_C@_0BE@JGBJHNIA@glProgramUniform1fv@		; `string'
PUBLIC	??_C@_0BD@JLIFLIMB@glProgramUniform1d@		; `string'
PUBLIC	??_C@_0BE@JFJNKJOO@glProgramUniform1dv@		; `string'
PUBLIC	??_C@_0BE@EFCDGODH@glProgramUniform1ui@		; `string'
PUBLIC	??_C@_0BF@MBJNFIBB@glProgramUniform1uiv@	; `string'
PUBLIC	??_C@_0BD@CMGNHINF@glProgramUniform2i@		; `string'
PUBLIC	??_C@_0BE@IPPAJFFD@glProgramUniform2iv@		; `string'
PUBLIC	??_C@_0BD@KLPFGEBK@glProgramUniform2f@		; `string'
PUBLIC	??_C@_0BE@IEKMNCGO@glProgramUniform2fv@		; `string'
PUBLIC	??_C@_0BD@JJMDAGJI@glProgramUniform2d@		; `string'
PUBLIC	??_C@_0BE@IHCIAGAA@glProgramUniform2dv@		; `string'
PUBLIC	??_C@_0BE@FHJGMBNJ@glProgramUniform2ui@		; `string'
PUBLIC	??_C@_0BF@IGDNCCMB@glProgramUniform2uiv@	; `string'
PUBLIC	??_C@_0BD@CNKPBCOC@glProgramUniform3i@		; `string'
PUBLIC	??_C@_0BE@DHEMPCDG@glProgramUniform3iv@		; `string'
PUBLIC	??_C@_0BD@KKDHAOCN@glProgramUniform3f@		; `string'
PUBLIC	??_C@_0BE@DMBALFAL@glProgramUniform3fv@		; `string'
PUBLIC	??_C@_0BD@JIABGMKP@glProgramUniform3d@		; `string'
PUBLIC	??_C@_0BE@DPJEGBGF@glProgramUniform3dv@		; `string'
PUBLIC	??_C@_0BE@OPCKKGLM@glProgramUniform3ui@		; `string'
PUBLIC	??_C@_0BF@LLFNALHB@glProgramUniform3uiv@	; `string'
PUBLIC	??_C@_0BD@CIOAAEGH@glProgramUniform4i@		; `string'
PUBLIC	??_C@_0BE@KKJLMKIP@glProgramUniform4iv@		; `string'
PUBLIC	??_C@_0BD@KPHIBIKI@glProgramUniform4f@		; `string'
PUBLIC	??_C@_0BE@KBMHINLC@glProgramUniform4fv@		; `string'
PUBLIC	??_C@_0BD@JNEOHKCK@glProgramUniform4d@		; `string'
PUBLIC	??_C@_0BE@KCEDFJNM@glProgramUniform4dv@		; `string'
PUBLIC	??_C@_0BE@HCPNJOAF@glProgramUniform4ui@		; `string'
PUBLIC	??_C@_0BF@JHNNHGB@glProgramUniform4uiv@		; `string'
PUBLIC	??_C@_0BK@PDPPIOAF@glProgramUniformMatrix2fv@	; `string'
PUBLIC	??_C@_0BK@ELEDOJGA@glProgramUniformMatrix3fv@	; `string'
PUBLIC	??_C@_0BK@NGJENBNJ@glProgramUniformMatrix4fv@	; `string'
PUBLIC	??_C@_0BK@PAHLFKGL@glProgramUniformMatrix2dv@	; `string'
PUBLIC	??_C@_0BK@EIMHDNAO@glProgramUniformMatrix3dv@	; `string'
PUBLIC	??_C@_0BK@NFBAAFLH@glProgramUniformMatrix4dv@	; `string'
PUBLIC	??_C@_0BM@DBFCEBJD@glProgramUniformMatrix2x3fv@	; `string'
PUBLIC	??_C@_0BM@ECLCPFFD@glProgramUniformMatrix3x2fv@	; `string'
PUBLIC	??_C@_0BM@KMIFHJCK@glProgramUniformMatrix2x4fv@	; `string'
PUBLIC	??_C@_0BM@FPLHMFOL@glProgramUniformMatrix4x2fv@	; `string'
PUBLIC	??_C@_0BM@GHNJKKIP@glProgramUniformMatrix3x4fv@	; `string'
PUBLIC	??_C@_0BM@OHALKCIO@glProgramUniformMatrix4x3fv@	; `string'
PUBLIC	??_C@_0BM@DCNGJFPN@glProgramUniformMatrix2x3dv@	; `string'
PUBLIC	??_C@_0BM@EBDGCBDN@glProgramUniformMatrix3x2dv@	; `string'
PUBLIC	??_C@_0BM@KPABKNEE@glProgramUniformMatrix2x4dv@	; `string'
PUBLIC	??_C@_0BM@FMDDBBIF@glProgramUniformMatrix4x2dv@	; `string'
PUBLIC	??_C@_0BM@GEFNHOOB@glProgramUniformMatrix3x4dv@	; `string'
PUBLIC	??_C@_0BM@OEIPHGOA@glProgramUniformMatrix4x3dv@	; `string'
PUBLIC	??_C@_0BK@HHHCKEGH@glValidateProgramPipeline@	; `string'
PUBLIC	??_C@_0BM@BFFCFFFG@glGetProgramPipelineInfoLog@	; `string'
PUBLIC	??_C@_0BC@KBPIECHE@glVertexAttribL1d@		; `string'
PUBLIC	??_C@_0BC@KDLOPMCN@glVertexAttribL2d@		; `string'
PUBLIC	??_C@_0BC@KCHMJGBK@glVertexAttribL3d@		; `string'
PUBLIC	??_C@_0BC@KHDDIAJP@glVertexAttribL4d@		; `string'
PUBLIC	??_C@_0BD@COKMJDBH@glVertexAttribL1dv@		; `string'
PUBLIC	??_C@_0BD@DMBJDMPJ@glVertexAttribL2dv@		; `string'
PUBLIC	??_C@_0BD@IEKFFLJM@glVertexAttribL3dv@		; `string'
PUBLIC	??_C@_0BD@BJHCGDCF@glVertexAttribL4dv@		; `string'
PUBLIC	??_C@_0BH@JBHDDPGM@glVertexAttribLPointer@	; `string'
PUBLIC	??_C@_0BF@JADLCNLO@glGetVertexAttribLdv@	; `string'
PUBLIC	??_C@_0BB@JIDIDPIB@glViewportArrayv@		; `string'
PUBLIC	??_C@_0BD@JIBIAPIN@glViewportIndexedf@		; `string'
PUBLIC	??_C@_0BE@OKPEDJOC@glViewportIndexedfv@		; `string'
PUBLIC	??_C@_0BA@BMNFINIA@glScissorArrayv@		; `string'
PUBLIC	??_C@_0BB@BJHNCIAL@glScissorIndexed@		; `string'
PUBLIC	??_C@_0BC@OOKOHKNA@glScissorIndexedv@		; `string'
PUBLIC	??_C@_0BD@JLCIOMKN@glDepthRangeArrayv@		; `string'
PUBLIC	??_C@_0BE@FMCFIJBP@glDepthRangeIndexed@		; `string'
PUBLIC	??_C@_0O@JKEOHGC@glGetFloati_v@			; `string'
PUBLIC	??_C@_0P@PDJCBGIA@glGetDoublei_v@		; `string'
PUBLIC	??_C@_0CC@FBJBJHCN@glDrawArraysInstancedBaseInstan@ ; `string'
PUBLIC	??_C@_0CE@NGNINKJD@glDrawElementsInstancedBaseInst@ ; `string'
PUBLIC	??_C@_0CO@GCMNEAOA@glDrawElementsInstancedBaseVert@ ; `string'
PUBLIC	??_C@_0BG@BAOCDJPF@glGetInternalformativ@	; `string'
PUBLIC	??_C@_0CB@CEHFMJFN@glGetActiveAtomicCounterBufferi@ ; `string'
PUBLIC	??_C@_0BD@GAKEPNGD@glBindImageTexture@		; `string'
PUBLIC	??_C@_0BA@HIHPNLBJ@glMemoryBarrier@		; `string'
PUBLIC	??_C@_0P@LCLGPEBO@glTexStorage1D@		; `string'
PUBLIC	??_C@_0P@LAPAEKEH@glTexStorage2D@		; `string'
PUBLIC	??_C@_0P@LBDCCAHA@glTexStorage3D@		; `string'
PUBLIC	??_C@_0CB@NDMLCEF@glDrawTransformFeedbackInstance@ ; `string'
PUBLIC	??_C@_0CH@OMPFKBLK@glDrawTransformFeedbackStreamIn@ ; `string'
PUBLIC	??_C@_0BC@FCMBBKMP@glClearBufferData@		; `string'
PUBLIC	??_C@_0BF@FDHIBCMD@glClearBufferSubData@	; `string'
PUBLIC	??_C@_0BC@DKKFFIGC@glDispatchCompute@		; `string'
PUBLIC	??_C@_0BK@EJMOGMMI@glDispatchComputeIndirect@	; `string'
PUBLIC	??_C@_0BD@BNCHOBBL@glCopyImageSubData@		; `string'
PUBLIC	??_C@_0BI@MLACHGDK@glFramebufferParameteri@	; `string'
PUBLIC	??_C@_0BM@BFEEFCMK@glGetFramebufferParameteriv@	; `string'
PUBLIC	??_C@_0BI@PHNNEGBD@glGetInternalformati64v@	; `string'
PUBLIC	??_C@_0BI@FJDKFLGL@glInvalidateTexSubImage@	; `string'
PUBLIC	??_C@_0BF@KHIECPKG@glInvalidateTexImage@	; `string'
PUBLIC	??_C@_0BK@HOHOHNAC@glInvalidateBufferSubData@	; `string'
PUBLIC	??_C@_0BH@OGIFIBHA@glInvalidateBufferData@	; `string'
PUBLIC	??_C@_0BI@OAJPOHIP@glInvalidateFramebuffer@	; `string'
PUBLIC	??_C@_0BL@IHGLAPPE@glInvalidateSubFramebuffer@	; `string'
PUBLIC	??_C@_0BK@IKGAIKOP@glMultiDrawArraysIndirect@	; `string'
PUBLIC	??_C@_0BM@KHEEFMKO@glMultiDrawElementsIndirect@	; `string'
PUBLIC	??_C@_0BI@ICGPDPK@glGetProgramInterfaceiv@	; `string'
PUBLIC	??_C@_0BK@DBDCONKB@glGetProgramResourceIndex@	; `string'
PUBLIC	??_C@_0BJ@OHCPEAGJ@glGetProgramResourceName@	; `string'
PUBLIC	??_C@_0BH@LEDFEPHI@glGetProgramResourceiv@	; `string'
PUBLIC	??_C@_0BN@BIJNENLC@glGetProgramResourceLocation@ ; `string'
PUBLIC	??_C@_0CC@GHECGAIH@glGetProgramResourceLocationInd@ ; `string'
PUBLIC	??_C@_0BM@GDDCNIBO@glShaderStorageBlockBinding@	; `string'
PUBLIC	??_C@_0BB@DPMGLFNI@glTexBufferRange@		; `string'
PUBLIC	??_C@_0BK@PDJAKDKP@glTexStorage2DMultisample@	; `string'
PUBLIC	??_C@_0BK@GOJPECNJ@glTexStorage3DMultisample@	; `string'
PUBLIC	??_C@_0O@BNFDGIMP@glTextureView@		; `string'
PUBLIC	??_C@_0BD@FCGJAOHG@glBindVertexBuffer@		; `string'
PUBLIC	??_C@_0BF@JEIPPBFE@glVertexAttribFormat@	; `string'
PUBLIC	??_C@_0BG@KJAHAHDI@glVertexAttribIFormat@	; `string'
PUBLIC	??_C@_0BG@OBOHAJFM@glVertexAttribLFormat@	; `string'
PUBLIC	??_C@_0BG@MLFHCGE@glVertexAttribBinding@	; `string'
PUBLIC	??_C@_0BH@GNGCLGOI@glVertexBindingDivisor@	; `string'
PUBLIC	??_C@_0BG@MNBDCEEP@glDebugMessageControl@	; `string'
PUBLIC	??_C@_0BF@DGOJNFDO@glDebugMessageInsert@	; `string'
PUBLIC	??_C@_0BH@IGFENJCI@glDebugMessageCallback@	; `string'
PUBLIC	??_C@_0BF@FGBMJKND@glGetDebugMessageLog@	; `string'
PUBLIC	??_C@_0BB@DEFFBEGJ@glPushDebugGroup@		; `string'
PUBLIC	??_C@_0BA@PMJBDENK@glPopDebugGroup@		; `string'
PUBLIC	??_C@_0O@EFJDECDM@glObjectLabel@		; `string'
PUBLIC	??_C@_0BB@MOEDHKDB@glGetObjectLabel@		; `string'
PUBLIC	??_C@_0BB@FBABGDIL@glObjectPtrLabel@		; `string'
PUBLIC	??_C@_0BE@MIJFJOHM@glGetObjectPtrLabel@		; `string'
PUBLIC	??_C@_0BA@COBILMHM@glBufferStorage@		; `string'
PUBLIC	??_C@_0BA@FNPOIBAF@glClearTexImage@		; `string'
PUBLIC	??_C@_0BD@CFALBON@glClearTexSubImage@		; `string'
PUBLIC	??_C@_0BC@ENBBLPHM@glBindBuffersBase@		; `string'
PUBLIC	??_C@_0BD@ODFFOKPN@glBindBuffersRange@		; `string'
PUBLIC	??_C@_0P@KHDEIIMA@glBindTextures@		; `string'
PUBLIC	??_C@_0P@FADPDFKM@glBindSamplers@		; `string'
PUBLIC	??_C@_0BE@NAMJLOCK@glBindImageTextures@		; `string'
PUBLIC	??_C@_0BE@LNCGJHDC@glBindVertexBuffers@		; `string'
PUBLIC	??_C@_0O@ENGHJHNB@OpenGL?5ES?9CM?5@		; `string'
PUBLIC	??_C@_0O@EMKFPNOG@OpenGL?5ES?9CL?5@		; `string'
PUBLIC	??_C@_0L@JLFHOCGA@OpenGL?5ES?5@			; `string'
PUBLIC	??_C@_05KBEOJPB@?$CFd?4?$CFd@			; `string'
PUBLIC	glad_glGetIntegerv
PUBLIC	GLAD_GL_VERSION_1_5
PUBLIC	glad_glGetProgramInfoLog
PUBLIC	glad_glCompileShader
PUBLIC	glad_glGetProgramiv
PUBLIC	glad_glUniform1i
PUBLIC	GLAD_GL_VERSION_4_3
PUBLIC	glad_glUniform4fv
PUBLIC	GLAD_GL_VERSION_3_3
PUBLIC	GLAD_GL_VERSION_1_1
PUBLIC	glad_glShaderSource
PUBLIC	glad_glUniform1uiv
PUBLIC	GLAD_GL_VERSION_3_2
PUBLIC	glad_glVertexAttribPointer
PUBLIC	GLAD_GL_VERSION_4_4
PUBLIC	GLAD_GL_VERSION_2_1
PUBLIC	glad_glUniform2f
PUBLIC	glad_glEnable
PUBLIC	glad_glGenVertexArrays
PUBLIC	GLAD_GL_VERSION_4_0
PUBLIC	glad_glBufferData
PUBLIC	glad_glTexParameteri
PUBLIC	glad_glUniform4f
PUBLIC	glad_glDrawBuffer
PUBLIC	glad_glCreateShader
PUBLIC	GLAD_GL_VERSION_3_1
PUBLIC	glad_glCheckFramebufferStatus
PUBLIC	glad_glGenerateMipmap
PUBLIC	GLAD_GL_VERSION_1_4
PUBLIC	GLAD_GL_VERSION_2_0
PUBLIC	glad_glDepthFunc
PUBLIC	glad_glClear
PUBLIC	glad_glFramebufferRenderbuffer
PUBLIC	GLAD_GL_VERSION_1_0
PUBLIC	glad_glDisable
PUBLIC	glad_glClearColor
PUBLIC	glad_glGenTextures
PUBLIC	glad_glPixelStorei
PUBLIC	glad_glRenderbufferStorage
PUBLIC	glad_glUniform1fv
PUBLIC	glad_glGetShaderInfoLog
PUBLIC	glad_glBindVertexArray
PUBLIC	glad_glEnableVertexAttribArray
PUBLIC	glad_glGetShaderiv
PUBLIC	GLAD_GL_VERSION_1_3
PUBLIC	glad_glUniform2fv
PUBLIC	glad_glDrawElements
PUBLIC	glad_glCreateProgram
PUBLIC	glad_glBindFramebuffer
PUBLIC	glad_glUniform3f
PUBLIC	glad_glVertexAttribIPointer
PUBLIC	glad_glDeleteTextures
PUBLIC	glad_glDeleteBuffers
PUBLIC	glad_glGenRenderbuffers
PUBLIC	glad_glUniformMatrix4fv
PUBLIC	glad_glUseProgram
PUBLIC	GLAD_GL_VERSION_4_2
PUBLIC	glad_glTexImage2D
PUBLIC	glad_glDrawBuffers
PUBLIC	glad_glGenBuffers
PUBLIC	glad_glDrawElementsInstanced
PUBLIC	glad_glBlendFunc
PUBLIC	glad_glViewport
PUBLIC	GLVersion
PUBLIC	glad_glDeleteRenderbuffers
PUBLIC	GLAD_GL_VERSION_4_1
PUBLIC	glad_glBindTexture
PUBLIC	glad_glActiveTexture
PUBLIC	glad_glBindRenderbuffer
PUBLIC	glad_glCullFace
PUBLIC	glad_glGetStringi
PUBLIC	glad_glDeleteShader
PUBLIC	glad_glBlitFramebuffer
PUBLIC	glad_glGenFramebuffers
PUBLIC	glad_glDeleteFramebuffers
PUBLIC	GLAD_GL_VERSION_1_2
PUBLIC	glad_glFramebufferTexture
PUBLIC	glad_glGetUniformLocation
PUBLIC	glad_glDepthMask
PUBLIC	glad_glGetString
PUBLIC	glad_glBindBuffer
PUBLIC	glad_glFramebufferTexture2D
PUBLIC	glad_glAttachShader
PUBLIC	glad_glUniform1f
PUBLIC	GLAD_GL_VERSION_3_0
PUBLIC	glad_glLinkProgram
PUBLIC	glad_glDeleteVertexArrays
PUBLIC	glad_glReadBuffer
EXTRN	__imp_malloc:PROC
EXTRN	__imp___stdio_common_vsscanf:PROC
EXTRN	__imp_strstr:PROC
EXTRN	__imp_FreeLibrary:PROC
EXTRN	__imp_free:PROC
EXTRN	__imp_GetProcAddress:PROC
EXTRN	__imp_LoadLibraryW:PROC
EXTRN	__imp_strncmp:PROC
EXTRN	__security_check_cookie:PROC
glad_glGetIntegerv DQ 01H DUP (?)
GLAD_GL_VERSION_1_5 DD 01H DUP (?)
	ALIGN	8

glad_glGetProgramInfoLog DQ 01H DUP (?)
glad_glCompileShader DQ 01H DUP (?)
glad_glGetProgramiv DQ 01H DUP (?)
glad_glUniform1i DQ 01H DUP (?)
GLAD_GL_VERSION_4_3 DD 01H DUP (?)
	ALIGN	8

glad_glUniform4fv DQ 01H DUP (?)
GLAD_GL_VERSION_3_3 DD 01H DUP (?)
GLAD_GL_VERSION_1_1 DD 01H DUP (?)
glad_glShaderSource DQ 01H DUP (?)
glad_glUniform1uiv DQ 01H DUP (?)
GLAD_GL_VERSION_3_2 DD 01H DUP (?)
	ALIGN	8

glad_glVertexAttribPointer DQ 01H DUP (?)
GLAD_GL_VERSION_4_4 DD 01H DUP (?)
GLAD_GL_VERSION_2_1 DD 01H DUP (?)
glad_glUniform2f DQ 01H DUP (?)
glad_glEnable DQ 01H DUP (?)
glad_glGenVertexArrays DQ 01H DUP (?)
GLAD_GL_VERSION_4_0 DD 01H DUP (?)
	ALIGN	8

glad_glBufferData DQ 01H DUP (?)
glad_glTexParameteri DQ 01H DUP (?)
glad_glUniform4f DQ 01H DUP (?)
glad_glDrawBuffer DQ 01H DUP (?)
glad_glCreateShader DQ 01H DUP (?)
GLAD_GL_VERSION_3_1 DD 01H DUP (?)
	ALIGN	8

glad_glCheckFramebufferStatus DQ 01H DUP (?)
glad_glGenerateMipmap DQ 01H DUP (?)
GLAD_GL_VERSION_1_4 DD 01H DUP (?)
GLAD_GL_VERSION_2_0 DD 01H DUP (?)
glad_glDepthFunc DQ 01H DUP (?)
glad_glClear DQ	01H DUP (?)
glad_glFramebufferRenderbuffer DQ 01H DUP (?)
GLAD_GL_VERSION_1_0 DD 01H DUP (?)
	ALIGN	8

glad_glDisable DQ 01H DUP (?)
glad_glClearColor DQ 01H DUP (?)
glad_glGenTextures DQ 01H DUP (?)
glad_glPixelStorei DQ 01H DUP (?)
glad_glRenderbufferStorage DQ 01H DUP (?)
glad_glUniform1fv DQ 01H DUP (?)
glad_glGetShaderInfoLog DQ 01H DUP (?)
glad_glBindVertexArray DQ 01H DUP (?)
glad_glEnableVertexAttribArray DQ 01H DUP (?)
glad_glGetShaderiv DQ 01H DUP (?)
GLAD_GL_VERSION_1_3 DD 01H DUP (?)
	ALIGN	8

glad_glUniform2fv DQ 01H DUP (?)
glad_glDrawElements DQ 01H DUP (?)
glad_glCreateProgram DQ 01H DUP (?)
glad_glBindFramebuffer DQ 01H DUP (?)
glad_glUniform3f DQ 01H DUP (?)
glad_glVertexAttribIPointer DQ 01H DUP (?)
glad_glDeleteTextures DQ 01H DUP (?)
glad_glDeleteBuffers DQ 01H DUP (?)
glad_glGenRenderbuffers DQ 01H DUP (?)
glad_glUniformMatrix4fv DQ 01H DUP (?)
glad_glUseProgram DQ 01H DUP (?)
GLAD_GL_VERSION_4_2 DD 01H DUP (?)
	ALIGN	8

glad_glTexImage2D DQ 01H DUP (?)
glad_glDrawBuffers DQ 01H DUP (?)
glad_glGenBuffers DQ 01H DUP (?)
glad_glDrawElementsInstanced DQ 01H DUP (?)
glad_glBlendFunc DQ 01H DUP (?)
glad_glViewport DQ 01H DUP (?)
GLVersion DQ	01H DUP (?)
glad_glDeleteRenderbuffers DQ 01H DUP (?)
GLAD_GL_VERSION_4_1 DD 01H DUP (?)
	ALIGN	8

glad_glBindTexture DQ 01H DUP (?)
glad_glActiveTexture DQ 01H DUP (?)
glad_glBindRenderbuffer DQ 01H DUP (?)
glad_glCullFace DQ 01H DUP (?)
glad_glGetStringi DQ 01H DUP (?)
glad_glDeleteShader DQ 01H DUP (?)
glad_glBlitFramebuffer DQ 01H DUP (?)
glad_glGenFramebuffers DQ 01H DUP (?)
glad_glDeleteFramebuffers DQ 01H DUP (?)
GLAD_GL_VERSION_1_2 DD 01H DUP (?)
	ALIGN	8

glad_glFramebufferTexture DQ 01H DUP (?)
glad_glGetUniformLocation DQ 01H DUP (?)
glad_glDepthMask DQ 01H DUP (?)
glad_glGetString DQ 01H DUP (?)
glad_glBindBuffer DQ 01H DUP (?)
glad_glFramebufferTexture2D DQ 01H DUP (?)
glad_glAttachShader DQ 01H DUP (?)
glad_glUniform1f DQ 01H DUP (?)
GLAD_GL_VERSION_3_0 DD 01H DUP (?)
	ALIGN	8

glad_glLinkProgram DQ 01H DUP (?)
glad_glDeleteVertexArrays DQ 01H DUP (?)
glad_glReadBuffer DQ 01H DUP (?)
_BSS	ENDS
;	COMDAT ??_C@_05KBEOJPB@?$CFd?4?$CFd@
CONST	SEGMENT
??_C@_05KBEOJPB@?$CFd?4?$CFd@ DB '%d.%d', 00H		; `string'
CONST	ENDS
;	COMDAT ??_C@_0L@JLFHOCGA@OpenGL?5ES?5@
CONST	SEGMENT
??_C@_0L@JLFHOCGA@OpenGL?5ES?5@ DB 'OpenGL ES ', 00H	; `string'
CONST	ENDS
;	COMDAT ??_C@_0O@EMKFPNOG@OpenGL?5ES?9CL?5@
CONST	SEGMENT
??_C@_0O@EMKFPNOG@OpenGL?5ES?9CL?5@ DB 'OpenGL ES-CL ', 00H ; `string'
CONST	ENDS
;	COMDAT ??_C@_0O@ENGHJHNB@OpenGL?5ES?9CM?5@
CONST	SEGMENT
??_C@_0O@ENGHJHNB@OpenGL?5ES?9CM?5@ DB 'OpenGL ES-CM ', 00H ; `string'
CONST	ENDS
;	COMDAT ??_C@_0BE@LNCGJHDC@glBindVertexBuffers@
CONST	SEGMENT
??_C@_0BE@LNCGJHDC@glBindVertexBuffers@ DB 'glBindVertexBuffers', 00H ; `string'
CONST	ENDS
;	COMDAT ??_C@_0BE@NAMJLOCK@glBindImageTextures@
CONST	SEGMENT
??_C@_0BE@NAMJLOCK@glBindImageTextures@ DB 'glBindImageTextures', 00H ; `string'
CONST	ENDS
;	COMDAT ??_C@_0P@FADPDFKM@glBindSamplers@
CONST	SEGMENT
??_C@_0P@FADPDFKM@glBindSamplers@ DB 'glBindSamplers', 00H ; `string'
CONST	ENDS
;	COMDAT ??_C@_0P@KHDEIIMA@glBindTextures@
CONST	SEGMENT
??_C@_0P@KHDEIIMA@glBindTextures@ DB 'glBindTextures', 00H ; `string'
CONST	ENDS
;	COMDAT ??_C@_0BD@ODFFOKPN@glBindBuffersRange@
CONST	SEGMENT
??_C@_0BD@ODFFOKPN@glBindBuffersRange@ DB 'glBindBuffersRange', 00H ; `string'
CONST	ENDS
;	COMDAT ??_C@_0BC@ENBBLPHM@glBindBuffersBase@
CONST	SEGMENT
??_C@_0BC@ENBBLPHM@glBindBuffersBase@ DB 'glBindBuffersBase', 00H ; `string'
CONST	ENDS
;	COMDAT ??_C@_0BD@CFALBON@glClearTexSubImage@
CONST	SEGMENT
??_C@_0BD@CFALBON@glClearTexSubImage@ DB 'glClearTexSubImage', 00H ; `string'
CONST	ENDS
;	COMDAT ??_C@_0BA@FNPOIBAF@glClearTexImage@
CONST	SEGMENT
??_C@_0BA@FNPOIBAF@glClearTexImage@ DB 'glClearTexImage', 00H ; `string'
CONST	ENDS
;	COMDAT ??_C@_0BA@COBILMHM@glBufferStorage@
CONST	SEGMENT
??_C@_0BA@COBILMHM@glBufferStorage@ DB 'glBufferStorage', 00H ; `string'
CONST	ENDS
;	COMDAT ??_C@_0BE@MIJFJOHM@glGetObjectPtrLabel@
CONST	SEGMENT
??_C@_0BE@MIJFJOHM@glGetObjectPtrLabel@ DB 'glGetObjectPtrLabel', 00H ; `string'
CONST	ENDS
;	COMDAT ??_C@_0BB@FBABGDIL@glObjectPtrLabel@
CONST	SEGMENT
??_C@_0BB@FBABGDIL@glObjectPtrLabel@ DB 'glObjectPtrLabel', 00H ; `string'
CONST	ENDS
;	COMDAT ??_C@_0BB@MOEDHKDB@glGetObjectLabel@
CONST	SEGMENT
??_C@_0BB@MOEDHKDB@glGetObjectLabel@ DB 'glGetObjectLabel', 00H ; `string'
CONST	ENDS
;	COMDAT ??_C@_0O@EFJDECDM@glObjectLabel@
CONST	SEGMENT
??_C@_0O@EFJDECDM@glObjectLabel@ DB 'glObjectLabel', 00H ; `string'
CONST	ENDS
;	COMDAT ??_C@_0BA@PMJBDENK@glPopDebugGroup@
CONST	SEGMENT
??_C@_0BA@PMJBDENK@glPopDebugGroup@ DB 'glPopDebugGroup', 00H ; `string'
CONST	ENDS
;	COMDAT ??_C@_0BB@DEFFBEGJ@glPushDebugGroup@
CONST	SEGMENT
??_C@_0BB@DEFFBEGJ@glPushDebugGroup@ DB 'glPushDebugGroup', 00H ; `string'
CONST	ENDS
;	COMDAT ??_C@_0BF@FGBMJKND@glGetDebugMessageLog@
CONST	SEGMENT
??_C@_0BF@FGBMJKND@glGetDebugMessageLog@ DB 'glGetDebugMessageLog', 00H ; `string'
CONST	ENDS
;	COMDAT ??_C@_0BH@IGFENJCI@glDebugMessageCallback@
CONST	SEGMENT
??_C@_0BH@IGFENJCI@glDebugMessageCallback@ DB 'glDebugMessageCallback', 00H ; `string'
CONST	ENDS
;	COMDAT ??_C@_0BF@DGOJNFDO@glDebugMessageInsert@
CONST	SEGMENT
??_C@_0BF@DGOJNFDO@glDebugMessageInsert@ DB 'glDebugMessageInsert', 00H ; `string'
CONST	ENDS
;	COMDAT ??_C@_0BG@MNBDCEEP@glDebugMessageControl@
CONST	SEGMENT
??_C@_0BG@MNBDCEEP@glDebugMessageControl@ DB 'glDebugMessageControl', 00H ; `string'
CONST	ENDS
;	COMDAT ??_C@_0BH@GNGCLGOI@glVertexBindingDivisor@
CONST	SEGMENT
??_C@_0BH@GNGCLGOI@glVertexBindingDivisor@ DB 'glVertexBindingDivisor', 00H ; `string'
CONST	ENDS
;	COMDAT ??_C@_0BG@MLFHCGE@glVertexAttribBinding@
CONST	SEGMENT
??_C@_0BG@MLFHCGE@glVertexAttribBinding@ DB 'glVertexAttribBinding', 00H ; `string'
CONST	ENDS
;	COMDAT ??_C@_0BG@OBOHAJFM@glVertexAttribLFormat@
CONST	SEGMENT
??_C@_0BG@OBOHAJFM@glVertexAttribLFormat@ DB 'glVertexAttribLFormat', 00H ; `string'
CONST	ENDS
;	COMDAT ??_C@_0BG@KJAHAHDI@glVertexAttribIFormat@
CONST	SEGMENT
??_C@_0BG@KJAHAHDI@glVertexAttribIFormat@ DB 'glVertexAttribIFormat', 00H ; `string'
CONST	ENDS
;	COMDAT ??_C@_0BF@JEIPPBFE@glVertexAttribFormat@
CONST	SEGMENT
??_C@_0BF@JEIPPBFE@glVertexAttribFormat@ DB 'glVertexAttribFormat', 00H ; `string'
CONST	ENDS
;	COMDAT ??_C@_0BD@FCGJAOHG@glBindVertexBuffer@
CONST	SEGMENT
??_C@_0BD@FCGJAOHG@glBindVertexBuffer@ DB 'glBindVertexBuffer', 00H ; `string'
CONST	ENDS
;	COMDAT ??_C@_0O@BNFDGIMP@glTextureView@
CONST	SEGMENT
??_C@_0O@BNFDGIMP@glTextureView@ DB 'glTextureView', 00H ; `string'
CONST	ENDS
;	COMDAT ??_C@_0BK@GOJPECNJ@glTexStorage3DMultisample@
CONST	SEGMENT
??_C@_0BK@GOJPECNJ@glTexStorage3DMultisample@ DB 'glTexStorage3DMultisamp'
	DB	'le', 00H					; `string'
CONST	ENDS
;	COMDAT ??_C@_0BK@PDJAKDKP@glTexStorage2DMultisample@
CONST	SEGMENT
??_C@_0BK@PDJAKDKP@glTexStorage2DMultisample@ DB 'glTexStorage2DMultisamp'
	DB	'le', 00H					; `string'
CONST	ENDS
;	COMDAT ??_C@_0BB@DPMGLFNI@glTexBufferRange@
CONST	SEGMENT
??_C@_0BB@DPMGLFNI@glTexBufferRange@ DB 'glTexBufferRange', 00H ; `string'
CONST	ENDS
;	COMDAT ??_C@_0BM@GDDCNIBO@glShaderStorageBlockBinding@
CONST	SEGMENT
??_C@_0BM@GDDCNIBO@glShaderStorageBlockBinding@ DB 'glShaderStorageBlockB'
	DB	'inding', 00H				; `string'
CONST	ENDS
;	COMDAT ??_C@_0CC@GHECGAIH@glGetProgramResourceLocationInd@
CONST	SEGMENT
??_C@_0CC@GHECGAIH@glGetProgramResourceLocationInd@ DB 'glGetProgramResou'
	DB	'rceLocationIndex', 00H			; `string'
CONST	ENDS
;	COMDAT ??_C@_0BN@BIJNENLC@glGetProgramResourceLocation@
CONST	SEGMENT
??_C@_0BN@BIJNENLC@glGetProgramResourceLocation@ DB 'glGetProgramResource'
	DB	'Location', 00H				; `string'
CONST	ENDS
;	COMDAT ??_C@_0BH@LEDFEPHI@glGetProgramResourceiv@
CONST	SEGMENT
??_C@_0BH@LEDFEPHI@glGetProgramResourceiv@ DB 'glGetProgramResourceiv', 00H ; `string'
CONST	ENDS
;	COMDAT ??_C@_0BJ@OHCPEAGJ@glGetProgramResourceName@
CONST	SEGMENT
??_C@_0BJ@OHCPEAGJ@glGetProgramResourceName@ DB 'glGetProgramResourceName'
	DB	00H						; `string'
CONST	ENDS
;	COMDAT ??_C@_0BK@DBDCONKB@glGetProgramResourceIndex@
CONST	SEGMENT
??_C@_0BK@DBDCONKB@glGetProgramResourceIndex@ DB 'glGetProgramResourceInd'
	DB	'ex', 00H					; `string'
CONST	ENDS
;	COMDAT ??_C@_0BI@ICGPDPK@glGetProgramInterfaceiv@
CONST	SEGMENT
??_C@_0BI@ICGPDPK@glGetProgramInterfaceiv@ DB 'glGetProgramInterfaceiv', 00H ; `string'
CONST	ENDS
;	COMDAT ??_C@_0BM@KHEEFMKO@glMultiDrawElementsIndirect@
CONST	SEGMENT
??_C@_0BM@KHEEFMKO@glMultiDrawElementsIndirect@ DB 'glMultiDrawElementsIn'
	DB	'direct', 00H				; `string'
CONST	ENDS
;	COMDAT ??_C@_0BK@IKGAIKOP@glMultiDrawArraysIndirect@
CONST	SEGMENT
??_C@_0BK@IKGAIKOP@glMultiDrawArraysIndirect@ DB 'glMultiDrawArraysIndire'
	DB	'ct', 00H					; `string'
CONST	ENDS
;	COMDAT ??_C@_0BL@IHGLAPPE@glInvalidateSubFramebuffer@
CONST	SEGMENT
??_C@_0BL@IHGLAPPE@glInvalidateSubFramebuffer@ DB 'glInvalidateSubFramebu'
	DB	'ffer', 00H					; `string'
CONST	ENDS
;	COMDAT ??_C@_0BI@OAJPOHIP@glInvalidateFramebuffer@
CONST	SEGMENT
??_C@_0BI@OAJPOHIP@glInvalidateFramebuffer@ DB 'glInvalidateFramebuffer', 00H ; `string'
CONST	ENDS
;	COMDAT ??_C@_0BH@OGIFIBHA@glInvalidateBufferData@
CONST	SEGMENT
??_C@_0BH@OGIFIBHA@glInvalidateBufferData@ DB 'glInvalidateBufferData', 00H ; `string'
CONST	ENDS
;	COMDAT ??_C@_0BK@HOHOHNAC@glInvalidateBufferSubData@
CONST	SEGMENT
??_C@_0BK@HOHOHNAC@glInvalidateBufferSubData@ DB 'glInvalidateBufferSubDa'
	DB	'ta', 00H					; `string'
CONST	ENDS
;	COMDAT ??_C@_0BF@KHIECPKG@glInvalidateTexImage@
CONST	SEGMENT
??_C@_0BF@KHIECPKG@glInvalidateTexImage@ DB 'glInvalidateTexImage', 00H ; `string'
CONST	ENDS
;	COMDAT ??_C@_0BI@FJDKFLGL@glInvalidateTexSubImage@
CONST	SEGMENT
??_C@_0BI@FJDKFLGL@glInvalidateTexSubImage@ DB 'glInvalidateTexSubImage', 00H ; `string'
CONST	ENDS
;	COMDAT ??_C@_0BI@PHNNEGBD@glGetInternalformati64v@
CONST	SEGMENT
??_C@_0BI@PHNNEGBD@glGetInternalformati64v@ DB 'glGetInternalformati64v', 00H ; `string'
CONST	ENDS
;	COMDAT ??_C@_0BM@BFEEFCMK@glGetFramebufferParameteriv@
CONST	SEGMENT
??_C@_0BM@BFEEFCMK@glGetFramebufferParameteriv@ DB 'glGetFramebufferParam'
	DB	'eteriv', 00H				; `string'
CONST	ENDS
;	COMDAT ??_C@_0BI@MLACHGDK@glFramebufferParameteri@
CONST	SEGMENT
??_C@_0BI@MLACHGDK@glFramebufferParameteri@ DB 'glFramebufferParameteri', 00H ; `string'
CONST	ENDS
;	COMDAT ??_C@_0BD@BNCHOBBL@glCopyImageSubData@
CONST	SEGMENT
??_C@_0BD@BNCHOBBL@glCopyImageSubData@ DB 'glCopyImageSubData', 00H ; `string'
CONST	ENDS
;	COMDAT ??_C@_0BK@EJMOGMMI@glDispatchComputeIndirect@
CONST	SEGMENT
??_C@_0BK@EJMOGMMI@glDispatchComputeIndirect@ DB 'glDispatchComputeIndire'
	DB	'ct', 00H					; `string'
CONST	ENDS
;	COMDAT ??_C@_0BC@DKKFFIGC@glDispatchCompute@
CONST	SEGMENT
??_C@_0BC@DKKFFIGC@glDispatchCompute@ DB 'glDispatchCompute', 00H ; `string'
CONST	ENDS
;	COMDAT ??_C@_0BF@FDHIBCMD@glClearBufferSubData@
CONST	SEGMENT
??_C@_0BF@FDHIBCMD@glClearBufferSubData@ DB 'glClearBufferSubData', 00H ; `string'
CONST	ENDS
;	COMDAT ??_C@_0BC@FCMBBKMP@glClearBufferData@
CONST	SEGMENT
??_C@_0BC@FCMBBKMP@glClearBufferData@ DB 'glClearBufferData', 00H ; `string'
CONST	ENDS
;	COMDAT ??_C@_0CH@OMPFKBLK@glDrawTransformFeedbackStreamIn@
CONST	SEGMENT
??_C@_0CH@OMPFKBLK@glDrawTransformFeedbackStreamIn@ DB 'glDrawTransformFe'
	DB	'edbackStreamInstanced', 00H			; `string'
CONST	ENDS
;	COMDAT ??_C@_0CB@NDMLCEF@glDrawTransformFeedbackInstance@
CONST	SEGMENT
??_C@_0CB@NDMLCEF@glDrawTransformFeedbackInstance@ DB 'glDrawTransformFee'
	DB	'dbackInstanced', 00H			; `string'
CONST	ENDS
;	COMDAT ??_C@_0P@LBDCCAHA@glTexStorage3D@
CONST	SEGMENT
??_C@_0P@LBDCCAHA@glTexStorage3D@ DB 'glTexStorage3D', 00H ; `string'
CONST	ENDS
;	COMDAT ??_C@_0P@LAPAEKEH@glTexStorage2D@
CONST	SEGMENT
??_C@_0P@LAPAEKEH@glTexStorage2D@ DB 'glTexStorage2D', 00H ; `string'
CONST	ENDS
;	COMDAT ??_C@_0P@LCLGPEBO@glTexStorage1D@
CONST	SEGMENT
??_C@_0P@LCLGPEBO@glTexStorage1D@ DB 'glTexStorage1D', 00H ; `string'
CONST	ENDS
;	COMDAT ??_C@_0BA@HIHPNLBJ@glMemoryBarrier@
CONST	SEGMENT
??_C@_0BA@HIHPNLBJ@glMemoryBarrier@ DB 'glMemoryBarrier', 00H ; `string'
CONST	ENDS
;	COMDAT ??_C@_0BD@GAKEPNGD@glBindImageTexture@
CONST	SEGMENT
??_C@_0BD@GAKEPNGD@glBindImageTexture@ DB 'glBindImageTexture', 00H ; `string'
CONST	ENDS
;	COMDAT ??_C@_0CB@CEHFMJFN@glGetActiveAtomicCounterBufferi@
CONST	SEGMENT
??_C@_0CB@CEHFMJFN@glGetActiveAtomicCounterBufferi@ DB 'glGetActiveAtomic'
	DB	'CounterBufferiv', 00H			; `string'
CONST	ENDS
;	COMDAT ??_C@_0BG@BAOCDJPF@glGetInternalformativ@
CONST	SEGMENT
??_C@_0BG@BAOCDJPF@glGetInternalformativ@ DB 'glGetInternalformativ', 00H ; `string'
CONST	ENDS
;	COMDAT ??_C@_0CO@GCMNEAOA@glDrawElementsInstancedBaseVert@
CONST	SEGMENT
??_C@_0CO@GCMNEAOA@glDrawElementsInstancedBaseVert@ DB 'glDrawElementsIns'
	DB	'tancedBaseVertexBaseInstance', 00H		; `string'
CONST	ENDS
;	COMDAT ??_C@_0CE@NGNINKJD@glDrawElementsInstancedBaseInst@
CONST	SEGMENT
??_C@_0CE@NGNINKJD@glDrawElementsInstancedBaseInst@ DB 'glDrawElementsIns'
	DB	'tancedBaseInstance', 00H			; `string'
CONST	ENDS
;	COMDAT ??_C@_0CC@FBJBJHCN@glDrawArraysInstancedBaseInstan@
CONST	SEGMENT
??_C@_0CC@FBJBJHCN@glDrawArraysInstancedBaseInstan@ DB 'glDrawArraysInsta'
	DB	'ncedBaseInstance', 00H			; `string'
CONST	ENDS
;	COMDAT ??_C@_0P@PDJCBGIA@glGetDoublei_v@
CONST	SEGMENT
??_C@_0P@PDJCBGIA@glGetDoublei_v@ DB 'glGetDoublei_v', 00H ; `string'
CONST	ENDS
;	COMDAT ??_C@_0O@JKEOHGC@glGetFloati_v@
CONST	SEGMENT
??_C@_0O@JKEOHGC@glGetFloati_v@ DB 'glGetFloati_v', 00H	; `string'
CONST	ENDS
;	COMDAT ??_C@_0BE@FMCFIJBP@glDepthRangeIndexed@
CONST	SEGMENT
??_C@_0BE@FMCFIJBP@glDepthRangeIndexed@ DB 'glDepthRangeIndexed', 00H ; `string'
CONST	ENDS
;	COMDAT ??_C@_0BD@JLCIOMKN@glDepthRangeArrayv@
CONST	SEGMENT
??_C@_0BD@JLCIOMKN@glDepthRangeArrayv@ DB 'glDepthRangeArrayv', 00H ; `string'
CONST	ENDS
;	COMDAT ??_C@_0BC@OOKOHKNA@glScissorIndexedv@
CONST	SEGMENT
??_C@_0BC@OOKOHKNA@glScissorIndexedv@ DB 'glScissorIndexedv', 00H ; `string'
CONST	ENDS
;	COMDAT ??_C@_0BB@BJHNCIAL@glScissorIndexed@
CONST	SEGMENT
??_C@_0BB@BJHNCIAL@glScissorIndexed@ DB 'glScissorIndexed', 00H ; `string'
CONST	ENDS
;	COMDAT ??_C@_0BA@BMNFINIA@glScissorArrayv@
CONST	SEGMENT
??_C@_0BA@BMNFINIA@glScissorArrayv@ DB 'glScissorArrayv', 00H ; `string'
CONST	ENDS
;	COMDAT ??_C@_0BE@OKPEDJOC@glViewportIndexedfv@
CONST	SEGMENT
??_C@_0BE@OKPEDJOC@glViewportIndexedfv@ DB 'glViewportIndexedfv', 00H ; `string'
CONST	ENDS
;	COMDAT ??_C@_0BD@JIBIAPIN@glViewportIndexedf@
CONST	SEGMENT
??_C@_0BD@JIBIAPIN@glViewportIndexedf@ DB 'glViewportIndexedf', 00H ; `string'
CONST	ENDS
;	COMDAT ??_C@_0BB@JIDIDPIB@glViewportArrayv@
CONST	SEGMENT
??_C@_0BB@JIDIDPIB@glViewportArrayv@ DB 'glViewportArrayv', 00H ; `string'
CONST	ENDS
;	COMDAT ??_C@_0BF@JADLCNLO@glGetVertexAttribLdv@
CONST	SEGMENT
??_C@_0BF@JADLCNLO@glGetVertexAttribLdv@ DB 'glGetVertexAttribLdv', 00H ; `string'
CONST	ENDS
;	COMDAT ??_C@_0BH@JBHDDPGM@glVertexAttribLPointer@
CONST	SEGMENT
??_C@_0BH@JBHDDPGM@glVertexAttribLPointer@ DB 'glVertexAttribLPointer', 00H ; `string'
CONST	ENDS
;	COMDAT ??_C@_0BD@BJHCGDCF@glVertexAttribL4dv@
CONST	SEGMENT
??_C@_0BD@BJHCGDCF@glVertexAttribL4dv@ DB 'glVertexAttribL4dv', 00H ; `string'
CONST	ENDS
;	COMDAT ??_C@_0BD@IEKFFLJM@glVertexAttribL3dv@
CONST	SEGMENT
??_C@_0BD@IEKFFLJM@glVertexAttribL3dv@ DB 'glVertexAttribL3dv', 00H ; `string'
CONST	ENDS
;	COMDAT ??_C@_0BD@DMBJDMPJ@glVertexAttribL2dv@
CONST	SEGMENT
??_C@_0BD@DMBJDMPJ@glVertexAttribL2dv@ DB 'glVertexAttribL2dv', 00H ; `string'
CONST	ENDS
;	COMDAT ??_C@_0BD@COKMJDBH@glVertexAttribL1dv@
CONST	SEGMENT
??_C@_0BD@COKMJDBH@glVertexAttribL1dv@ DB 'glVertexAttribL1dv', 00H ; `string'
CONST	ENDS
;	COMDAT ??_C@_0BC@KHDDIAJP@glVertexAttribL4d@
CONST	SEGMENT
??_C@_0BC@KHDDIAJP@glVertexAttribL4d@ DB 'glVertexAttribL4d', 00H ; `string'
CONST	ENDS
;	COMDAT ??_C@_0BC@KCHMJGBK@glVertexAttribL3d@
CONST	SEGMENT
??_C@_0BC@KCHMJGBK@glVertexAttribL3d@ DB 'glVertexAttribL3d', 00H ; `string'
CONST	ENDS
;	COMDAT ??_C@_0BC@KDLOPMCN@glVertexAttribL2d@
CONST	SEGMENT
??_C@_0BC@KDLOPMCN@glVertexAttribL2d@ DB 'glVertexAttribL2d', 00H ; `string'
CONST	ENDS
;	COMDAT ??_C@_0BC@KBPIECHE@glVertexAttribL1d@
CONST	SEGMENT
??_C@_0BC@KBPIECHE@glVertexAttribL1d@ DB 'glVertexAttribL1d', 00H ; `string'
CONST	ENDS
;	COMDAT ??_C@_0BM@BFFCFFFG@glGetProgramPipelineInfoLog@
CONST	SEGMENT
??_C@_0BM@BFFCFFFG@glGetProgramPipelineInfoLog@ DB 'glGetProgramPipelineI'
	DB	'nfoLog', 00H				; `string'
CONST	ENDS
;	COMDAT ??_C@_0BK@HHHCKEGH@glValidateProgramPipeline@
CONST	SEGMENT
??_C@_0BK@HHHCKEGH@glValidateProgramPipeline@ DB 'glValidateProgramPipeli'
	DB	'ne', 00H					; `string'
CONST	ENDS
;	COMDAT ??_C@_0BM@OEIPHGOA@glProgramUniformMatrix4x3dv@
CONST	SEGMENT
??_C@_0BM@OEIPHGOA@glProgramUniformMatrix4x3dv@ DB 'glProgramUniformMatri'
	DB	'x4x3dv', 00H				; `string'
CONST	ENDS
;	COMDAT ??_C@_0BM@GEFNHOOB@glProgramUniformMatrix3x4dv@
CONST	SEGMENT
??_C@_0BM@GEFNHOOB@glProgramUniformMatrix3x4dv@ DB 'glProgramUniformMatri'
	DB	'x3x4dv', 00H				; `string'
CONST	ENDS
;	COMDAT ??_C@_0BM@FMDDBBIF@glProgramUniformMatrix4x2dv@
CONST	SEGMENT
??_C@_0BM@FMDDBBIF@glProgramUniformMatrix4x2dv@ DB 'glProgramUniformMatri'
	DB	'x4x2dv', 00H				; `string'
CONST	ENDS
;	COMDAT ??_C@_0BM@KPABKNEE@glProgramUniformMatrix2x4dv@
CONST	SEGMENT
??_C@_0BM@KPABKNEE@glProgramUniformMatrix2x4dv@ DB 'glProgramUniformMatri'
	DB	'x2x4dv', 00H				; `string'
CONST	ENDS
;	COMDAT ??_C@_0BM@EBDGCBDN@glProgramUniformMatrix3x2dv@
CONST	SEGMENT
??_C@_0BM@EBDGCBDN@glProgramUniformMatrix3x2dv@ DB 'glProgramUniformMatri'
	DB	'x3x2dv', 00H				; `string'
CONST	ENDS
;	COMDAT ??_C@_0BM@DCNGJFPN@glProgramUniformMatrix2x3dv@
CONST	SEGMENT
??_C@_0BM@DCNGJFPN@glProgramUniformMatrix2x3dv@ DB 'glProgramUniformMatri'
	DB	'x2x3dv', 00H				; `string'
CONST	ENDS
;	COMDAT ??_C@_0BM@OHALKCIO@glProgramUniformMatrix4x3fv@
CONST	SEGMENT
??_C@_0BM@OHALKCIO@glProgramUniformMatrix4x3fv@ DB 'glProgramUniformMatri'
	DB	'x4x3fv', 00H				; `string'
CONST	ENDS
;	COMDAT ??_C@_0BM@GHNJKKIP@glProgramUniformMatrix3x4fv@
CONST	SEGMENT
??_C@_0BM@GHNJKKIP@glProgramUniformMatrix3x4fv@ DB 'glProgramUniformMatri'
	DB	'x3x4fv', 00H				; `string'
CONST	ENDS
;	COMDAT ??_C@_0BM@FPLHMFOL@glProgramUniformMatrix4x2fv@
CONST	SEGMENT
??_C@_0BM@FPLHMFOL@glProgramUniformMatrix4x2fv@ DB 'glProgramUniformMatri'
	DB	'x4x2fv', 00H				; `string'
CONST	ENDS
;	COMDAT ??_C@_0BM@KMIFHJCK@glProgramUniformMatrix2x4fv@
CONST	SEGMENT
??_C@_0BM@KMIFHJCK@glProgramUniformMatrix2x4fv@ DB 'glProgramUniformMatri'
	DB	'x2x4fv', 00H				; `string'
CONST	ENDS
;	COMDAT ??_C@_0BM@ECLCPFFD@glProgramUniformMatrix3x2fv@
CONST	SEGMENT
??_C@_0BM@ECLCPFFD@glProgramUniformMatrix3x2fv@ DB 'glProgramUniformMatri'
	DB	'x3x2fv', 00H				; `string'
CONST	ENDS
;	COMDAT ??_C@_0BM@DBFCEBJD@glProgramUniformMatrix2x3fv@
CONST	SEGMENT
??_C@_0BM@DBFCEBJD@glProgramUniformMatrix2x3fv@ DB 'glProgramUniformMatri'
	DB	'x2x3fv', 00H				; `string'
CONST	ENDS
;	COMDAT ??_C@_0BK@NFBAAFLH@glProgramUniformMatrix4dv@
CONST	SEGMENT
??_C@_0BK@NFBAAFLH@glProgramUniformMatrix4dv@ DB 'glProgramUniformMatrix4'
	DB	'dv', 00H					; `string'
CONST	ENDS
;	COMDAT ??_C@_0BK@EIMHDNAO@glProgramUniformMatrix3dv@
CONST	SEGMENT
??_C@_0BK@EIMHDNAO@glProgramUniformMatrix3dv@ DB 'glProgramUniformMatrix3'
	DB	'dv', 00H					; `string'
CONST	ENDS
;	COMDAT ??_C@_0BK@PAHLFKGL@glProgramUniformMatrix2dv@
CONST	SEGMENT
??_C@_0BK@PAHLFKGL@glProgramUniformMatrix2dv@ DB 'glProgramUniformMatrix2'
	DB	'dv', 00H					; `string'
CONST	ENDS
;	COMDAT ??_C@_0BK@NGJENBNJ@glProgramUniformMatrix4fv@
CONST	SEGMENT
??_C@_0BK@NGJENBNJ@glProgramUniformMatrix4fv@ DB 'glProgramUniformMatrix4'
	DB	'fv', 00H					; `string'
CONST	ENDS
;	COMDAT ??_C@_0BK@ELEDOJGA@glProgramUniformMatrix3fv@
CONST	SEGMENT
??_C@_0BK@ELEDOJGA@glProgramUniformMatrix3fv@ DB 'glProgramUniformMatrix3'
	DB	'fv', 00H					; `string'
CONST	ENDS
;	COMDAT ??_C@_0BK@PDPPIOAF@glProgramUniformMatrix2fv@
CONST	SEGMENT
??_C@_0BK@PDPPIOAF@glProgramUniformMatrix2fv@ DB 'glProgramUniformMatrix2'
	DB	'fv', 00H					; `string'
CONST	ENDS
;	COMDAT ??_C@_0BF@JHNNHGB@glProgramUniform4uiv@
CONST	SEGMENT
??_C@_0BF@JHNNHGB@glProgramUniform4uiv@ DB 'glProgramUniform4uiv', 00H ; `string'
CONST	ENDS
;	COMDAT ??_C@_0BE@HCPNJOAF@glProgramUniform4ui@
CONST	SEGMENT
??_C@_0BE@HCPNJOAF@glProgramUniform4ui@ DB 'glProgramUniform4ui', 00H ; `string'
CONST	ENDS
;	COMDAT ??_C@_0BE@KCEDFJNM@glProgramUniform4dv@
CONST	SEGMENT
??_C@_0BE@KCEDFJNM@glProgramUniform4dv@ DB 'glProgramUniform4dv', 00H ; `string'
CONST	ENDS
;	COMDAT ??_C@_0BD@JNEOHKCK@glProgramUniform4d@
CONST	SEGMENT
??_C@_0BD@JNEOHKCK@glProgramUniform4d@ DB 'glProgramUniform4d', 00H ; `string'
CONST	ENDS
;	COMDAT ??_C@_0BE@KBMHINLC@glProgramUniform4fv@
CONST	SEGMENT
??_C@_0BE@KBMHINLC@glProgramUniform4fv@ DB 'glProgramUniform4fv', 00H ; `string'
CONST	ENDS
;	COMDAT ??_C@_0BD@KPHIBIKI@glProgramUniform4f@
CONST	SEGMENT
??_C@_0BD@KPHIBIKI@glProgramUniform4f@ DB 'glProgramUniform4f', 00H ; `string'
CONST	ENDS
;	COMDAT ??_C@_0BE@KKJLMKIP@glProgramUniform4iv@
CONST	SEGMENT
??_C@_0BE@KKJLMKIP@glProgramUniform4iv@ DB 'glProgramUniform4iv', 00H ; `string'
CONST	ENDS
;	COMDAT ??_C@_0BD@CIOAAEGH@glProgramUniform4i@
CONST	SEGMENT
??_C@_0BD@CIOAAEGH@glProgramUniform4i@ DB 'glProgramUniform4i', 00H ; `string'
CONST	ENDS
;	COMDAT ??_C@_0BF@LLFNALHB@glProgramUniform3uiv@
CONST	SEGMENT
??_C@_0BF@LLFNALHB@glProgramUniform3uiv@ DB 'glProgramUniform3uiv', 00H ; `string'
CONST	ENDS
;	COMDAT ??_C@_0BE@OPCKKGLM@glProgramUniform3ui@
CONST	SEGMENT
??_C@_0BE@OPCKKGLM@glProgramUniform3ui@ DB 'glProgramUniform3ui', 00H ; `string'
CONST	ENDS
;	COMDAT ??_C@_0BE@DPJEGBGF@glProgramUniform3dv@
CONST	SEGMENT
??_C@_0BE@DPJEGBGF@glProgramUniform3dv@ DB 'glProgramUniform3dv', 00H ; `string'
CONST	ENDS
;	COMDAT ??_C@_0BD@JIABGMKP@glProgramUniform3d@
CONST	SEGMENT
??_C@_0BD@JIABGMKP@glProgramUniform3d@ DB 'glProgramUniform3d', 00H ; `string'
CONST	ENDS
;	COMDAT ??_C@_0BE@DMBALFAL@glProgramUniform3fv@
CONST	SEGMENT
??_C@_0BE@DMBALFAL@glProgramUniform3fv@ DB 'glProgramUniform3fv', 00H ; `string'
CONST	ENDS
;	COMDAT ??_C@_0BD@KKDHAOCN@glProgramUniform3f@
CONST	SEGMENT
??_C@_0BD@KKDHAOCN@glProgramUniform3f@ DB 'glProgramUniform3f', 00H ; `string'
CONST	ENDS
;	COMDAT ??_C@_0BE@DHEMPCDG@glProgramUniform3iv@
CONST	SEGMENT
??_C@_0BE@DHEMPCDG@glProgramUniform3iv@ DB 'glProgramUniform3iv', 00H ; `string'
CONST	ENDS
;	COMDAT ??_C@_0BD@CNKPBCOC@glProgramUniform3i@
CONST	SEGMENT
??_C@_0BD@CNKPBCOC@glProgramUniform3i@ DB 'glProgramUniform3i', 00H ; `string'
CONST	ENDS
;	COMDAT ??_C@_0BF@IGDNCCMB@glProgramUniform2uiv@
CONST	SEGMENT
??_C@_0BF@IGDNCCMB@glProgramUniform2uiv@ DB 'glProgramUniform2uiv', 00H ; `string'
CONST	ENDS
;	COMDAT ??_C@_0BE@FHJGMBNJ@glProgramUniform2ui@
CONST	SEGMENT
??_C@_0BE@FHJGMBNJ@glProgramUniform2ui@ DB 'glProgramUniform2ui', 00H ; `string'
CONST	ENDS
;	COMDAT ??_C@_0BE@IHCIAGAA@glProgramUniform2dv@
CONST	SEGMENT
??_C@_0BE@IHCIAGAA@glProgramUniform2dv@ DB 'glProgramUniform2dv', 00H ; `string'
CONST	ENDS
;	COMDAT ??_C@_0BD@JJMDAGJI@glProgramUniform2d@
CONST	SEGMENT
??_C@_0BD@JJMDAGJI@glProgramUniform2d@ DB 'glProgramUniform2d', 00H ; `string'
CONST	ENDS
;	COMDAT ??_C@_0BE@IEKMNCGO@glProgramUniform2fv@
CONST	SEGMENT
??_C@_0BE@IEKMNCGO@glProgramUniform2fv@ DB 'glProgramUniform2fv', 00H ; `string'
CONST	ENDS
;	COMDAT ??_C@_0BD@KLPFGEBK@glProgramUniform2f@
CONST	SEGMENT
??_C@_0BD@KLPFGEBK@glProgramUniform2f@ DB 'glProgramUniform2f', 00H ; `string'
CONST	ENDS
;	COMDAT ??_C@_0BE@IPPAJFFD@glProgramUniform2iv@
CONST	SEGMENT
??_C@_0BE@IPPAJFFD@glProgramUniform2iv@ DB 'glProgramUniform2iv', 00H ; `string'
CONST	ENDS
;	COMDAT ??_C@_0BD@CMGNHINF@glProgramUniform2i@
CONST	SEGMENT
??_C@_0BD@CMGNHINF@glProgramUniform2i@ DB 'glProgramUniform2i', 00H ; `string'
CONST	ENDS
;	COMDAT ??_C@_0BF@MBJNFIBB@glProgramUniform1uiv@
CONST	SEGMENT
??_C@_0BF@MBJNFIBB@glProgramUniform1uiv@ DB 'glProgramUniform1uiv', 00H ; `string'
CONST	ENDS
;	COMDAT ??_C@_0BE@EFCDGODH@glProgramUniform1ui@
CONST	SEGMENT
??_C@_0BE@EFCDGODH@glProgramUniform1ui@ DB 'glProgramUniform1ui', 00H ; `string'
CONST	ENDS
;	COMDAT ??_C@_0BE@JFJNKJOO@glProgramUniform1dv@
CONST	SEGMENT
??_C@_0BE@JFJNKJOO@glProgramUniform1dv@ DB 'glProgramUniform1dv', 00H ; `string'
CONST	ENDS
;	COMDAT ??_C@_0BD@JLIFLIMB@glProgramUniform1d@
CONST	SEGMENT
??_C@_0BD@JLIFLIMB@glProgramUniform1d@ DB 'glProgramUniform1d', 00H ; `string'
CONST	ENDS
;	COMDAT ??_C@_0BE@JGBJHNIA@glProgramUniform1fv@
CONST	SEGMENT
??_C@_0BE@JGBJHNIA@glProgramUniform1fv@ DB 'glProgramUniform1fv', 00H ; `string'
CONST	ENDS
;	COMDAT ??_C@_0BD@KJLDNKED@glProgramUniform1f@
CONST	SEGMENT
??_C@_0BD@KJLDNKED@glProgramUniform1f@ DB 'glProgramUniform1f', 00H ; `string'
CONST	ENDS
;	COMDAT ??_C@_0BE@JNEFDKLN@glProgramUniform1iv@
CONST	SEGMENT
??_C@_0BE@JNEFDKLN@glProgramUniform1iv@ DB 'glProgramUniform1iv', 00H ; `string'
CONST	ENDS
;	COMDAT ??_C@_0BD@COCLMGIM@glProgramUniform1i@
CONST	SEGMENT
??_C@_0BD@COCLMGIM@glProgramUniform1i@ DB 'glProgramUniform1i', 00H ; `string'
CONST	ENDS
;	COMDAT ??_C@_0BH@DNOPNJMO@glGetProgramPipelineiv@
CONST	SEGMENT
??_C@_0BH@DNOPNJMO@glGetProgramPipelineiv@ DB 'glGetProgramPipelineiv', 00H ; `string'
CONST	ENDS
;	COMDAT ??_C@_0BE@DLHPDHCH@glIsProgramPipeline@
CONST	SEGMENT
??_C@_0BE@DLHPDHCH@glIsProgramPipeline@ DB 'glIsProgramPipeline', 00H ; `string'
CONST	ENDS
;	COMDAT ??_C@_0BG@CCBKOCA@glGenProgramPipelines@
CONST	SEGMENT
??_C@_0BG@CCBKOCA@glGenProgramPipelines@ DB 'glGenProgramPipelines', 00H ; `string'
CONST	ENDS
;	COMDAT ??_C@_0BJ@CHBGABHE@glDeleteProgramPipelines@
CONST	SEGMENT
??_C@_0BJ@CHBGABHE@glDeleteProgramPipelines@ DB 'glDeleteProgramPipelines'
	DB	00H						; `string'
CONST	ENDS
;	COMDAT ??_C@_0BG@GLPOKNCG@glBindProgramPipeline@
CONST	SEGMENT
??_C@_0BG@GLPOKNCG@glBindProgramPipeline@ DB 'glBindProgramPipeline', 00H ; `string'
CONST	ENDS
;	COMDAT ??_C@_0BH@BOJGDFJN@glCreateShaderProgramv@
CONST	SEGMENT
??_C@_0BH@BOJGDFJN@glCreateShaderProgramv@ DB 'glCreateShaderProgramv', 00H ; `string'
CONST	ENDS
;	COMDAT ??_C@_0BG@IAIOGMEB@glActiveShaderProgram@
CONST	SEGMENT
??_C@_0BG@IAIOGMEB@glActiveShaderProgram@ DB 'glActiveShaderProgram', 00H ; `string'
CONST	ENDS
;	COMDAT ??_C@_0BD@CADKHDMH@glUseProgramStages@
CONST	SEGMENT
??_C@_0BD@CADKHDMH@glUseProgramStages@ DB 'glUseProgramStages', 00H ; `string'
CONST	ENDS
;	COMDAT ??_C@_0BE@EELDBEME@glProgramParameteri@
CONST	SEGMENT
??_C@_0BE@EELDBEME@glProgramParameteri@ DB 'glProgramParameteri', 00H ; `string'
CONST	ENDS
;	COMDAT ??_C@_0BA@MIIDHOO@glProgramBinary@
CONST	SEGMENT
??_C@_0BA@MIIDHOO@glProgramBinary@ DB 'glProgramBinary', 00H ; `string'
CONST	ENDS
;	COMDAT ??_C@_0BD@JBCEHKON@glGetProgramBinary@
CONST	SEGMENT
??_C@_0BD@JBCEHKON@glGetProgramBinary@ DB 'glGetProgramBinary', 00H ; `string'
CONST	ENDS
;	COMDAT ??_C@_0O@FMBMCDIL@glClearDepthf@
CONST	SEGMENT
??_C@_0O@FMBMCDIL@glClearDepthf@ DB 'glClearDepthf', 00H ; `string'
CONST	ENDS
;	COMDAT ??_C@_0O@JDFJDNND@glDepthRangef@
CONST	SEGMENT
??_C@_0O@JDFJDNND@glDepthRangef@ DB 'glDepthRangef', 00H ; `string'
CONST	ENDS
;	COMDAT ??_C@_0BL@MLAOOHPD@glGetShaderPrecisionFormat@
CONST	SEGMENT
??_C@_0BL@MLAOOHPD@glGetShaderPrecisionFormat@ DB 'glGetShaderPrecisionFo'
	DB	'rmat', 00H					; `string'
CONST	ENDS
;	COMDAT ??_C@_0P@IMINELFB@glShaderBinary@
CONST	SEGMENT
??_C@_0P@IMINELFB@glShaderBinary@ DB 'glShaderBinary', 00H ; `string'
CONST	ENDS
;	COMDAT ??_C@_0BI@HGKABJPJ@glReleaseShaderCompiler@
CONST	SEGMENT
??_C@_0BI@HGKABJPJ@glReleaseShaderCompiler@ DB 'glReleaseShaderCompiler', 00H ; `string'
CONST	ENDS
;	COMDAT ??_C@_0BE@CCFJPMFI@glGetQueryIndexediv@
CONST	SEGMENT
??_C@_0BE@CCFJPMFI@glGetQueryIndexediv@ DB 'glGetQueryIndexediv', 00H ; `string'
CONST	ENDS
;	COMDAT ??_C@_0BC@DPMHMNME@glEndQueryIndexed@
CONST	SEGMENT
??_C@_0BC@DPMHMNME@glEndQueryIndexed@ DB 'glEndQueryIndexed', 00H ; `string'
CONST	ENDS
;	COMDAT ??_C@_0BE@BDKPJDEE@glBeginQueryIndexed@
CONST	SEGMENT
??_C@_0BE@BDKPJDEE@glBeginQueryIndexed@ DB 'glBeginQueryIndexed', 00H ; `string'
CONST	ENDS
;	COMDAT ??_C@_0BO@IGLFNCDG@glDrawTransformFeedbackStream@
CONST	SEGMENT
??_C@_0BO@IGLFNCDG@glDrawTransformFeedbackStream@ DB 'glDrawTransformFeed'
	DB	'backStream', 00H				; `string'
CONST	ENDS
;	COMDAT ??_C@_0BI@LEOILCPN@glDrawTransformFeedback@
CONST	SEGMENT
??_C@_0BI@LEOILCPN@glDrawTransformFeedback@ DB 'glDrawTransformFeedback', 00H ; `string'
CONST	ENDS
;	COMDAT ??_C@_0BK@JMHONFHF@glResumeTransformFeedback@
CONST	SEGMENT
??_C@_0BK@JMHONFHF@glResumeTransformFeedback@ DB 'glResumeTransformFeedba'
	DB	'ck', 00H					; `string'
CONST	ENDS
;	COMDAT ??_C@_0BJ@FFNLKBCB@glPauseTransformFeedback@
CONST	SEGMENT
??_C@_0BJ@FFNLKBCB@glPauseTransformFeedback@ DB 'glPauseTransformFeedback'
	DB	00H						; `string'
CONST	ENDS
;	COMDAT ??_C@_0BG@BGFLKHBM@glIsTransformFeedback@
CONST	SEGMENT
??_C@_0BG@BGFLKHBM@glIsTransformFeedback@ DB 'glIsTransformFeedback', 00H ; `string'
CONST	ENDS
;	COMDAT ??_C@_0BI@KANKBGAE@glGenTransformFeedbacks@
CONST	SEGMENT
??_C@_0BI@KANKBGAE@glGenTransformFeedbacks@ DB 'glGenTransformFeedbacks', 00H ; `string'
CONST	ENDS
;	COMDAT ??_C@_0BL@DIGEBFBK@glDeleteTransformFeedbacks@
CONST	SEGMENT
??_C@_0BL@DIGEBFBK@glDeleteTransformFeedbacks@ DB 'glDeleteTransformFeedb'
	DB	'acks', 00H					; `string'
CONST	ENDS
;	COMDAT ??_C@_0BI@BPJKLMIG@glBindTransformFeedback@
CONST	SEGMENT
??_C@_0BI@BPJKLMIG@glBindTransformFeedback@ DB 'glBindTransformFeedback', 00H ; `string'
CONST	ENDS
;	COMDAT ??_C@_0BD@LJKINJKN@glPatchParameterfv@
CONST	SEGMENT
??_C@_0BD@LJKINJKN@glPatchParameterfv@ DB 'glPatchParameterfv', 00H ; `string'
CONST	ENDS
;	COMDAT ??_C@_0BC@PAPDGMLA@glPatchParameteri@
CONST	SEGMENT
??_C@_0BC@PAPDGMLA@glPatchParameteri@ DB 'glPatchParameteri', 00H ; `string'
CONST	ENDS
;	COMDAT ??_C@_0BE@LOKJCDFH@glGetProgramStageiv@
CONST	SEGMENT
??_C@_0BE@LOKJCDFH@glGetProgramStageiv@ DB 'glGetProgramStageiv', 00H ; `string'
CONST	ENDS
;	COMDAT ??_C@_0BK@BLMOFAGJ@glGetUniformSubroutineuiv@
CONST	SEGMENT
??_C@_0BK@BLMOFAGJ@glGetUniformSubroutineuiv@ DB 'glGetUniformSubroutineu'
	DB	'iv', 00H					; `string'
CONST	ENDS
;	COMDAT ??_C@_0BI@CDPOBBHI@glUniformSubroutinesuiv@
CONST	SEGMENT
??_C@_0BI@CDPOBBHI@glUniformSubroutinesuiv@ DB 'glUniformSubroutinesuiv', 00H ; `string'
CONST	ENDS
;	COMDAT ??_C@_0BK@JPHEACLL@glGetActiveSubroutineName@
CONST	SEGMENT
??_C@_0BK@JPHEACLL@glGetActiveSubroutineName@ DB 'glGetActiveSubroutineNa'
	DB	'me', 00H					; `string'
CONST	ENDS
;	COMDAT ??_C@_0CB@KCFFPCGJ@glGetActiveSubroutineUniformNam@
CONST	SEGMENT
??_C@_0CB@KCFFPCGJ@glGetActiveSubroutineUniformNam@ DB 'glGetActiveSubrou'
	DB	'tineUniformName', 00H			; `string'
CONST	ENDS
;	COMDAT ??_C@_0BP@FAPFAJFP@glGetActiveSubroutineUniformiv@
CONST	SEGMENT
??_C@_0BP@FAPFAJFP@glGetActiveSubroutineUniformiv@ DB 'glGetActiveSubrout'
	DB	'ineUniformiv', 00H				; `string'
CONST	ENDS
;	COMDAT ??_C@_0BF@ONDIGCJG@glGetSubroutineIndex@
CONST	SEGMENT
??_C@_0BF@ONDIGCJG@glGetSubroutineIndex@ DB 'glGetSubroutineIndex', 00H ; `string'
CONST	ENDS
;	COMDAT ??_C@_0BP@IBIPLDOA@glGetSubroutineUniformLocation@
CONST	SEGMENT
??_C@_0BP@IBIPLDOA@glGetSubroutineUniformLocation@ DB 'glGetSubroutineUni'
	DB	'formLocation', 00H				; `string'
CONST	ENDS
;	COMDAT ??_C@_0P@NGEMHI@glGetUniformdv@
CONST	SEGMENT
??_C@_0P@NGEMHI@glGetUniformdv@ DB 'glGetUniformdv', 00H ; `string'
CONST	ENDS
;	COMDAT ??_C@_0BF@HGOEPFEJ@glUniformMatrix4x3dv@
CONST	SEGMENT
??_C@_0BF@HGOEPFEJ@glUniformMatrix4x3dv@ DB 'glUniformMatrix4x3dv', 00H ; `string'
CONST	ENDS
;	COMDAT ??_C@_0BF@MOFIJCCM@glUniformMatrix4x2dv@
CONST	SEGMENT
??_C@_0BF@MOFIJCCM@glUniformMatrix4x2dv@ DB 'glUniformMatrix4x2dv', 00H ; `string'
CONST	ENDS
;	COMDAT ??_C@_0BF@PGDGPNEI@glUniformMatrix3x4dv@
CONST	SEGMENT
??_C@_0BF@PGDGPNEI@glUniformMatrix3x4dv@ DB 'glUniformMatrix3x4dv', 00H ; `string'
CONST	ENDS
;	COMDAT ??_C@_0BF@NDFNKCJE@glUniformMatrix3x2dv@
CONST	SEGMENT
??_C@_0BF@NDFNKCJE@glUniformMatrix3x2dv@ DB 'glUniformMatrix3x2dv', 00H ; `string'
CONST	ENDS
;	COMDAT ??_C@_0BF@DNGKCOON@glUniformMatrix2x4dv@
CONST	SEGMENT
??_C@_0BF@DNGKCOON@glUniformMatrix2x4dv@ DB 'glUniformMatrix2x4dv', 00H ; `string'
CONST	ENDS
;	COMDAT ??_C@_0BF@KALNBGFE@glUniformMatrix2x3dv@
CONST	SEGMENT
??_C@_0BF@KALNBGFE@glUniformMatrix2x3dv@ DB 'glUniformMatrix2x3dv', 00H ; `string'
CONST	ENDS
;	COMDAT ??_C@_0BD@LOPGMAMB@glUniformMatrix4dv@
CONST	SEGMENT
??_C@_0BD@LOPGMAMB@glUniformMatrix4dv@ DB 'glUniformMatrix4dv', 00H ; `string'
CONST	ENDS
;	COMDAT ??_C@_0BD@CDCBPIHI@glUniformMatrix3dv@
CONST	SEGMENT
??_C@_0BD@CDCBPIHI@glUniformMatrix3dv@ DB 'glUniformMatrix3dv', 00H ; `string'
CONST	ENDS
;	COMDAT ??_C@_0BD@JLJNJPBN@glUniformMatrix2dv@
CONST	SEGMENT
??_C@_0BD@JLJNJPBN@glUniformMatrix2dv@ DB 'glUniformMatrix2dv', 00H ; `string'
CONST	ENDS
;	COMDAT ??_C@_0N@JNJEGONE@glUniform4dv@
CONST	SEGMENT
??_C@_0N@JNJEGONE@glUniform4dv@ DB 'glUniform4dv', 00H	; `string'
CONST	ENDS
;	COMDAT ??_C@_0N@EDFGGN@glUniform3dv@
CONST	SEGMENT
??_C@_0N@EDFGGN@glUniform3dv@ DB 'glUniform3dv', 00H	; `string'
CONST	ENDS
;	COMDAT ??_C@_0N@LIPPDBAI@glUniform2dv@
CONST	SEGMENT
??_C@_0N@LIPPDBAI@glUniform2dv@ DB 'glUniform2dv', 00H	; `string'
CONST	ENDS
;	COMDAT ??_C@_0N@KKEKJOOG@glUniform1dv@
CONST	SEGMENT
??_C@_0N@KKEKJOOG@glUniform1dv@ DB 'glUniform1dv', 00H	; `string'
CONST	ENDS
;	COMDAT ??_C@_0M@PPHPKPIM@glUniform4d@
CONST	SEGMENT
??_C@_0M@PPHPKPIM@glUniform4d@ DB 'glUniform4d', 00H	; `string'
CONST	ENDS
;	COMDAT ??_C@_0M@PKDALJAJ@glUniform3d@
CONST	SEGMENT
??_C@_0M@PKDALJAJ@glUniform3d@ DB 'glUniform3d', 00H	; `string'
CONST	ENDS
;	COMDAT ??_C@_0M@PLPCNDDO@glUniform2d@
CONST	SEGMENT
??_C@_0M@PLPCNDDO@glUniform2d@ DB 'glUniform2d', 00H	; `string'
CONST	ENDS
;	COMDAT ??_C@_0M@PJLEGNGH@glUniform1d@
CONST	SEGMENT
??_C@_0M@PJLEGNGH@glUniform1d@ DB 'glUniform1d', 00H	; `string'
CONST	ENDS
;	COMDAT ??_C@_0BH@LJJDOEDH@glDrawElementsIndirect@
CONST	SEGMENT
??_C@_0BH@LJJDOEDH@glDrawElementsIndirect@ DB 'glDrawElementsIndirect', 00H ; `string'
CONST	ENDS
;	COMDAT ??_C@_0BF@BGDCPAEP@glDrawArraysIndirect@
CONST	SEGMENT
??_C@_0BF@BGDCPAEP@glDrawArraysIndirect@ DB 'glDrawArraysIndirect', 00H ; `string'
CONST	ENDS
;	COMDAT ??_C@_0BF@PDDGKNBJ@glBlendFuncSeparatei@
CONST	SEGMENT
??_C@_0BF@PDDGKNBJ@glBlendFuncSeparatei@ DB 'glBlendFuncSeparatei', 00H ; `string'
CONST	ENDS
;	COMDAT ??_C@_0N@IKKELNNP@glBlendFunci@
CONST	SEGMENT
??_C@_0N@IKKELNNP@glBlendFunci@ DB 'glBlendFunci', 00H	; `string'
CONST	ENDS
;	COMDAT ??_C@_0BJ@FNMBAGAC@glBlendEquationSeparatei@
CONST	SEGMENT
??_C@_0BJ@FNMBAGAC@glBlendEquationSeparatei@ DB 'glBlendEquationSeparatei'
	DB	00H						; `string'
CONST	ENDS
;	COMDAT ??_C@_0BB@MKHLNEOM@glBlendEquationi@
CONST	SEGMENT
??_C@_0BB@MKHLNEOM@glBlendEquationi@ DB 'glBlendEquationi', 00H ; `string'
CONST	ENDS
;	COMDAT ??_C@_0BD@EDGCEBP@glMinSampleShading@
CONST	SEGMENT
??_C@_0BD@EDGCEBP@glMinSampleShading@ DB 'glMinSampleShading', 00H ; `string'
CONST	ENDS
;	COMDAT ??_C@_0BG@DPPPFGBG@glSecondaryColorP3uiv@
CONST	SEGMENT
??_C@_0BG@DPPPFGBG@glSecondaryColorP3uiv@ DB 'glSecondaryColorP3uiv', 00H ; `string'
CONST	ENDS
;	COMDAT ??_C@_0BF@PDDGBPKP@glSecondaryColorP3ui@
CONST	SEGMENT
??_C@_0BF@PDDGBPKP@glSecondaryColorP3ui@ DB 'glSecondaryColorP3ui', 00H ; `string'
CONST	ENDS
;	COMDAT ??_C@_0N@DDNDANIE@glColorP4uiv@
CONST	SEGMENT
??_C@_0N@DDNDANIE@glColorP4uiv@ DB 'glColorP4uiv', 00H	; `string'
CONST	ENDS
;	COMDAT ??_C@_0M@GJHGLFGE@glColorP4ui@
CONST	SEGMENT
??_C@_0M@GJHGLFGE@glColorP4ui@ DB 'glColorP4ui', 00H	; `string'
CONST	ENDS
;	COMDAT ??_C@_0N@IBPDNBJE@glColorP3uiv@
CONST	SEGMENT
??_C@_0N@IBPDNBJE@glColorP3uiv@ DB 'glColorP3uiv', 00H	; `string'
CONST	ENDS
;	COMDAT ??_C@_0M@PEKBINNN@glColorP3ui@
CONST	SEGMENT
??_C@_0M@PEKBINNN@glColorP3ui@ DB 'glColorP3ui', 00H	; `string'
CONST	ENDS
;	COMDAT ??_C@_0O@MOCJMHFG@glNormalP3uiv@
CONST	SEGMENT
??_C@_0O@MOCJMHFG@glNormalP3uiv@ DB 'glNormalP3uiv', 00H ; `string'
CONST	ENDS
;	COMDAT ??_C@_0N@PBEFBNHO@glNormalP3ui@
CONST	SEGMENT
??_C@_0N@PBEFBNHO@glNormalP3ui@ DB 'glNormalP3ui', 00H	; `string'
CONST	ENDS
;	COMDAT ??_C@_0BF@IONACAHK@glMultiTexCoordP4uiv@
CONST	SEGMENT
??_C@_0BF@IONACAHK@glMultiTexCoordP4uiv@ DB 'glMultiTexCoordP4uiv', 00H ; `string'
CONST	ENDS
;	COMDAT ??_C@_0BE@NHKJFHJE@glMultiTexCoordP4ui@
CONST	SEGMENT
??_C@_0BE@NHKJFHJE@glMultiTexCoordP4ui@ DB 'glMultiTexCoordP4ui', 00H ; `string'
CONST	ENDS
;	COMDAT ??_C@_0BF@DMPAPMGK@glMultiTexCoordP3uiv@
CONST	SEGMENT
??_C@_0BF@DMPAPMGK@glMultiTexCoordP3uiv@ DB 'glMultiTexCoordP3uiv', 00H ; `string'
CONST	ENDS
;	COMDAT ??_C@_0BE@EKHOGPCN@glMultiTexCoordP3ui@
CONST	SEGMENT
??_C@_0BE@EKHOGPCN@glMultiTexCoordP3ui@ DB 'glMultiTexCoordP3ui', 00H ; `string'
CONST	ENDS
;	COMDAT ??_C@_0BF@BJANFNK@glMultiTexCoordP2uiv@
CONST	SEGMENT
??_C@_0BF@BJANFNK@glMultiTexCoordP2uiv@ DB 'glMultiTexCoordP2uiv', 00H ; `string'
CONST	ENDS
;	COMDAT ??_C@_0BE@PCMCAIEI@glMultiTexCoordP2ui@
CONST	SEGMENT
??_C@_0BE@PCMCAIEI@glMultiTexCoordP2ui@ DB 'glMultiTexCoordP2ui', 00H ; `string'
CONST	ENDS
;	COMDAT ??_C@_0BF@EGDAKPAK@glMultiTexCoordP1uiv@
CONST	SEGMENT
??_C@_0BF@EGDAKPAK@glMultiTexCoordP1uiv@ DB 'glMultiTexCoordP1uiv', 00H ; `string'
CONST	ENDS
;	COMDAT ??_C@_0BE@OAHHKHKG@glMultiTexCoordP1ui@
CONST	SEGMENT
??_C@_0BE@OAHHKHKG@glMultiTexCoordP1ui@ DB 'glMultiTexCoordP1ui', 00H ; `string'
CONST	ENDS
;	COMDAT ??_C@_0BA@JILHAPCD@glTexCoordP4uiv@
CONST	SEGMENT
??_C@_0BA@JILHAPCD@glTexCoordP4uiv@ DB 'glTexCoordP4uiv', 00H ; `string'
CONST	ENDS
;	COMDAT ??_C@_0P@NMEJELEL@glTexCoordP4ui@
CONST	SEGMENT
??_C@_0P@NMEJELEL@glTexCoordP4ui@ DB 'glTexCoordP4ui', 00H ; `string'
CONST	ENDS
;	COMDAT ??_C@_0BA@CKJHNDDD@glTexCoordP3uiv@
CONST	SEGMENT
??_C@_0BA@CKJHNDDD@glTexCoordP3uiv@ DB 'glTexCoordP3uiv', 00H ; `string'
CONST	ENDS
;	COMDAT ??_C@_0P@EBJOHDPC@glTexCoordP3ui@
CONST	SEGMENT
??_C@_0P@EBJOHDPC@glTexCoordP3ui@ DB 'glTexCoordP3ui', 00H ; `string'
CONST	ENDS
;	COMDAT ??_C@_0BA@BHPHPKID@glTexCoordP2uiv@
CONST	SEGMENT
??_C@_0BA@BHPHPKID@glTexCoordP2uiv@ DB 'glTexCoordP2uiv', 00H ; `string'
CONST	ENDS
;	COMDAT ??_C@_0P@PJCCBEJH@glTexCoordP2ui@
CONST	SEGMENT
??_C@_0P@PJCCBEJH@glTexCoordP2ui@ DB 'glTexCoordP2ui', 00H ; `string'
CONST	ENDS
;	COMDAT ??_C@_0BA@FAFHIAFD@glTexCoordP1uiv@
CONST	SEGMENT
??_C@_0BA@FAFHIAFD@glTexCoordP1uiv@ DB 'glTexCoordP1uiv', 00H ; `string'
CONST	ENDS
;	COMDAT ??_C@_0P@OLJHLLHJ@glTexCoordP1ui@
CONST	SEGMENT
??_C@_0P@OLJHLLHJ@glTexCoordP1ui@ DB 'glTexCoordP1ui', 00H ; `string'
CONST	ENDS
;	COMDAT ??_C@_0O@IDAKJKMN@glVertexP4uiv@
CONST	SEGMENT
??_C@_0O@IDAKJKMN@glVertexP4uiv@ DB 'glVertexP4uiv', 00H ; `string'
CONST	ENDS
;	COMDAT ??_C@_0N@GAHJNOBO@glVertexP4ui@
CONST	SEGMENT
??_C@_0N@GAHJNOBO@glVertexP4ui@ DB 'glVertexP4ui', 00H	; `string'
CONST	ENDS
;	COMDAT ??_C@_0O@DBCKEGNN@glVertexP3uiv@
CONST	SEGMENT
??_C@_0O@DBCKEGNN@glVertexP3uiv@ DB 'glVertexP3uiv', 00H ; `string'
CONST	ENDS
;	COMDAT ??_C@_0N@PNKOOGKH@glVertexP3ui@
CONST	SEGMENT
??_C@_0N@PNKOOGKH@glVertexP3ui@ DB 'glVertexP3ui', 00H	; `string'
CONST	ENDS
;	COMDAT ??_C@_0O@MEKGPGN@glVertexP2uiv@
CONST	SEGMENT
??_C@_0O@MEKGPGN@glVertexP2uiv@ DB 'glVertexP2uiv', 00H	; `string'
CONST	ENDS
;	COMDAT ??_C@_0N@EFBCIBMC@glVertexP2ui@
CONST	SEGMENT
??_C@_0N@EFBCIBMC@glVertexP2ui@ DB 'glVertexP2ui', 00H	; `string'
CONST	ENDS
;	COMDAT ??_C@_0BE@LJLDGOAD@glVertexAttribP4uiv@
CONST	SEGMENT
??_C@_0BE@LJLDGOAD@glVertexAttribP4uiv@ DB 'glVertexAttribP4uiv', 00H ; `string'
CONST	ENDS
;	COMDAT ??_C@_0BD@GMNMNOHP@glVertexAttribP4ui@
CONST	SEGMENT
??_C@_0BD@GMNMNOHP@glVertexAttribP4ui@ DB 'glVertexAttribP4ui', 00H ; `string'
CONST	ENDS
;	COMDAT ??_C@_0BE@LJDLCBD@glVertexAttribP3uiv@
CONST	SEGMENT
??_C@_0BE@LJDLCBD@glVertexAttribP3uiv@ DB 'glVertexAttribP3uiv', 00H ; `string'
CONST	ENDS
;	COMDAT ??_C@_0BD@PBALOGMG@glVertexAttribP3ui@
CONST	SEGMENT
??_C@_0BD@PBALOGMG@glVertexAttribP3ui@ DB 'glVertexAttribP3ui', 00H ; `string'
CONST	ENDS
;	COMDAT ??_C@_0BE@DGPDJLKD@glVertexAttribP2uiv@
CONST	SEGMENT
??_C@_0BE@DGPDJLKD@glVertexAttribP2uiv@ DB 'glVertexAttribP2uiv', 00H ; `string'
CONST	ENDS
;	COMDAT ??_C@_0BD@EJLHIBKD@glVertexAttribP2ui@
CONST	SEGMENT
??_C@_0BD@EJLHIBKD@glVertexAttribP2ui@ DB 'glVertexAttribP2ui', 00H ; `string'
CONST	ENDS
;	COMDAT ??_C@_0BE@HBFDOBHD@glVertexAttribP1uiv@
CONST	SEGMENT
??_C@_0BE@HBFDOBHD@glVertexAttribP1uiv@ DB 'glVertexAttribP1uiv', 00H ; `string'
CONST	ENDS
;	COMDAT ??_C@_0BD@FLACCOEN@glVertexAttribP1ui@
CONST	SEGMENT
??_C@_0BD@FLACCOEN@glVertexAttribP1ui@ DB 'glVertexAttribP1ui', 00H ; `string'
CONST	ENDS
;	COMDAT ??_C@_0BG@NEBMAEHM@glVertexAttribDivisor@
CONST	SEGMENT
??_C@_0BG@NEBMAEHM@glVertexAttribDivisor@ DB 'glVertexAttribDivisor', 00H ; `string'
CONST	ENDS
;	COMDAT ??_C@_0BG@NEGGOMJO@glGetQueryObjectui64v@
CONST	SEGMENT
??_C@_0BG@NEGGOMJO@glGetQueryObjectui64v@ DB 'glGetQueryObjectui64v', 00H ; `string'
CONST	ENDS
;	COMDAT ??_C@_0BF@JDAPDEPE@glGetQueryObjecti64v@
CONST	SEGMENT
??_C@_0BF@JDAPDEPE@glGetQueryObjecti64v@ DB 'glGetQueryObjecti64v', 00H ; `string'
CONST	ENDS
;	COMDAT ??_C@_0P@KALICDIM@glQueryCounter@
CONST	SEGMENT
??_C@_0P@KALICDIM@glQueryCounter@ DB 'glQueryCounter', 00H ; `string'
CONST	ENDS
;	COMDAT ??_C@_0BK@CMBGFHDA@glGetSamplerParameterIuiv@
CONST	SEGMENT
??_C@_0BK@CMBGFHDA@glGetSamplerParameterIuiv@ DB 'glGetSamplerParameterIu'
	DB	'iv', 00H					; `string'
CONST	ENDS
;	COMDAT ??_C@_0BI@FPHMKMKC@glGetSamplerParameterfv@
CONST	SEGMENT
??_C@_0BI@FPHMKMKC@glGetSamplerParameterfv@ DB 'glGetSamplerParameterfv', 00H ; `string'
CONST	ENDS
;	COMDAT ??_C@_0BJ@KOMJDLDN@glGetSamplerParameterIiv@
CONST	SEGMENT
??_C@_0BJ@KOMJDLDN@glGetSamplerParameterIiv@ DB 'glGetSamplerParameterIiv'
	DB	00H						; `string'
CONST	ENDS
;	COMDAT ??_C@_0BI@FECAOLJP@glGetSamplerParameteriv@
CONST	SEGMENT
??_C@_0BI@FECAOLJP@glGetSamplerParameteriv@ DB 'glGetSamplerParameteriv', 00H ; `string'
CONST	ENDS
;	COMDAT ??_C@_0BH@FEMFBPPB@glSamplerParameterIuiv@
CONST	SEGMENT
??_C@_0BH@FEMFBPPB@glSamplerParameterIuiv@ DB 'glSamplerParameterIuiv', 00H ; `string'
CONST	ENDS
;	COMDAT ??_C@_0BG@HKEIFIHF@glSamplerParameterIiv@
CONST	SEGMENT
??_C@_0BG@HKEIFIHF@glSamplerParameterIiv@ DB 'glSamplerParameterIiv', 00H ; `string'
CONST	ENDS
;	COMDAT ??_C@_0BF@GFCPAGMB@glSamplerParameterfv@
CONST	SEGMENT
??_C@_0BF@GFCPAGMB@glSamplerParameterfv@ DB 'glSamplerParameterfv', 00H ; `string'
CONST	ENDS
;	COMDAT ??_C@_0BE@CGLJNDFB@glSamplerParameterf@
CONST	SEGMENT
??_C@_0BE@CGLJNDFB@glSamplerParameterf@ DB 'glSamplerParameterf', 00H ; `string'
CONST	ENDS
;	COMDAT ??_C@_0BF@GOHDEBPM@glSamplerParameteriv@
CONST	SEGMENT
??_C@_0BF@GOHDEBPM@glSamplerParameteriv@ DB 'glSamplerParameteriv', 00H ; `string'
CONST	ENDS
;	COMDAT ??_C@_0BE@KBCBMPJO@glSamplerParameteri@
CONST	SEGMENT
??_C@_0BE@KBCBMPJO@glSamplerParameteri@ DB 'glSamplerParameteri', 00H ; `string'
CONST	ENDS
;	COMDAT ??_C@_0O@PDEILAPG@glBindSampler@
CONST	SEGMENT
??_C@_0O@PDEILAPG@glBindSampler@ DB 'glBindSampler', 00H ; `string'
CONST	ENDS
;	COMDAT ??_C@_0M@LAJKHOKJ@glIsSampler@
CONST	SEGMENT
??_C@_0M@LAJKHOKJ@glIsSampler@ DB 'glIsSampler', 00H	; `string'
CONST	ENDS
;	COMDAT ??_C@_0BB@FLPAOEOO@glDeleteSamplers@
CONST	SEGMENT
??_C@_0BB@FLPAOEOO@glDeleteSamplers@ DB 'glDeleteSamplers', 00H ; `string'
CONST	ENDS
;	COMDAT ??_C@_0O@EMMLGGLG@glGenSamplers@
CONST	SEGMENT
??_C@_0O@EMMLGGLG@glGenSamplers@ DB 'glGenSamplers', 00H ; `string'
CONST	ENDS
;	COMDAT ??_C@_0BD@COCJFEOH@glGetFragDataIndex@
CONST	SEGMENT
??_C@_0BD@COCJFEOH@glGetFragDataIndex@ DB 'glGetFragDataIndex', 00H ; `string'
CONST	ENDS
;	COMDAT ??_C@_0BO@POJBGCGG@glBindFragDataLocationIndexed@
CONST	SEGMENT
??_C@_0BO@POJBGCGG@glBindFragDataLocationIndexed@ DB 'glBindFragDataLocat'
	DB	'ionIndexed', 00H				; `string'
CONST	ENDS
;	COMDAT ??_C@_0O@JNHBCHMB@glSampleMaski@
CONST	SEGMENT
??_C@_0O@JNHBCHMB@glSampleMaski@ DB 'glSampleMaski', 00H ; `string'
CONST	ENDS
;	COMDAT ??_C@_0BD@DHLIMGN@glGetMultisamplefv@
CONST	SEGMENT
??_C@_0BD@DHLIMGN@glGetMultisamplefv@ DB 'glGetMultisamplefv', 00H ; `string'
CONST	ENDS
;	COMDAT ??_C@_0BI@JIHMLKCG@glTexImage3DMultisample@
CONST	SEGMENT
??_C@_0BI@JIHMLKCG@glTexImage3DMultisample@ DB 'glTexImage3DMultisample', 00H ; `string'
CONST	ENDS
;	COMDAT ??_C@_0BI@FHDFLFA@glTexImage2DMultisample@
CONST	SEGMENT
??_C@_0BI@FHDFLFA@glTexImage2DMultisample@ DB 'glTexImage2DMultisample', 00H ; `string'
CONST	ENDS
;	COMDAT ??_C@_0BF@ENLMLILA@glFramebufferTexture@
CONST	SEGMENT
??_C@_0BF@ENLMLILA@glFramebufferTexture@ DB 'glFramebufferTexture', 00H ; `string'
CONST	ENDS
;	COMDAT ??_C@_0BJ@KKBIDGPP@glGetBufferParameteri64v@
CONST	SEGMENT
??_C@_0BJ@KKBIDGPP@glGetBufferParameteri64v@ DB 'glGetBufferParameteri64v'
	DB	00H						; `string'
CONST	ENDS
;	COMDAT ??_C@_0BC@KOJILIEC@glGetInteger64i_v@
CONST	SEGMENT
??_C@_0BC@KOJILIEC@glGetInteger64i_v@ DB 'glGetInteger64i_v', 00H ; `string'
CONST	ENDS
;	COMDAT ??_C@_0M@MPEEOPIN@glGetSynciv@
CONST	SEGMENT
??_C@_0M@MPEEOPIN@glGetSynciv@ DB 'glGetSynciv', 00H	; `string'
CONST	ENDS
;	COMDAT ??_C@_0BA@INMBOHGL@glGetInteger64v@
CONST	SEGMENT
??_C@_0BA@INMBOHGL@glGetInteger64v@ DB 'glGetInteger64v', 00H ; `string'
CONST	ENDS
;	COMDAT ??_C@_0L@MHLOGHGO@glWaitSync@
CONST	SEGMENT
??_C@_0L@MHLOGHGO@glWaitSync@ DB 'glWaitSync', 00H	; `string'
CONST	ENDS
;	COMDAT ??_C@_0BB@KDMPGJAC@glClientWaitSync@
CONST	SEGMENT
??_C@_0BB@KDMPGJAC@glClientWaitSync@ DB 'glClientWaitSync', 00H ; `string'
CONST	ENDS
;	COMDAT ??_C@_0N@PIFDNDFG@glDeleteSync@
CONST	SEGMENT
??_C@_0N@PIFDNDFG@glDeleteSync@ DB 'glDeleteSync', 00H	; `string'
CONST	ENDS
;	COMDAT ??_C@_08JPIIHJEO@glIsSync@
CONST	SEGMENT
??_C@_08JPIIHJEO@glIsSync@ DB 'glIsSync', 00H		; `string'
CONST	ENDS
;	COMDAT ??_C@_0M@EFGFPFLP@glFenceSync@
CONST	SEGMENT
??_C@_0M@EFGFPFLP@glFenceSync@ DB 'glFenceSync', 00H	; `string'
CONST	ENDS
;	COMDAT ??_C@_0BC@ECOAPEBI@glProvokingVertex@
CONST	SEGMENT
??_C@_0BC@ECOAPEBI@glProvokingVertex@ DB 'glProvokingVertex', 00H ; `string'
CONST	ENDS
;	COMDAT ??_C@_0BO@NAPFJEEK@glMultiDrawElementsBaseVertex@
CONST	SEGMENT
??_C@_0BO@NAPFJEEK@glMultiDrawElementsBaseVertex@ DB 'glMultiDrawElements'
	DB	'BaseVertex', 00H				; `string'
CONST	ENDS
;	COMDAT ??_C@_0CC@KLOIIKNA@glDrawElementsInstancedBaseVert@
CONST	SEGMENT
??_C@_0CC@KLOIIKNA@glDrawElementsInstancedBaseVert@ DB 'glDrawElementsIns'
	DB	'tancedBaseVertex', 00H			; `string'
CONST	ENDS
;	COMDAT ??_C@_0BO@KBDDBILP@glDrawRangeElementsBaseVertex@
CONST	SEGMENT
??_C@_0BO@KBDDBILP@glDrawRangeElementsBaseVertex@ DB 'glDrawRangeElements'
	DB	'BaseVertex', 00H				; `string'
CONST	ENDS
;	COMDAT ??_C@_0BJ@LFMMIAHA@glDrawElementsBaseVertex@
CONST	SEGMENT
??_C@_0BJ@LFMMIAHA@glDrawElementsBaseVertex@ DB 'glDrawElementsBaseVertex'
	DB	00H						; `string'
CONST	ENDS
;	COMDAT ??_C@_0BG@BOLEKKCP@glUniformBlockBinding@
CONST	SEGMENT
??_C@_0BG@BOLEKKCP@glUniformBlockBinding@ DB 'glUniformBlockBinding', 00H ; `string'
CONST	ENDS
;	COMDAT ??_C@_0BM@KEMCJPAJ@glGetActiveUniformBlockName@
CONST	SEGMENT
??_C@_0BM@KEMCJPAJ@glGetActiveUniformBlockName@ DB 'glGetActiveUniformBlo'
	DB	'ckName', 00H				; `string'
CONST	ENDS
;	COMDAT ??_C@_0BK@DMHOPJGL@glGetActiveUniformBlockiv@
CONST	SEGMENT
??_C@_0BK@DMHOPJGL@glGetActiveUniformBlockiv@ DB 'glGetActiveUniformBlock'
	DB	'iv', 00H					; `string'
CONST	ENDS
;	COMDAT ??_C@_0BH@CBDIMHHE@glGetUniformBlockIndex@
CONST	SEGMENT
??_C@_0BH@CBDIMHHE@glGetUniformBlockIndex@ DB 'glGetUniformBlockIndex', 00H ; `string'
CONST	ENDS
;	COMDAT ??_C@_0BH@EGGFHKJJ@glGetActiveUniformName@
CONST	SEGMENT
??_C@_0BH@EGGFHKJJ@glGetActiveUniformName@ DB 'glGetActiveUniformName', 00H ; `string'
CONST	ENDS
;	COMDAT ??_C@_0BG@JEHIMPCG@glGetActiveUniformsiv@
CONST	SEGMENT
??_C@_0BG@JEHIMPCG@glGetActiveUniformsiv@ DB 'glGetActiveUniformsiv', 00H ; `string'
CONST	ENDS
;	COMDAT ??_C@_0BE@MDPMIDEE@glGetUniformIndices@
CONST	SEGMENT
??_C@_0BE@MDPMIDEE@glGetUniformIndices@ DB 'glGetUniformIndices', 00H ; `string'
CONST	ENDS
;	COMDAT ??_C@_0BE@EPKABDOG@glCopyBufferSubData@
CONST	SEGMENT
??_C@_0BE@EPKABDOG@glCopyBufferSubData@ DB 'glCopyBufferSubData', 00H ; `string'
CONST	ENDS
;	COMDAT ??_C@_0BI@LJDLNGAF@glPrimitiveRestartIndex@
CONST	SEGMENT
??_C@_0BI@LJDLNGAF@glPrimitiveRestartIndex@ DB 'glPrimitiveRestartIndex', 00H ; `string'
CONST	ENDS
;	COMDAT ??_C@_0M@IIMBBALL@glTexBuffer@
CONST	SEGMENT
??_C@_0M@IIMBBALL@glTexBuffer@ DB 'glTexBuffer', 00H	; `string'
CONST	ENDS
;	COMDAT ??_C@_0BI@CGJENFBH@glDrawElementsInstanced@
CONST	SEGMENT
??_C@_0BI@CGJENFBH@glDrawElementsInstanced@ DB 'glDrawElementsInstanced', 00H ; `string'
CONST	ENDS
;	COMDAT ??_C@_0BG@HIOFINAN@glDrawArraysInstanced@
CONST	SEGMENT
??_C@_0BG@HIOFINAN@glDrawArraysInstanced@ DB 'glDrawArraysInstanced', 00H ; `string'
CONST	ENDS
;	COMDAT ??_C@_0BA@ODJEGGAE@glIsVertexArray@
CONST	SEGMENT
??_C@_0BA@ODJEGGAE@glIsVertexArray@ DB 'glIsVertexArray', 00H ; `string'
CONST	ENDS
;	COMDAT ??_C@_0BC@EPJLBJBJ@glGenVertexArrays@
CONST	SEGMENT
??_C@_0BC@EPJLBJBJ@glGenVertexArrays@ DB 'glGenVertexArrays', 00H ; `string'
CONST	ENDS
;	COMDAT ??_C@_0BF@BMPCJLEF@glDeleteVertexArrays@
CONST	SEGMENT
??_C@_0BF@BMPCJLEF@glDeleteVertexArrays@ DB 'glDeleteVertexArrays', 00H ; `string'
CONST	ENDS
;	COMDAT ??_C@_0BC@LHBAHFAN@glBindVertexArray@
CONST	SEGMENT
??_C@_0BC@LHBAHFAN@glBindVertexArray@ DB 'glBindVertexArray', 00H ; `string'
CONST	ENDS
;	COMDAT ??_C@_0BJ@NCDMGHKF@glFlushMappedBufferRange@
CONST	SEGMENT
??_C@_0BJ@NCDMGHKF@glFlushMappedBufferRange@ DB 'glFlushMappedBufferRange'
	DB	00H						; `string'
CONST	ENDS
;	COMDAT ??_C@_0BB@EOHJGBIO@glMapBufferRange@
CONST	SEGMENT
??_C@_0BB@EOHJGBIO@glMapBufferRange@ DB 'glMapBufferRange', 00H ; `string'
CONST	ENDS
;	COMDAT ??_C@_0BK@NIHIDBBO@glFramebufferTextureLayer@
CONST	SEGMENT
??_C@_0BK@NIHIDBBO@glFramebufferTextureLayer@ DB 'glFramebufferTextureLay'
	DB	'er', 00H					; `string'
CONST	ENDS
;	COMDAT ??_C@_0CB@HNONLGJE@glRenderbufferStorageMultisampl@
CONST	SEGMENT
??_C@_0CB@HNONLGJE@glRenderbufferStorageMultisampl@ DB 'glRenderbufferSto'
	DB	'rageMultisample', 00H			; `string'
CONST	ENDS
;	COMDAT ??_C@_0BC@OANBDDEP@glBlitFramebuffer@
CONST	SEGMENT
??_C@_0BC@OANBDDEP@glBlitFramebuffer@ DB 'glBlitFramebuffer', 00H ; `string'
CONST	ENDS
;	COMDAT ??_C@_0BB@BHNIMGDM@glGenerateMipmap@
CONST	SEGMENT
??_C@_0BB@BHNIMGDM@glGenerateMipmap@ DB 'glGenerateMipmap', 00H ; `string'
CONST	ENDS
;	COMDAT ??_C@_0CG@KLDGJEON@glGetFramebufferAttachmentParam@
CONST	SEGMENT
??_C@_0CG@KLDGJEON@glGetFramebufferAttachmentParam@ DB 'glGetFramebufferA'
	DB	'ttachmentParameteriv', 00H			; `string'
CONST	ENDS
;	COMDAT ??_C@_0BK@OJDINAOA@glFramebufferRenderbuffer@
CONST	SEGMENT
??_C@_0BK@OJDINAOA@glFramebufferRenderbuffer@ DB 'glFramebufferRenderbuff'
	DB	'er', 00H					; `string'
CONST	ENDS
;	COMDAT ??_C@_0BH@JDEHAJHC@glFramebufferTexture3D@
CONST	SEGMENT
??_C@_0BH@JDEHAJHC@glFramebufferTexture3D@ DB 'glFramebufferTexture3D', 00H ; `string'
CONST	ENDS
;	COMDAT ??_C@_0BH@JCIFGDEF@glFramebufferTexture2D@
CONST	SEGMENT
??_C@_0BH@JCIFGDEF@glFramebufferTexture2D@ DB 'glFramebufferTexture2D', 00H ; `string'
CONST	ENDS
;	COMDAT ??_C@_0BH@JAMDNNBM@glFramebufferTexture1D@
CONST	SEGMENT
??_C@_0BH@JAMDNNBM@glFramebufferTexture1D@ DB 'glFramebufferTexture1D', 00H ; `string'
CONST	ENDS
;	COMDAT ??_C@_0BJ@GIOLHEAD@glCheckFramebufferStatus@
CONST	SEGMENT
??_C@_0BJ@GIOLHEAD@glCheckFramebufferStatus@ DB 'glCheckFramebufferStatus'
	DB	00H						; `string'
CONST	ENDS
;	COMDAT ??_C@_0BC@FAPEBGID@glGenFramebuffers@
CONST	SEGMENT
??_C@_0BC@FAPEBGID@glGenFramebuffers@ DB 'glGenFramebuffers', 00H ; `string'
CONST	ENDS
;	COMDAT ??_C@_0BF@DJNJENP@glDeleteFramebuffers@
CONST	SEGMENT
??_C@_0BF@DJNJENP@glDeleteFramebuffers@ DB 'glDeleteFramebuffers', 00H ; `string'
CONST	ENDS
;	COMDAT ??_C@_0BC@CJMIBNO@glBindFramebuffer@
CONST	SEGMENT
??_C@_0BC@CJMIBNO@glBindFramebuffer@ DB 'glBindFramebuffer', 00H ; `string'
CONST	ENDS
;	COMDAT ??_C@_0BA@FGBIJCNH@glIsFramebuffer@
CONST	SEGMENT
??_C@_0BA@FGBIJCNH@glIsFramebuffer@ DB 'glIsFramebuffer', 00H ; `string'
CONST	ENDS
;	COMDAT ??_C@_0BN@FGKAECKO@glGetRenderbufferParameteriv@
CONST	SEGMENT
??_C@_0BN@FGKAECKO@glGetRenderbufferParameteriv@ DB 'glGetRenderbufferPar'
	DB	'ameteriv', 00H				; `string'
CONST	ENDS
;	COMDAT ??_C@_0BG@EOIILGMJ@glRenderbufferStorage@
CONST	SEGMENT
??_C@_0BG@EOIILGMJ@glRenderbufferStorage@ DB 'glRenderbufferStorage', 00H ; `string'
CONST	ENDS
;	COMDAT ??_C@_0BD@MIGEDNGJ@glGenRenderbuffers@
CONST	SEGMENT
??_C@_0BD@MIGEDNGJ@glGenRenderbuffers@ DB 'glGenRenderbuffers', 00H ; `string'
CONST	ENDS
;	COMDAT ??_C@_0BG@KKOKEJDE@glDeleteRenderbuffers@
CONST	SEGMENT
??_C@_0BG@KKOKEJDE@glDeleteRenderbuffers@ DB 'glDeleteRenderbuffers', 00H ; `string'
CONST	ENDS
;	COMDAT ??_C@_0BD@EPOPJGFA@glBindRenderbuffer@
CONST	SEGMENT
??_C@_0BD@EPOPJGFA@glBindRenderbuffer@ DB 'glBindRenderbuffer', 00H ; `string'
CONST	ENDS
;	COMDAT ??_C@_0BB@DGGHKKOH@glIsRenderbuffer@
CONST	SEGMENT
??_C@_0BB@DGGHKKOH@glIsRenderbuffer@ DB 'glIsRenderbuffer', 00H ; `string'
CONST	ENDS
;	COMDAT ??_C@_0N@PILJCBOD@glGetStringi@
CONST	SEGMENT
??_C@_0N@PILJCBOD@glGetStringi@ DB 'glGetStringi', 00H	; `string'
CONST	ENDS
;	COMDAT ??_C@_0BA@OACPENCO@glClearBufferfi@
CONST	SEGMENT
??_C@_0BA@OACPENCO@glClearBufferfi@ DB 'glClearBufferfi', 00H ; `string'
CONST	ENDS
;	COMDAT ??_C@_0BA@CNHFEDLA@glClearBufferfv@
CONST	SEGMENT
??_C@_0BA@CNHFEDLA@glClearBufferfv@ DB 'glClearBufferfv', 00H ; `string'
CONST	ENDS
;	COMDAT ??_C@_0BB@OHPPAEID@glClearBufferuiv@
CONST	SEGMENT
??_C@_0BB@OHPPAEID@glClearBufferuiv@ DB 'glClearBufferuiv', 00H ; `string'
CONST	ENDS
;	COMDAT ??_C@_0BA@CGCJAEIN@glClearBufferiv@
CONST	SEGMENT
??_C@_0BA@CGCJAEIN@glClearBufferiv@ DB 'glClearBufferiv', 00H ; `string'
CONST	ENDS
;	COMDAT ??_C@_0BG@MLODKKFL@glGetTexParameterIuiv@
CONST	SEGMENT
??_C@_0BG@MLODKKFL@glGetTexParameterIuiv@ DB 'glGetTexParameterIuiv', 00H ; `string'
CONST	ENDS
;	COMDAT ??_C@_0BF@ODBJFHDD@glGetTexParameterIiv@
CONST	SEGMENT
??_C@_0BF@ODBJFHDD@glGetTexParameterIiv@ DB 'glGetTexParameterIiv', 00H ; `string'
CONST	ENDS
;	COMDAT ??_C@_0BD@FDBCMKBE@glTexParameterIuiv@
CONST	SEGMENT
??_C@_0BD@FDBCMKBE@glTexParameterIuiv@ DB 'glTexParameterIuiv', 00H ; `string'
CONST	ENDS
;	COMDAT ??_C@_0BC@MAFJKEHB@glTexParameterIiv@
CONST	SEGMENT
??_C@_0BC@MAFJKEHB@glTexParameterIiv@ DB 'glTexParameterIiv', 00H ; `string'
CONST	ENDS
;	COMDAT ??_C@_0O@HJJIIGE@glUniform4uiv@
CONST	SEGMENT
??_C@_0O@HJJIIGE@glUniform4uiv@ DB 'glUniform4uiv', 00H	; `string'
CONST	ENDS
;	COMDAT ??_C@_0O@LFLJFEHE@glUniform3uiv@
CONST	SEGMENT
??_C@_0O@LFLJFEHE@glUniform3uiv@ DB 'glUniform3uiv', 00H ; `string'
CONST	ENDS
;	COMDAT ??_C@_0O@IINJHNME@glUniform2uiv@
CONST	SEGMENT
??_C@_0O@IINJHNME@glUniform2uiv@ DB 'glUniform2uiv', 00H ; `string'
CONST	ENDS
;	COMDAT ??_C@_0O@MPHJAHBE@glUniform1uiv@
CONST	SEGMENT
??_C@_0O@MPHJAHBE@glUniform1uiv@ DB 'glUniform1uiv', 00H ; `string'
CONST	ENDS
;	COMDAT ??_C@_0N@ENCKKJAN@glUniform4ui@
CONST	SEGMENT
??_C@_0N@ENCKKJAN@glUniform4ui@ DB 'glUniform4ui', 00H	; `string'
CONST	ENDS
;	COMDAT ??_C@_0N@NAPNJBLE@glUniform3ui@
CONST	SEGMENT
??_C@_0N@NAPNJBLE@glUniform3ui@ DB 'glUniform3ui', 00H	; `string'
CONST	ENDS
;	COMDAT ??_C@_0N@GIEBPGNB@glUniform2ui@
CONST	SEGMENT
??_C@_0N@GIEBPGNB@glUniform2ui@ DB 'glUniform2ui', 00H	; `string'
CONST	ENDS
;	COMDAT ??_C@_0N@HKPEFJDP@glUniform1ui@
CONST	SEGMENT
??_C@_0N@HKPEFJDP@glUniform1ui@ DB 'glUniform1ui', 00H	; `string'
CONST	ENDS
;	COMDAT ??_C@_0BG@NDOIGAMC@glGetFragDataLocation@
CONST	SEGMENT
??_C@_0BG@NDOIGAMC@glGetFragDataLocation@ DB 'glGetFragDataLocation', 00H ; `string'
CONST	ENDS
;	COMDAT ??_C@_0BH@DLJLAGBA@glBindFragDataLocation@
CONST	SEGMENT
??_C@_0BH@DLJLAGBA@glBindFragDataLocation@ DB 'glBindFragDataLocation', 00H ; `string'
CONST	ENDS
;	COMDAT ??_C@_0BA@NIGECFIF@glGetUniformuiv@
CONST	SEGMENT
??_C@_0BA@NIGECFIF@glGetUniformuiv@ DB 'glGetUniformuiv', 00H ; `string'
CONST	ENDS
;	COMDAT ??_C@_0BE@IMNLBLPG@glVertexAttribI4usv@
CONST	SEGMENT
??_C@_0BE@IMNLBLPG@glVertexAttribI4usv@ DB 'glVertexAttribI4usv', 00H ; `string'
CONST	ENDS
;	COMDAT ??_C@_0BE@JBDPNCLB@glVertexAttribI4ubv@
CONST	SEGMENT
??_C@_0BE@JBDPNCLB@glVertexAttribI4ubv@ DB 'glVertexAttribI4ubv', 00H ; `string'
CONST	ENDS
;	COMDAT ??_C@_0BD@MIPLFJKA@glVertexAttribI4sv@
CONST	SEGMENT
??_C@_0BD@MIPLFJKA@glVertexAttribI4sv@ DB 'glVertexAttribI4sv', 00H ; `string'
CONST	ENDS
;	COMDAT ??_C@_0BD@NFBPJAOH@glVertexAttribI4bv@
CONST	SEGMENT
??_C@_0BD@NFBPJAOH@glVertexAttribI4bv@ DB 'glVertexAttribI4bv', 00H ; `string'
CONST	ENDS
;	COMDAT ??_C@_0BE@JNGKDNFA@glVertexAttribI4uiv@
CONST	SEGMENT
??_C@_0BE@JNGKDNFA@glVertexAttribI4uiv@ DB 'glVertexAttribI4uiv', 00H ; `string'
CONST	ENDS
;	COMDAT ??_C@_0BE@CPEKOBEA@glVertexAttribI3uiv@
CONST	SEGMENT
??_C@_0BE@CPEKOBEA@glVertexAttribI3uiv@ DB 'glVertexAttribI3uiv', 00H ; `string'
CONST	ENDS
;	COMDAT ??_C@_0BE@BCCKMIPA@glVertexAttribI2uiv@
CONST	SEGMENT
??_C@_0BE@BCCKMIPA@glVertexAttribI2uiv@ DB 'glVertexAttribI2uiv', 00H ; `string'
CONST	ENDS
;	COMDAT ??_C@_0BE@FFIKLCCA@glVertexAttribI1uiv@
CONST	SEGMENT
??_C@_0BE@FFIKLCCA@glVertexAttribI1uiv@ DB 'glVertexAttribI1uiv', 00H ; `string'
CONST	ENDS
;	COMDAT ??_C@_0BD@NJEKHPAG@glVertexAttribI4iv@
CONST	SEGMENT
??_C@_0BD@NJEKHPAG@glVertexAttribI4iv@ DB 'glVertexAttribI4iv', 00H ; `string'
CONST	ENDS
;	COMDAT ??_C@_0BD@EEJNEHLP@glVertexAttribI3iv@
CONST	SEGMENT
??_C@_0BD@EEJNEHLP@glVertexAttribI3iv@ DB 'glVertexAttribI3iv', 00H ; `string'
CONST	ENDS
;	COMDAT ??_C@_0BD@PMCBCANK@glVertexAttribI2iv@
CONST	SEGMENT
??_C@_0BD@PMCBCANK@glVertexAttribI2iv@ DB 'glVertexAttribI2iv', 00H ; `string'
CONST	ENDS
;	COMDAT ??_C@_0BD@OOJEIPDE@glVertexAttribI1iv@
CONST	SEGMENT
??_C@_0BD@OOJEIPDE@glVertexAttribI1iv@ DB 'glVertexAttribI1iv', 00H ; `string'
CONST	ENDS
;	COMDAT ??_C@_0BD@BCMCLIM@glVertexAttribI4ui@
CONST	SEGMENT
??_C@_0BD@BCMCLIM@glVertexAttribI4ui@ DB 'glVertexAttribI4ui', 00H ; `string'
CONST	ENDS
;	COMDAT ??_C@_0BD@JMPLBDDF@glVertexAttribI3ui@
CONST	SEGMENT
??_C@_0BD@JMPLBDDF@glVertexAttribI3ui@ DB 'glVertexAttribI3ui', 00H ; `string'
CONST	ENDS
;	COMDAT ??_C@_0BD@CEEHHEFA@glVertexAttribI2ui@
CONST	SEGMENT
??_C@_0BD@CEEHHEFA@glVertexAttribI2ui@ DB 'glVertexAttribI2ui', 00H ; `string'
CONST	ENDS
;	COMDAT ??_C@_0BD@DGPCNLLO@glVertexAttribI1ui@
CONST	SEGMENT
??_C@_0BD@DGPCNLLO@glVertexAttribI1ui@ DB 'glVertexAttribI1ui', 00H ; `string'
CONST	ENDS
;	COMDAT ??_C@_0BC@CFEDAOOA@glVertexAttribI4i@
CONST	SEGMENT
??_C@_0BC@CFEDAOOA@glVertexAttribI4i@ DB 'glVertexAttribI4i', 00H ; `string'
CONST	ENDS
;	COMDAT ??_C@_0BC@CAAMBIGF@glVertexAttribI3i@
CONST	SEGMENT
??_C@_0BC@CAAMBIGF@glVertexAttribI3i@ DB 'glVertexAttribI3i', 00H ; `string'
CONST	ENDS
;	COMDAT ??_C@_0BC@CBMOHCFC@glVertexAttribI2i@
CONST	SEGMENT
??_C@_0BC@CBMOHCFC@glVertexAttribI2i@ DB 'glVertexAttribI2i', 00H ; `string'
CONST	ENDS
;	COMDAT ??_C@_0BC@CDIIMMAL@glVertexAttribI1i@
CONST	SEGMENT
??_C@_0BC@CDIIMMAL@glVertexAttribI1i@ DB 'glVertexAttribI1i', 00H ; `string'
CONST	ENDS
;	COMDAT ??_C@_0BG@GCBDCABB@glGetVertexAttribIuiv@
CONST	SEGMENT
??_C@_0BG@GCBDCABB@glGetVertexAttribIuiv@ DB 'glGetVertexAttribIuiv', 00H ; `string'
CONST	ENDS
;	COMDAT ??_C@_0BF@KPDNEONP@glGetVertexAttribIiv@
CONST	SEGMENT
??_C@_0BF@KPDNEONP@glGetVertexAttribIiv@ DB 'glGetVertexAttribIiv', 00H ; `string'
CONST	ENDS
;	COMDAT ??_C@_0BH@NLOEHKCD@glVertexAttribIPointer@
CONST	SEGMENT
??_C@_0BH@NLOEHKCD@glVertexAttribIPointer@ DB 'glVertexAttribIPointer', 00H ; `string'
CONST	ENDS
;	COMDAT ??_C@_0BH@KCIOLNMA@glEndConditionalRender@
CONST	SEGMENT
??_C@_0BH@KCIOLNMA@glEndConditionalRender@ DB 'glEndConditionalRender', 00H ; `string'
CONST	ENDS
;	COMDAT ??_C@_0BJ@EHEPIEPF@glBeginConditionalRender@
CONST	SEGMENT
??_C@_0BJ@EHEPIEPF@glBeginConditionalRender@ DB 'glBeginConditionalRender'
	DB	00H						; `string'
CONST	ENDS
;	COMDAT ??_C@_0N@HLGAGIMI@glClampColor@
CONST	SEGMENT
??_C@_0N@HLGAGIMI@glClampColor@ DB 'glClampColor', 00H	; `string'
CONST	ENDS
;	COMDAT ??_C@_0BO@ODFLPNG@glGetTransformFeedbackVarying@
CONST	SEGMENT
??_C@_0BO@ODFLPNG@glGetTransformFeedbackVarying@ DB 'glGetTransformFeedba'
	DB	'ckVarying', 00H				; `string'
CONST	ENDS
;	COMDAT ??_C@_0BM@IJFAKBEF@glTransformFeedbackVaryings@
CONST	SEGMENT
??_C@_0BM@IJFAKBEF@glTransformFeedbackVaryings@ DB 'glTransformFeedbackVa'
	DB	'ryings', 00H				; `string'
CONST	ENDS
;	COMDAT ??_C@_0BB@LDPKOCJI@glBindBufferBase@
CONST	SEGMENT
??_C@_0BB@LDPKOCJI@glBindBufferBase@ DB 'glBindBufferBase', 00H ; `string'
CONST	ENDS
;	COMDAT ??_C@_0BC@EEMMCHMB@glBindBufferRange@
CONST	SEGMENT
??_C@_0BC@EEMMCHMB@glBindBufferRange@ DB 'glBindBufferRange', 00H ; `string'
CONST	ENDS
;	COMDAT ??_C@_0BH@LCFLNNBH@glEndTransformFeedback@
CONST	SEGMENT
??_C@_0BH@LCFLNNBH@glEndTransformFeedback@ DB 'glEndTransformFeedback', 00H ; `string'
CONST	ENDS
;	COMDAT ??_C@_0BJ@FHJKOECC@glBeginTransformFeedback@
CONST	SEGMENT
??_C@_0BJ@FHJKOECC@glBeginTransformFeedback@ DB 'glBeginTransformFeedback'
	DB	00H						; `string'
CONST	ENDS
;	COMDAT ??_C@_0N@IMGKGOKN@glIsEnabledi@
CONST	SEGMENT
??_C@_0N@IMGKGOKN@glIsEnabledi@ DB 'glIsEnabledi', 00H	; `string'
CONST	ENDS
;	COMDAT ??_C@_0L@BMJPGDDH@glDisablei@
CONST	SEGMENT
??_C@_0L@BMJPGDDH@glDisablei@ DB 'glDisablei', 00H	; `string'
CONST	ENDS
;	COMDAT ??_C@_09IEGEGIEN@glEnablei@
CONST	SEGMENT
??_C@_09IEGEGIEN@glEnablei@ DB 'glEnablei', 00H		; `string'
CONST	ENDS
;	COMDAT ??_C@_0BA@FKCNNMFO@glGetIntegeri_v@
CONST	SEGMENT
??_C@_0BA@FKCNNMFO@glGetIntegeri_v@ DB 'glGetIntegeri_v', 00H ; `string'
CONST	ENDS
;	COMDAT ??_C@_0BA@OAKNOBP@glGetBooleani_v@
CONST	SEGMENT
??_C@_0BA@OAKNOBP@glGetBooleani_v@ DB 'glGetBooleani_v', 00H ; `string'
CONST	ENDS
;	COMDAT ??_C@_0N@JHNNNJFG@glColorMaski@
CONST	SEGMENT
??_C@_0N@JHNNNJFG@glColorMaski@ DB 'glColorMaski', 00H	; `string'
CONST	ENDS
;	COMDAT ??_C@_0BF@HFGACBCH@glUniformMatrix4x3fv@
CONST	SEGMENT
??_C@_0BF@HFGACBCH@glUniformMatrix4x3fv@ DB 'glUniformMatrix4x3fv', 00H ; `string'
CONST	ENDS
;	COMDAT ??_C@_0BF@PFLCCJCG@glUniformMatrix3x4fv@
CONST	SEGMENT
??_C@_0BF@PFLCCJCG@glUniformMatrix3x4fv@ DB 'glUniformMatrix3x4fv', 00H ; `string'
CONST	ENDS
;	COMDAT ??_C@_0BF@MNNMEGEC@glUniformMatrix4x2fv@
CONST	SEGMENT
??_C@_0BF@MNNMEGEC@glUniformMatrix4x2fv@ DB 'glUniformMatrix4x2fv', 00H ; `string'
CONST	ENDS
;	COMDAT ??_C@_0BF@DOOOPKID@glUniformMatrix2x4fv@
CONST	SEGMENT
??_C@_0BF@DOOOPKID@glUniformMatrix2x4fv@ DB 'glUniformMatrix2x4fv', 00H ; `string'
CONST	ENDS
;	COMDAT ??_C@_0BF@NANJHGPK@glUniformMatrix3x2fv@
CONST	SEGMENT
??_C@_0BF@NANJHGPK@glUniformMatrix3x2fv@ DB 'glUniformMatrix3x2fv', 00H ; `string'
CONST	ENDS
;	COMDAT ??_C@_0BF@KDDJMCDK@glUniformMatrix2x3fv@
CONST	SEGMENT
??_C@_0BF@KDDJMCDK@glUniformMatrix2x3fv@ DB 'glUniformMatrix2x3fv', 00H ; `string'
CONST	ENDS
;	COMDAT ??_C@_0BG@JPNNNPKG@glVertexAttribPointer@
CONST	SEGMENT
??_C@_0BG@JPNNNPKG@glVertexAttribPointer@ DB 'glVertexAttribPointer', 00H ; `string'
CONST	ENDS
;	COMDAT ??_C@_0BD@OKBBECIG@glVertexAttrib4usv@
CONST	SEGMENT
??_C@_0BD@OKBBECIG@glVertexAttrib4usv@ DB 'glVertexAttrib4usv', 00H ; `string'
CONST	ENDS
;	COMDAT ??_C@_0BD@PLKAGECA@glVertexAttrib4uiv@
CONST	SEGMENT
??_C@_0BD@PLKAGECA@glVertexAttrib4uiv@ DB 'glVertexAttrib4uiv', 00H ; `string'
CONST	ENDS
;	COMDAT ??_C@_0BD@PHPFILMB@glVertexAttrib4ubv@
CONST	SEGMENT
??_C@_0BD@PHPFILMB@glVertexAttrib4ubv@ DB 'glVertexAttrib4ubv', 00H ; `string'
CONST	ENDS
;	COMDAT ??_C@_0BC@EJJODHK@glVertexAttrib4sv@
CONST	SEGMENT
??_C@_0BC@EJJODHK@glVertexAttrib4sv@ DB 'glVertexAttrib4sv', 00H ; `string'
CONST	ENDS
;	COMDAT ??_C@_0BB@PLKDLLIP@glVertexAttrib4s@
CONST	SEGMENT
??_C@_0BB@PLKDLLIP@glVertexAttrib4s@ DB 'glVertexAttrib4s', 00H ; `string'
CONST	ENDS
;	COMDAT ??_C@_0BC@BFCIMFNM@glVertexAttrib4iv@
CONST	SEGMENT
??_C@_0BC@BFCIMFNM@glVertexAttrib4iv@ DB 'glVertexAttrib4iv', 00H ; `string'
CONST	ENDS
;	COMDAT ??_C@_0BC@BOHEICOB@glVertexAttrib4fv@
CONST	SEGMENT
??_C@_0BC@BOHEICOB@glVertexAttrib4fv@ DB 'glVertexAttrib4fv', 00H ; `string'
CONST	ENDS
;	COMDAT ??_C@_0BB@MMBGFNJL@glVertexAttrib4f@
CONST	SEGMENT
??_C@_0BB@MMBGFNJL@glVertexAttrib4f@ DB 'glVertexAttrib4f', 00H ; `string'
CONST	ENDS
;	COMDAT ??_C@_0BC@BNPAFGIP@glVertexAttrib4dv@
CONST	SEGMENT
??_C@_0BC@BNPAFGIP@glVertexAttrib4dv@ DB 'glVertexAttrib4dv', 00H ; `string'
CONST	ENDS
;	COMDAT ??_C@_0BB@POCADPBJ@glVertexAttrib4d@
CONST	SEGMENT
??_C@_0BB@POCADPBJ@glVertexAttrib4d@ DB 'glVertexAttrib4d', 00H ; `string'
CONST	ENDS
;	COMDAT ??_C@_0BC@BJHNCKDN@glVertexAttrib4bv@
CONST	SEGMENT
??_C@_0BC@BJHNCKDN@glVertexAttrib4bv@ DB 'glVertexAttrib4bv', 00H ; `string'
CONST	ENDS
;	COMDAT ??_C@_0BE@IIAFPNIH@glVertexAttrib4Nusv@
CONST	SEGMENT
??_C@_0BE@IIAFPNIH@glVertexAttrib4Nusv@ DB 'glVertexAttrib4Nusv', 00H ; `string'
CONST	ENDS
;	COMDAT ??_C@_0BE@JJLENLCB@glVertexAttrib4Nuiv@
CONST	SEGMENT
??_C@_0BE@JJLENLCB@glVertexAttrib4Nuiv@ DB 'glVertexAttrib4Nuiv', 00H ; `string'
CONST	ENDS
;	COMDAT ??_C@_0BE@JFOBDEMA@glVertexAttrib4Nubv@
CONST	SEGMENT
??_C@_0BE@JFOBDEMA@glVertexAttrib4Nubv@ DB 'glVertexAttrib4Nubv', 00H ; `string'
CONST	ENDS
;	COMDAT ??_C@_0BD@OHBIJGMB@glVertexAttrib4Nub@
CONST	SEGMENT
??_C@_0BD@OHBIJGMB@glVertexAttrib4Nub@ DB 'glVertexAttrib4Nub', 00H ; `string'
CONST	ENDS
;	COMDAT ??_C@_0BD@MNDLDNCG@glVertexAttrib4Nsv@
CONST	SEGMENT
??_C@_0BD@MNDLDNCG@glVertexAttrib4Nsv@ DB 'glVertexAttrib4Nsv', 00H ; `string'
CONST	ENDS
;	COMDAT ??_C@_0BD@NMIKBLIA@glVertexAttrib4Niv@
CONST	SEGMENT
??_C@_0BD@NMIKBLIA@glVertexAttrib4Niv@ DB 'glVertexAttrib4Niv', 00H ; `string'
CONST	ENDS
;	COMDAT ??_C@_0BD@NANPPEGB@glVertexAttrib4Nbv@
CONST	SEGMENT
??_C@_0BD@NANPPEGB@glVertexAttrib4Nbv@ DB 'glVertexAttrib4Nbv', 00H ; `string'
CONST	ENDS
;	COMDAT ??_C@_0BC@JJEONLMD@glVertexAttrib3sv@
CONST	SEGMENT
??_C@_0BC@JJEONLMD@glVertexAttrib3sv@ DB 'glVertexAttrib3sv', 00H ; `string'
CONST	ENDS
;	COMDAT ??_C@_0BB@POOMKNAK@glVertexAttrib3s@
CONST	SEGMENT
??_C@_0BB@POOMKNAK@glVertexAttrib3s@ DB 'glVertexAttrib3s', 00H ; `string'
CONST	ENDS
;	COMDAT ??_C@_0BC@IDKDLKFI@glVertexAttrib3fv@
CONST	SEGMENT
??_C@_0BC@IDKDLKFI@glVertexAttrib3fv@ DB 'glVertexAttrib3fv', 00H ; `string'
CONST	ENDS
;	COMDAT ??_C@_0BB@MJFJELBO@glVertexAttrib3f@
CONST	SEGMENT
??_C@_0BB@MJFJELBO@glVertexAttrib3f@ DB 'glVertexAttrib3f', 00H ; `string'
CONST	ENDS
;	COMDAT ??_C@_0BC@IACHGODG@glVertexAttrib3dv@
CONST	SEGMENT
??_C@_0BC@IACHGODG@glVertexAttrib3dv@ DB 'glVertexAttrib3dv', 00H ; `string'
CONST	ENDS
;	COMDAT ??_C@_0BB@PLGPCJJM@glVertexAttrib3d@
CONST	SEGMENT
??_C@_0BB@PLGPCJJM@glVertexAttrib3d@ DB 'glVertexAttrib3d', 00H ; `string'
CONST	ENDS
;	COMDAT ??_C@_0BC@CBPCLMKG@glVertexAttrib2sv@
CONST	SEGMENT
??_C@_0BC@CBPCLMKG@glVertexAttrib2sv@ DB 'glVertexAttrib2sv', 00H ; `string'
CONST	ENDS
;	COMDAT ??_C@_0BB@PPCOMHDN@glVertexAttrib2s@
CONST	SEGMENT
??_C@_0BB@PPCOMHDN@glVertexAttrib2s@ DB 'glVertexAttrib2s', 00H ; `string'
CONST	ENDS
;	COMDAT ??_C@_0BC@DLBPNNDN@glVertexAttrib2fv@
CONST	SEGMENT
??_C@_0BC@DLBPNNDN@glVertexAttrib2fv@ DB 'glVertexAttrib2fv', 00H ; `string'
CONST	ENDS
;	COMDAT ??_C@_0BB@MIJLCBCJ@glVertexAttrib2f@
CONST	SEGMENT
??_C@_0BB@MIJLCBCJ@glVertexAttrib2f@ DB 'glVertexAttrib2f', 00H ; `string'
CONST	ENDS
;	COMDAT ??_C@_0BC@DIJLAJFD@glVertexAttrib2dv@
CONST	SEGMENT
??_C@_0BC@DIJLAJFD@glVertexAttrib2dv@ DB 'glVertexAttrib2dv', 00H ; `string'
CONST	ENDS
;	COMDAT ??_C@_0BB@PKKNEDKL@glVertexAttrib2d@
CONST	SEGMENT
??_C@_0BB@PKKNEDKL@glVertexAttrib2d@ DB 'glVertexAttrib2d', 00H ; `string'
CONST	ENDS
;	COMDAT ??_C@_0BC@DDEHBDEI@glVertexAttrib1sv@
CONST	SEGMENT
??_C@_0BC@DDEHBDEI@glVertexAttrib1sv@ DB 'glVertexAttrib1sv', 00H ; `string'
CONST	ENDS
;	COMDAT ??_C@_0BB@PNGIHJGE@glVertexAttrib1s@
CONST	SEGMENT
??_C@_0BB@PNGIHJGE@glVertexAttrib1s@ DB 'glVertexAttrib1s', 00H ; `string'
CONST	ENDS
;	COMDAT ??_C@_0BC@CJKKHCND@glVertexAttrib1fv@
CONST	SEGMENT
??_C@_0BC@CJKKHCND@glVertexAttrib1fv@ DB 'glVertexAttrib1fv', 00H ; `string'
CONST	ENDS
;	COMDAT ??_C@_0BB@MKNNJPHA@glVertexAttrib1f@
CONST	SEGMENT
??_C@_0BB@MKNNJPHA@glVertexAttrib1f@ DB 'glVertexAttrib1f', 00H ; `string'
CONST	ENDS
;	COMDAT ??_C@_0BC@CKCOKGLN@glVertexAttrib1dv@
CONST	SEGMENT
??_C@_0BC@CKCOKGLN@glVertexAttrib1dv@ DB 'glVertexAttrib1dv', 00H ; `string'
CONST	ENDS
;	COMDAT ??_C@_0BB@PIOLPNPC@glVertexAttrib1d@
CONST	SEGMENT
??_C@_0BB@PIOLPNPC@glVertexAttrib1d@ DB 'glVertexAttrib1d', 00H ; `string'
CONST	ENDS
;	COMDAT ??_C@_0BC@MAPGDLJK@glValidateProgram@
CONST	SEGMENT
??_C@_0BC@MAPGDLJK@glValidateProgram@ DB 'glValidateProgram', 00H ; `string'
CONST	ENDS
;	COMDAT ??_C@_0BD@LNHCBEKP@glUniformMatrix4fv@
CONST	SEGMENT
??_C@_0BD@LNHCBEKP@glUniformMatrix4fv@ DB 'glUniformMatrix4fv', 00H ; `string'
CONST	ENDS
;	COMDAT ??_C@_0BD@CAKFCMBG@glUniformMatrix3fv@
CONST	SEGMENT
??_C@_0BD@CAKFCMBG@glUniformMatrix3fv@ DB 'glUniformMatrix3fv', 00H ; `string'
CONST	ENDS
;	COMDAT ??_C@_0BD@JIBJELHD@glUniformMatrix2fv@
CONST	SEGMENT
??_C@_0BD@JIBJELHD@glUniformMatrix2fv@ DB 'glUniformMatrix2fv', 00H ; `string'
CONST	ENDS
;	COMDAT ??_C@_0N@JFEMPNIH@glUniform4iv@
CONST	SEGMENT
??_C@_0N@JFEMPNIH@glUniform4iv@ DB 'glUniform4iv', 00H	; `string'
CONST	ENDS
;	COMDAT ??_C@_0N@IJLMFDO@glUniform3iv@
CONST	SEGMENT
??_C@_0N@IJLMFDO@glUniform3iv@ DB 'glUniform3iv', 00H	; `string'
CONST	ENDS
;	COMDAT ??_C@_0N@LACHKCFL@glUniform2iv@
CONST	SEGMENT
??_C@_0N@LACHKCFL@glUniform2iv@ DB 'glUniform2iv', 00H	; `string'
CONST	ENDS
;	COMDAT ??_C@_0N@KCJCANLF@glUniform1iv@
CONST	SEGMENT
??_C@_0N@KCJCANLF@glUniform1iv@ DB 'glUniform1iv', 00H	; `string'
CONST	ENDS
;	COMDAT ??_C@_0N@JOBALKLK@glUniform4fv@
CONST	SEGMENT
??_C@_0N@JOBALKLK@glUniform4fv@ DB 'glUniform4fv', 00H	; `string'
CONST	ENDS
;	COMDAT ??_C@_0N@DMHICAD@glUniform3fv@
CONST	SEGMENT
??_C@_0N@DMHICAD@glUniform3fv@ DB 'glUniform3fv', 00H	; `string'
CONST	ENDS
;	COMDAT ??_C@_0N@LLHLOFGG@glUniform2fv@
CONST	SEGMENT
??_C@_0N@LLHLOFGG@glUniform2fv@ DB 'glUniform2fv', 00H	; `string'
CONST	ENDS
;	COMDAT ??_C@_0N@KJMOEKII@glUniform1fv@
CONST	SEGMENT
??_C@_0N@KJMOEKII@glUniform1fv@ DB 'glUniform1fv', 00H	; `string'
CONST	ENDS
;	COMDAT ??_C@_0M@EKNBNBMB@glUniform4i@
CONST	SEGMENT
??_C@_0M@EKNBNBMB@glUniform4i@ DB 'glUniform4i', 00H	; `string'
CONST	ENDS
;	COMDAT ??_C@_0M@EPJOMHEE@glUniform3i@
CONST	SEGMENT
??_C@_0M@EPJOMHEE@glUniform3i@ DB 'glUniform3i', 00H	; `string'
CONST	ENDS
;	COMDAT ??_C@_0M@EOFMKNHD@glUniform2i@
CONST	SEGMENT
??_C@_0M@EOFMKNHD@glUniform2i@ DB 'glUniform2i', 00H	; `string'
CONST	ENDS
;	COMDAT ??_C@_0M@EMBKBDCK@glUniform1i@
CONST	SEGMENT
??_C@_0M@EMBKBDCK@glUniform1i@ DB 'glUniform1i', 00H	; `string'
CONST	ENDS
;	COMDAT ??_C@_0M@MNEJMNAO@glUniform4f@
CONST	SEGMENT
??_C@_0M@MNEJMNAO@glUniform4f@ DB 'glUniform4f', 00H	; `string'
CONST	ENDS
;	COMDAT ??_C@_0M@MIAGNLIL@glUniform3f@
CONST	SEGMENT
??_C@_0M@MIAGNLIL@glUniform3f@ DB 'glUniform3f', 00H	; `string'
CONST	ENDS
;	COMDAT ??_C@_0M@MJMELBLM@glUniform2f@
CONST	SEGMENT
??_C@_0M@MJMELBLM@glUniform2f@ DB 'glUniform2f', 00H	; `string'
CONST	ENDS
;	COMDAT ??_C@_0M@MLICAPOF@glUniform1f@
CONST	SEGMENT
??_C@_0M@MLICAPOF@glUniform1f@ DB 'glUniform1f', 00H	; `string'
CONST	ENDS
;	COMDAT ??_C@_0N@ICBDHBI@glUseProgram@
CONST	SEGMENT
??_C@_0N@ICBDHBI@glUseProgram@ DB 'glUseProgram', 00H	; `string'
CONST	ENDS
;	COMDAT ??_C@_0P@DFHCPFMO@glShaderSource@
CONST	SEGMENT
??_C@_0P@DFHCPFMO@glShaderSource@ DB 'glShaderSource', 00H ; `string'
CONST	ENDS
;	COMDAT ??_C@_0O@PIOEEBPO@glLinkProgram@
CONST	SEGMENT
??_C@_0O@PIOEEBPO@glLinkProgram@ DB 'glLinkProgram', 00H ; `string'
CONST	ENDS
;	COMDAT ??_C@_0L@MDDLFIHC@glIsShader@
CONST	SEGMENT
??_C@_0L@MDDLFIHC@glIsShader@ DB 'glIsShader', 00H	; `string'
CONST	ENDS
;	COMDAT ??_C@_0M@INLOJDGO@glIsProgram@
CONST	SEGMENT
??_C@_0M@INLOJDGO@glIsProgram@ DB 'glIsProgram', 00H	; `string'
CONST	ENDS
;	COMDAT ??_C@_0BK@DOJMENLD@glGetVertexAttribPointerv@
CONST	SEGMENT
??_C@_0BK@DOJMENLD@glGetVertexAttribPointerv@ DB 'glGetVertexAttribPointe'
	DB	'rv', 00H					; `string'
CONST	ENDS
;	COMDAT ??_C@_0BE@HLCEAPNO@glGetVertexAttribiv@
CONST	SEGMENT
??_C@_0BE@HLCEAPNO@glGetVertexAttribiv@ DB 'glGetVertexAttribiv', 00H ; `string'
CONST	ENDS
;	COMDAT ??_C@_0BE@HAHIEIOD@glGetVertexAttribfv@
CONST	SEGMENT
??_C@_0BE@HAHIEIOD@glGetVertexAttribfv@ DB 'glGetVertexAttribfv', 00H ; `string'
CONST	ENDS
;	COMDAT ??_C@_0BE@HDPMJMIN@glGetVertexAttribdv@
CONST	SEGMENT
??_C@_0BE@HDPMJMIN@glGetVertexAttribdv@ DB 'glGetVertexAttribdv', 00H ; `string'
CONST	ENDS
;	COMDAT ??_C@_0P@IAONPCL@glGetUniformiv@
CONST	SEGMENT
??_C@_0P@IAONPCL@glGetUniformiv@ DB 'glGetUniformiv', 00H ; `string'
CONST	ENDS
;	COMDAT ??_C@_0P@DFCJIBG@glGetUniformfv@
CONST	SEGMENT
??_C@_0P@DFCJIBG@glGetUniformfv@ DB 'glGetUniformfv', 00H ; `string'
CONST	ENDS
;	COMDAT ??_C@_0BF@KIOPGICP@glGetUniformLocation@
CONST	SEGMENT
??_C@_0BF@KIOPGICP@glGetUniformLocation@ DB 'glGetUniformLocation', 00H ; `string'
CONST	ENDS
;	COMDAT ??_C@_0BC@ELEIFJEL@glGetShaderSource@
CONST	SEGMENT
??_C@_0BC@ELEIFJEL@glGetShaderSource@ DB 'glGetShaderSource', 00H ; `string'
CONST	ENDS
;	COMDAT ??_C@_0BD@GIABBCMO@glGetShaderInfoLog@
CONST	SEGMENT
??_C@_0BD@GIABBCMO@glGetShaderInfoLog@ DB 'glGetShaderInfoLog', 00H ; `string'
CONST	ENDS
;	COMDAT ??_C@_0O@JBDFPDMG@glGetShaderiv@
CONST	SEGMENT
??_C@_0O@JBDFPDMG@glGetShaderiv@ DB 'glGetShaderiv', 00H ; `string'
CONST	ENDS
;	COMDAT ??_C@_0BE@DHGHAJFL@glGetProgramInfoLog@
CONST	SEGMENT
??_C@_0BE@DHGHAJFL@glGetProgramInfoLog@ DB 'glGetProgramInfoLog', 00H ; `string'
CONST	ENDS
;	COMDAT ??_C@_0P@FMMDFLCO@glGetProgramiv@
CONST	SEGMENT
??_C@_0P@FMMDFLCO@glGetProgramiv@ DB 'glGetProgramiv', 00H ; `string'
CONST	ENDS
;	COMDAT ??_C@_0BE@BEPGJDMM@glGetAttribLocation@
CONST	SEGMENT
??_C@_0BE@BEPGJDMM@glGetAttribLocation@ DB 'glGetAttribLocation', 00H ; `string'
CONST	ENDS
;	COMDAT ??_C@_0BF@GHMDGFEM@glGetAttachedShaders@
CONST	SEGMENT
??_C@_0BF@GHMDGFEM@glGetAttachedShaders@ DB 'glGetAttachedShaders', 00H ; `string'
CONST	ENDS
;	COMDAT ??_C@_0BD@NIMHLLKN@glGetActiveUniform@
CONST	SEGMENT
??_C@_0BD@NIMHLLKN@glGetActiveUniform@ DB 'glGetActiveUniform', 00H ; `string'
CONST	ENDS
;	COMDAT ??_C@_0BC@MBALAOHF@glGetActiveAttrib@
CONST	SEGMENT
??_C@_0BC@MBALAOHF@glGetActiveAttrib@ DB 'glGetActiveAttrib', 00H ; `string'
CONST	ENDS
;	COMDAT ??_C@_0BK@EHBAHNHE@glEnableVertexAttribArray@
CONST	SEGMENT
??_C@_0BK@EHBAHNHE@glEnableVertexAttribArray@ DB 'glEnableVertexAttribArr'
	DB	'ay', 00H					; `string'
CONST	ENDS
;	COMDAT ??_C@_0BL@NKHLOFFF@glDisableVertexAttribArray@
CONST	SEGMENT
??_C@_0BL@NKHLOFFF@glDisableVertexAttribArray@ DB 'glDisableVertexAttribA'
	DB	'rray', 00H					; `string'
CONST	ENDS
;	COMDAT ??_C@_0P@DJFJFCJL@glDetachShader@
CONST	SEGMENT
??_C@_0P@DJFJFCJL@glDetachShader@ DB 'glDetachShader', 00H ; `string'
CONST	ENDS
;	COMDAT ??_C@_0P@HHCDONAG@glDeleteShader@
CONST	SEGMENT
??_C@_0P@HHCDONAG@glDeleteShader@ DB 'glDeleteShader', 00H ; `string'
CONST	ENDS
;	COMDAT ??_C@_0BA@NKGCDOPO@glDeleteProgram@
CONST	SEGMENT
??_C@_0BA@NKGCDOPO@glDeleteProgram@ DB 'glDeleteProgram', 00H ; `string'
CONST	ENDS
;	COMDAT ??_C@_0P@HGHBNC@glCreateShader@
CONST	SEGMENT
??_C@_0P@HGHBNC@glCreateShader@ DB 'glCreateShader', 00H ; `string'
CONST	ENDS
;	COMDAT ??_C@_0BA@FLKLHNKP@glCreateProgram@
CONST	SEGMENT
??_C@_0BA@FLKLHNKP@glCreateProgram@ DB 'glCreateProgram', 00H ; `string'
CONST	ENDS
;	COMDAT ??_C@_0BA@DGIEGONF@glCompileShader@
CONST	SEGMENT
??_C@_0BA@DGIEGONF@glCompileShader@ DB 'glCompileShader', 00H ; `string'
CONST	ENDS
;	COMDAT ??_C@_0BF@MHKEFIHM@glBindAttribLocation@
CONST	SEGMENT
??_C@_0BF@MHKEFIHM@glBindAttribLocation@ DB 'glBindAttribLocation', 00H ; `string'
CONST	ENDS
;	COMDAT ??_C@_0P@LDMLEABL@glAttachShader@
CONST	SEGMENT
??_C@_0P@LDMLEABL@glAttachShader@ DB 'glAttachShader', 00H ; `string'
CONST	ENDS
;	COMDAT ??_C@_0BG@MMKPIEJI@glStencilMaskSeparate@
CONST	SEGMENT
??_C@_0BG@MMKPIEJI@glStencilMaskSeparate@ DB 'glStencilMaskSeparate', 00H ; `string'
CONST	ENDS
;	COMDAT ??_C@_0BG@FCMNCEIA@glStencilFuncSeparate@
CONST	SEGMENT
??_C@_0BG@FCMNCEIA@glStencilFuncSeparate@ DB 'glStencilFuncSeparate', 00H ; `string'
CONST	ENDS
;	COMDAT ??_C@_0BE@GAPLDNGF@glStencilOpSeparate@
CONST	SEGMENT
??_C@_0BE@GAPLDNGF@glStencilOpSeparate@ DB 'glStencilOpSeparate', 00H ; `string'
CONST	ENDS
;	COMDAT ??_C@_0O@COHJKDBH@glDrawBuffers@
CONST	SEGMENT
??_C@_0O@COHJKDBH@glDrawBuffers@ DB 'glDrawBuffers', 00H ; `string'
CONST	ENDS
;	COMDAT ??_C@_0BI@JNHDNJAG@glBlendEquationSeparate@
CONST	SEGMENT
??_C@_0BI@JNHDNJAG@glBlendEquationSeparate@ DB 'glBlendEquationSeparate', 00H ; `string'
CONST	ENDS
;	COMDAT ??_C@_0BE@KNJEIFMC@glGetBufferPointerv@
CONST	SEGMENT
??_C@_0BE@KNJEIFMC@glGetBufferPointerv@ DB 'glGetBufferPointerv', 00H ; `string'
CONST	ENDS
;	COMDAT ??_C@_0BH@BMIEIFJP@glGetBufferParameteriv@
CONST	SEGMENT
??_C@_0BH@BMIEIFJP@glGetBufferParameteriv@ DB 'glGetBufferParameteriv', 00H ; `string'
CONST	ENDS
;	COMDAT ??_C@_0O@OFGHBLEO@glUnmapBuffer@
CONST	SEGMENT
??_C@_0O@OFGHBLEO@glUnmapBuffer@ DB 'glUnmapBuffer', 00H ; `string'
CONST	ENDS
;	COMDAT ??_C@_0M@NNHDPACA@glMapBuffer@
CONST	SEGMENT
??_C@_0M@NNHDPACA@glMapBuffer@ DB 'glMapBuffer', 00H	; `string'
CONST	ENDS
;	COMDAT ??_C@_0BD@PNDAHMBO@glGetBufferSubData@
CONST	SEGMENT
??_C@_0BD@PNDAHMBO@glGetBufferSubData@ DB 'glGetBufferSubData', 00H ; `string'
CONST	ENDS
;	COMDAT ??_C@_0BA@GAJMDBBN@glBufferSubData@
CONST	SEGMENT
??_C@_0BA@GAJMDBBN@glBufferSubData@ DB 'glBufferSubData', 00H ; `string'
CONST	ENDS
;	COMDAT ??_C@_0N@JHHJMABP@glBufferData@
CONST	SEGMENT
??_C@_0N@JHHJMABP@glBufferData@ DB 'glBufferData', 00H	; `string'
CONST	ENDS
;	COMDAT ??_C@_0L@KFPDMKNG@glIsBuffer@
CONST	SEGMENT
??_C@_0L@KFPDMKNG@glIsBuffer@ DB 'glIsBuffer', 00H	; `string'
CONST	ENDS
;	COMDAT ??_C@_0N@LAOHBIBA@glGenBuffers@
CONST	SEGMENT
??_C@_0N@LAOHBIBA@glGenBuffers@ DB 'glGenBuffers', 00H	; `string'
CONST	ENDS
;	COMDAT ??_C@_0BA@DMNLADIO@glDeleteBuffers@
CONST	SEGMENT
??_C@_0BA@DMNLADIO@glDeleteBuffers@ DB 'glDeleteBuffers', 00H ; `string'
CONST	ENDS
;	COMDAT ??_C@_0N@BONEPPLO@glBindBuffer@
CONST	SEGMENT
??_C@_0N@BONEPPLO@glBindBuffer@ DB 'glBindBuffer', 00H	; `string'
CONST	ENDS
;	COMDAT ??_C@_0BE@MNBBKJ@glGetQueryObjectuiv@
CONST	SEGMENT
??_C@_0BE@MNBBKJ@glGetQueryObjectuiv@ DB 'glGetQueryObjectuiv', 00H ; `string'
CONST	ENDS
;	COMDAT ??_C@_0BD@KMBBCJID@glGetQueryObjectiv@
CONST	SEGMENT
??_C@_0BD@KMBBCJID@glGetQueryObjectiv@ DB 'glGetQueryObjectiv', 00H ; `string'
CONST	ENDS
;	COMDAT ??_C@_0N@BPACPFCI@glGetQueryiv@
CONST	SEGMENT
??_C@_0N@BPACPFCI@glGetQueryiv@ DB 'glGetQueryiv', 00H	; `string'
CONST	ENDS
;	COMDAT ??_C@_0L@FLEBHIDM@glEndQuery@
CONST	SEGMENT
??_C@_0L@FLEBHIDM@glEndQuery@ DB 'glEndQuery', 00H	; `string'
CONST	ENDS
;	COMDAT ??_C@_0N@GIAGIGPA@glBeginQuery@
CONST	SEGMENT
??_C@_0N@GIAGIGPA@glBeginQuery@ DB 'glBeginQuery', 00H	; `string'
CONST	ENDS
;	COMDAT ??_C@_09CNNLCEBN@glIsQuery@
CONST	SEGMENT
??_C@_09CNNLCEBN@glIsQuery@ DB 'glIsQuery', 00H		; `string'
CONST	ENDS
;	COMDAT ??_C@_0BA@IOKEHMOH@glDeleteQueries@
CONST	SEGMENT
??_C@_0BA@IOKEHMOH@glDeleteQueries@ DB 'glDeleteQueries', 00H ; `string'
CONST	ENDS
;	COMDAT ??_C@_0N@CJIGHHJ@glGenQueries@
CONST	SEGMENT
??_C@_0N@CJIGHHJ@glGenQueries@ DB 'glGenQueries', 00H	; `string'
CONST	ENDS
;	COMDAT ??_C@_0BA@PFHILPAN@glBlendEquation@
CONST	SEGMENT
??_C@_0BA@PFHILPAN@glBlendEquation@ DB 'glBlendEquation', 00H ; `string'
CONST	ENDS
;	COMDAT ??_C@_0N@PKBMFJDK@glBlendColor@
CONST	SEGMENT
??_C@_0N@PKBMFJDK@glBlendColor@ DB 'glBlendColor', 00H	; `string'
CONST	ENDS
;	COMDAT ??_C@_0P@MAJBJBIM@glWindowPos3sv@
CONST	SEGMENT
??_C@_0P@MAJBJBIM@glWindowPos3sv@ DB 'glWindowPos3sv', 00H ; `string'
CONST	ENDS
;	COMDAT ??_C@_0O@JCJLPFHG@glWindowPos3s@
CONST	SEGMENT
??_C@_0O@JCJLPFHG@glWindowPos3s@ DB 'glWindowPos3s', 00H ; `string'
CONST	ENDS
;	COMDAT ??_C@_0P@NBCALHCK@glWindowPos3iv@
CONST	SEGMENT
??_C@_0P@NBCALHCK@glWindowPos3iv@ DB 'glWindowPos3iv', 00H ; `string'
CONST	ENDS
;	COMDAT ??_C@_0O@CCLGAPKN@glWindowPos3i@
CONST	SEGMENT
??_C@_0O@CCLGAPKN@glWindowPos3i@ DB 'glWindowPos3i', 00H ; `string'
CONST	ENDS
;	COMDAT ??_C@_0P@NKHMPABH@glWindowPos3fv@
CONST	SEGMENT
??_C@_0P@NKHMPABH@glWindowPos3fv@ DB 'glWindowPos3fv', 00H ; `string'
CONST	ENDS
;	COMDAT ??_C@_0O@KFCOBDGC@glWindowPos3f@
CONST	SEGMENT
??_C@_0O@KFCOBDGC@glWindowPos3f@ DB 'glWindowPos3f', 00H ; `string'
CONST	ENDS
;	COMDAT ??_C@_0P@NJPICEHJ@glWindowPos3dv@
CONST	SEGMENT
??_C@_0P@NJPICEHJ@glWindowPos3dv@ DB 'glWindowPos3dv', 00H ; `string'
CONST	ENDS
;	COMDAT ??_C@_0O@JHBIHBOA@glWindowPos3d@
CONST	SEGMENT
??_C@_0O@JHBIHBOA@glWindowPos3d@ DB 'glWindowPos3d', 00H ; `string'
CONST	ENDS
;	COMDAT ??_C@_0P@HICNPGOJ@glWindowPos2sv@
CONST	SEGMENT
??_C@_0P@HICNPGOJ@glWindowPos2sv@ DB 'glWindowPos2sv', 00H ; `string'
CONST	ENDS
;	COMDAT ??_C@_0O@JDFJJPEB@glWindowPos2s@
CONST	SEGMENT
??_C@_0O@JDFJJPEB@glWindowPos2s@ DB 'glWindowPos2s', 00H ; `string'
CONST	ENDS
;	COMDAT ??_C@_0P@GJJMNAEP@glWindowPos2iv@
CONST	SEGMENT
??_C@_0P@GJJMNAEP@glWindowPos2iv@ DB 'glWindowPos2iv', 00H ; `string'
CONST	ENDS
;	COMDAT ??_C@_0O@CDHEGFJK@glWindowPos2i@
CONST	SEGMENT
??_C@_0O@CDHEGFJK@glWindowPos2i@ DB 'glWindowPos2i', 00H ; `string'
CONST	ENDS
;	COMDAT ??_C@_0P@GCMAJHHC@glWindowPos2fv@
CONST	SEGMENT
??_C@_0P@GCMAJHHC@glWindowPos2fv@ DB 'glWindowPos2fv', 00H ; `string'
CONST	ENDS
;	COMDAT ??_C@_0O@KEOMHJFF@glWindowPos2f@
CONST	SEGMENT
??_C@_0O@KEOMHJFF@glWindowPos2f@ DB 'glWindowPos2f', 00H ; `string'
CONST	ENDS
;	COMDAT ??_C@_0P@GBEEEDBM@glWindowPos2dv@
CONST	SEGMENT
??_C@_0P@GBEEEDBM@glWindowPos2dv@ DB 'glWindowPos2dv', 00H ; `string'
CONST	ENDS
;	COMDAT ??_C@_0O@JGNKBLNH@glWindowPos2d@
CONST	SEGMENT
??_C@_0O@JGNKBLNH@glWindowPos2d@ DB 'glWindowPos2d', 00H ; `string'
CONST	ENDS
;	COMDAT ??_C@_0BI@EFMNDJOO@glSecondaryColorPointer@
CONST	SEGMENT
??_C@_0BI@EFMNDJOO@glSecondaryColorPointer@ DB 'glSecondaryColorPointer', 00H ; `string'
CONST	ENDS
;	COMDAT ??_C@_0BF@FKAMGHPP@glSecondaryColor3usv@
CONST	SEGMENT
??_C@_0BF@FKAMGHPP@glSecondaryColor3usv@ DB 'glSecondaryColor3usv', 00H ; `string'
CONST	ENDS
;	COMDAT ??_C@_0BE@LANODAPH@glSecondaryColor3us@
CONST	SEGMENT
??_C@_0BE@LANODAPH@glSecondaryColor3us@ DB 'glSecondaryColor3us', 00H ; `string'
CONST	ENDS
;	COMDAT ??_C@_0BF@ELLNEBFJ@glSecondaryColor3uiv@
CONST	SEGMENT
??_C@_0BF@ELLNEBFJ@glSecondaryColor3uiv@ DB 'glSecondaryColor3uiv', 00H ; `string'
CONST	ENDS
;	COMDAT ??_C@_0BE@PDMKCM@glSecondaryColor3ui@
CONST	SEGMENT
??_C@_0BE@PDMKCM@glSecondaryColor3ui@ DB 'glSecondaryColor3ui', 00H ; `string'
CONST	ENDS
;	COMDAT ??_C@_0BF@EHOIKOLI@glSecondaryColor3ubv@
CONST	SEGMENT
??_C@_0BF@EHOIKOLI@glSecondaryColor3ubv@ DB 'glSecondaryColor3ubv', 00H ; `string'
CONST	ENDS
;	COMDAT ??_C@_0BE@ODAHBDOH@glSecondaryColor3ub@
CONST	SEGMENT
??_C@_0BE@ODAHBDOH@glSecondaryColor3ub@ DB 'glSecondaryColor3ub', 00H ; `string'
CONST	ENDS
;	COMDAT ??_C@_0BE@MJCELIAA@glSecondaryColor3sv@
CONST	SEGMENT
??_C@_0BE@MJCELIAA@glSecondaryColor3sv@ DB 'glSecondaryColor3sv', 00H ; `string'
CONST	ENDS
;	COMDAT ??_C@_0BD@JBPOFCHK@glSecondaryColor3s@
CONST	SEGMENT
??_C@_0BD@JBPOFCHK@glSecondaryColor3s@ DB 'glSecondaryColor3s', 00H ; `string'
CONST	ENDS
;	COMDAT ??_C@_0BE@NIJFJOKG@glSecondaryColor3iv@
CONST	SEGMENT
??_C@_0BE@NIJFJOKG@glSecondaryColor3iv@ DB 'glSecondaryColor3iv', 00H ; `string'
CONST	ENDS
;	COMDAT ??_C@_0BD@CBNDKIKB@glSecondaryColor3i@
CONST	SEGMENT
??_C@_0BD@CBNDKIKB@glSecondaryColor3i@ DB 'glSecondaryColor3i', 00H ; `string'
CONST	ENDS
;	COMDAT ??_C@_0BE@NDMJNJJL@glSecondaryColor3fv@
CONST	SEGMENT
??_C@_0BE@NDMJNJJL@glSecondaryColor3fv@ DB 'glSecondaryColor3fv', 00H ; `string'
CONST	ENDS
;	COMDAT ??_C@_0BD@KGELLEGO@glSecondaryColor3f@
CONST	SEGMENT
??_C@_0BD@KGELLEGO@glSecondaryColor3f@ DB 'glSecondaryColor3f', 00H ; `string'
CONST	ENDS
;	COMDAT ??_C@_0BE@NAENANPF@glSecondaryColor3dv@
CONST	SEGMENT
??_C@_0BE@NAENANPF@glSecondaryColor3dv@ DB 'glSecondaryColor3dv', 00H ; `string'
CONST	ENDS
;	COMDAT ??_C@_0BD@JEHNNGOM@glSecondaryColor3d@
CONST	SEGMENT
??_C@_0BD@JEHNNGOM@glSecondaryColor3d@ DB 'glSecondaryColor3d', 00H ; `string'
CONST	ENDS
;	COMDAT ??_C@_0BE@NEMAHBEH@glSecondaryColor3bv@
CONST	SEGMENT
??_C@_0BE@NEMAHBEH@glSecondaryColor3bv@ DB 'glSecondaryColor3bv', 00H ; `string'
CONST	ENDS
;	COMDAT ??_C@_0BD@MCCHHBGK@glSecondaryColor3b@
CONST	SEGMENT
??_C@_0BD@MCCHHBGK@glSecondaryColor3b@ DB 'glSecondaryColor3b', 00H ; `string'
CONST	ENDS
;	COMDAT ??_C@_0BC@GECGFLP@glFogCoordPointer@
CONST	SEGMENT
??_C@_0BC@GECGFLP@glFogCoordPointer@ DB 'glFogCoordPointer', 00H ; `string'
CONST	ENDS
;	COMDAT ??_C@_0N@KKODAODE@glFogCoorddv@
CONST	SEGMENT
??_C@_0N@KKODAODE@glFogCoorddv@ DB 'glFogCoorddv', 00H	; `string'
CONST	ENDS
;	COMDAT ??_C@_0M@FACELPGH@glFogCoordd@
CONST	SEGMENT
??_C@_0M@FACELPGH@glFogCoordd@ DB 'glFogCoordd', 00H	; `string'
CONST	ENDS
;	COMDAT ??_C@_0N@KJGHNKFK@glFogCoordfv@
CONST	SEGMENT
??_C@_0N@KJGHNKFK@glFogCoordfv@ DB 'glFogCoordfv', 00H	; `string'
CONST	ENDS
;	COMDAT ??_C@_0M@GCBCNNOF@glFogCoordf@
CONST	SEGMENT
??_C@_0M@GCBCNNOF@glFogCoordf@ DB 'glFogCoordf', 00H	; `string'
CONST	ENDS
;	COMDAT ??_C@_0BD@LDFNOKAC@glPointParameteriv@
CONST	SEGMENT
??_C@_0BD@LDFNOKAC@glPointParameteriv@ DB 'glPointParameteriv', 00H ; `string'
CONST	ENDS
;	COMDAT ??_C@_0BC@ICPGPIPB@glPointParameteri@
CONST	SEGMENT
??_C@_0BC@ICPGPIPB@glPointParameteri@ DB 'glPointParameteri', 00H ; `string'
CONST	ENDS
;	COMDAT ??_C@_0BD@LIABKNDP@glPointParameterfv@
CONST	SEGMENT
??_C@_0BD@LIABKNDP@glPointParameterfv@ DB 'glPointParameterfv', 00H ; `string'
CONST	ENDS
;	COMDAT ??_C@_0BC@FGOOEDO@glPointParameterf@
CONST	SEGMENT
??_C@_0BC@FGOOEDO@glPointParameterf@ DB 'glPointParameterf', 00H ; `string'
CONST	ENDS
;	COMDAT ??_C@_0BE@MPDFJJLL@glMultiDrawElements@
CONST	SEGMENT
??_C@_0BE@MPDFJJLL@glMultiDrawElements@ DB 'glMultiDrawElements', 00H ; `string'
CONST	ENDS
;	COMDAT ??_C@_0BC@IBABPJFA@glMultiDrawArrays@
CONST	SEGMENT
??_C@_0BC@IBABPJFA@glMultiDrawArrays@ DB 'glMultiDrawArrays', 00H ; `string'
CONST	ENDS
;	COMDAT ??_C@_0BE@LLLCIIOO@glBlendFuncSeparate@
CONST	SEGMENT
??_C@_0BE@LLLCIIOO@glBlendFuncSeparate@ DB 'glBlendFuncSeparate', 00H ; `string'
CONST	ENDS
;	COMDAT ??_C@_0BH@NCKJAFA@glMultTransposeMatrixd@
CONST	SEGMENT
??_C@_0BH@NCKJAFA@glMultTransposeMatrixd@ DB 'glMultTransposeMatrixd', 00H ; `string'
CONST	ENDS
;	COMDAT ??_C@_0BH@DPBMPCNC@glMultTransposeMatrixf@
CONST	SEGMENT
??_C@_0BH@DPBMPCNC@glMultTransposeMatrixf@ DB 'glMultTransposeMatrixf', 00H ; `string'
CONST	ENDS
;	COMDAT ??_C@_0BH@DMKLNEPC@glLoadTransposeMatrixd@
CONST	SEGMENT
??_C@_0BH@DMKLNEPC@glLoadTransposeMatrixd@ DB 'glLoadTransposeMatrixd', 00H ; `string'
CONST	ENDS
;	COMDAT ??_C@_0BH@OJNLGHA@glLoadTransposeMatrixf@
CONST	SEGMENT
??_C@_0BH@OJNLGHA@glLoadTransposeMatrixf@ DB 'glLoadTransposeMatrixf', 00H ; `string'
CONST	ENDS
;	COMDAT ??_C@_0BD@HKFHALMP@glMultiTexCoord4sv@
CONST	SEGMENT
??_C@_0BD@HKFHALMP@glMultiTexCoord4sv@ DB 'glMultiTexCoord4sv', 00H ; `string'
CONST	ENDS
;	COMDAT ??_C@_0BC@IEDHLDIC@glMultiTexCoord4s@
CONST	SEGMENT
??_C@_0BC@IEDHLDIC@glMultiTexCoord4s@ DB 'glMultiTexCoord4s', 00H ; `string'
CONST	ENDS
;	COMDAT ??_C@_0BD@GLOGCNGJ@glMultiTexCoord4iv@
CONST	SEGMENT
??_C@_0BD@GLOGCNGJ@glMultiTexCoord4iv@ DB 'glMultiTexCoord4iv', 00H ; `string'
CONST	ENDS
;	COMDAT ??_C@_0BC@DEBKEJFJ@glMultiTexCoord4i@
CONST	SEGMENT
??_C@_0BC@DEBKEJFJ@glMultiTexCoord4i@ DB 'glMultiTexCoord4i', 00H ; `string'
CONST	ENDS
;	COMDAT ??_C@_0BD@GALKGKFE@glMultiTexCoord4fv@
CONST	SEGMENT
??_C@_0BD@GALKGKFE@glMultiTexCoord4fv@ DB 'glMultiTexCoord4fv', 00H ; `string'
CONST	ENDS
;	COMDAT ??_C@_0BC@LDICFFJG@glMultiTexCoord4f@
CONST	SEGMENT
??_C@_0BC@LDICFFJG@glMultiTexCoord4f@ DB 'glMultiTexCoord4f', 00H ; `string'
CONST	ENDS
;	COMDAT ??_C@_0BD@GDDOLODK@glMultiTexCoord4dv@
CONST	SEGMENT
??_C@_0BD@GDDOLODK@glMultiTexCoord4dv@ DB 'glMultiTexCoord4dv', 00H ; `string'
CONST	ENDS
;	COMDAT ??_C@_0BC@IBLEDHBE@glMultiTexCoord4d@
CONST	SEGMENT
??_C@_0BC@IBLEDHBE@glMultiTexCoord4d@ DB 'glMultiTexCoord4d', 00H ; `string'
CONST	ENDS
;	COMDAT ??_C@_0BD@OHIADDHG@glMultiTexCoord3sv@
CONST	SEGMENT
??_C@_0BD@OHIADDHG@glMultiTexCoord3sv@ DB 'glMultiTexCoord3sv', 00H ; `string'
CONST	ENDS
;	COMDAT ??_C@_0BC@IBHIKFAH@glMultiTexCoord3s@
CONST	SEGMENT
??_C@_0BC@IBHIKFAH@glMultiTexCoord3s@ DB 'glMultiTexCoord3s', 00H ; `string'
CONST	ENDS
;	COMDAT ??_C@_0BD@PGDBBFNA@glMultiTexCoord3iv@
CONST	SEGMENT
??_C@_0BD@PGDBBFNA@glMultiTexCoord3iv@ DB 'glMultiTexCoord3iv', 00H ; `string'
CONST	ENDS
;	COMDAT ??_C@_0BC@DBFFFPNM@glMultiTexCoord3i@
CONST	SEGMENT
??_C@_0BC@DBFFFPNM@glMultiTexCoord3i@ DB 'glMultiTexCoord3i', 00H ; `string'
CONST	ENDS
;	COMDAT ??_C@_0BD@PNGNFCON@glMultiTexCoord3fv@
CONST	SEGMENT
??_C@_0BD@PNGNFCON@glMultiTexCoord3fv@ DB 'glMultiTexCoord3fv', 00H ; `string'
CONST	ENDS
;	COMDAT ??_C@_0BC@LGMNEDBD@glMultiTexCoord3f@
CONST	SEGMENT
??_C@_0BC@LGMNEDBD@glMultiTexCoord3f@ DB 'glMultiTexCoord3f', 00H ; `string'
CONST	ENDS
;	COMDAT ??_C@_0BD@POOJIGID@glMultiTexCoord3dv@
CONST	SEGMENT
??_C@_0BD@POOJIGID@glMultiTexCoord3dv@ DB 'glMultiTexCoord3dv', 00H ; `string'
CONST	ENDS
;	COMDAT ??_C@_0BC@IEPLCBJB@glMultiTexCoord3d@
CONST	SEGMENT
??_C@_0BC@IEPLCBJB@glMultiTexCoord3d@ DB 'glMultiTexCoord3d', 00H ; `string'
CONST	ENDS
;	COMDAT ??_C@_0BD@FPDMFEBD@glMultiTexCoord2sv@
CONST	SEGMENT
??_C@_0BD@FPDMFEBD@glMultiTexCoord2sv@ DB 'glMultiTexCoord2sv', 00H ; `string'
CONST	ENDS
;	COMDAT ??_C@_0BC@IALKMPDA@glMultiTexCoord2s@
CONST	SEGMENT
??_C@_0BC@IALKMPDA@glMultiTexCoord2s@ DB 'glMultiTexCoord2s', 00H ; `string'
CONST	ENDS
;	COMDAT ??_C@_0BD@EOINHCLF@glMultiTexCoord2iv@
CONST	SEGMENT
??_C@_0BD@EOINHCLF@glMultiTexCoord2iv@ DB 'glMultiTexCoord2iv', 00H ; `string'
CONST	ENDS
;	COMDAT ??_C@_0BC@DAJHDFOL@glMultiTexCoord2i@
CONST	SEGMENT
??_C@_0BC@DAJHDFOL@glMultiTexCoord2i@ DB 'glMultiTexCoord2i', 00H ; `string'
CONST	ENDS
;	COMDAT ??_C@_0BD@EFNBDFII@glMultiTexCoord2fv@
CONST	SEGMENT
??_C@_0BD@EFNBDFII@glMultiTexCoord2fv@ DB 'glMultiTexCoord2fv', 00H ; `string'
CONST	ENDS
;	COMDAT ??_C@_0BC@LHAPCJCE@glMultiTexCoord2f@
CONST	SEGMENT
??_C@_0BC@LHAPCJCE@glMultiTexCoord2f@ DB 'glMultiTexCoord2f', 00H ; `string'
CONST	ENDS
;	COMDAT ??_C@_0BD@EGFFOBOG@glMultiTexCoord2dv@
CONST	SEGMENT
??_C@_0BD@EGFFOBOG@glMultiTexCoord2dv@ DB 'glMultiTexCoord2dv', 00H ; `string'
CONST	ENDS
;	COMDAT ??_C@_0BC@IFDJELKG@glMultiTexCoord2d@
CONST	SEGMENT
??_C@_0BC@IFDJELKG@glMultiTexCoord2d@ DB 'glMultiTexCoord2d', 00H ; `string'
CONST	ENDS
;	COMDAT ??_C@_0BD@ENIJPLPN@glMultiTexCoord1sv@
CONST	SEGMENT
??_C@_0BD@ENIJPLPN@glMultiTexCoord1sv@ DB 'glMultiTexCoord1sv', 00H ; `string'
CONST	ENDS
;	COMDAT ??_C@_0BC@ICPMHBGJ@glMultiTexCoord1s@
CONST	SEGMENT
??_C@_0BC@ICPMHBGJ@glMultiTexCoord1s@ DB 'glMultiTexCoord1s', 00H ; `string'
CONST	ENDS
;	COMDAT ??_C@_0BD@FMDINNFL@glMultiTexCoord1iv@
CONST	SEGMENT
??_C@_0BD@FMDINNFL@glMultiTexCoord1iv@ DB 'glMultiTexCoord1iv', 00H ; `string'
CONST	ENDS
;	COMDAT ??_C@_0BC@DCNBILLC@glMultiTexCoord1i@
CONST	SEGMENT
??_C@_0BC@DCNBILLC@glMultiTexCoord1i@ DB 'glMultiTexCoord1i', 00H ; `string'
CONST	ENDS
;	COMDAT ??_C@_0BD@FHGEJKGG@glMultiTexCoord1fv@
CONST	SEGMENT
??_C@_0BD@FHGEJKGG@glMultiTexCoord1fv@ DB 'glMultiTexCoord1fv', 00H ; `string'
CONST	ENDS
;	COMDAT ??_C@_0BC@LFEJJHHN@glMultiTexCoord1f@
CONST	SEGMENT
??_C@_0BC@LFEJJHHN@glMultiTexCoord1f@ DB 'glMultiTexCoord1f', 00H ; `string'
CONST	ENDS
;	COMDAT ??_C@_0BD@FEOAEOAI@glMultiTexCoord1dv@
CONST	SEGMENT
??_C@_0BD@FEOAEOAI@glMultiTexCoord1dv@ DB 'glMultiTexCoord1dv', 00H ; `string'
CONST	ENDS
;	COMDAT ??_C@_0BC@IHHPPFPP@glMultiTexCoord1d@
CONST	SEGMENT
??_C@_0BC@IHHPPFPP@glMultiTexCoord1d@ DB 'glMultiTexCoord1d', 00H ; `string'
CONST	ENDS
;	COMDAT ??_C@_0BG@EGKOMLFO@glClientActiveTexture@
CONST	SEGMENT
??_C@_0BG@EGKOMLFO@glClientActiveTexture@ DB 'glClientActiveTexture', 00H ; `string'
CONST	ENDS
;	COMDAT ??_C@_0BI@MPANLPPL@glGetCompressedTexImage@
CONST	SEGMENT
??_C@_0BI@MPANLPPL@glGetCompressedTexImage@ DB 'glGetCompressedTexImage', 00H ; `string'
CONST	ENDS
;	COMDAT ??_C@_0BK@ECBIPHJO@glCompressedTexSubImage1D@
CONST	SEGMENT
??_C@_0BK@ECBIPHJO@glCompressedTexSubImage1D@ DB 'glCompressedTexSubImage'
	DB	'1D', 00H					; `string'
CONST	ENDS
;	COMDAT ??_C@_0BK@EAFOEJMH@glCompressedTexSubImage2D@
CONST	SEGMENT
??_C@_0BK@EAFOEJMH@glCompressedTexSubImage2D@ DB 'glCompressedTexSubImage'
	DB	'2D', 00H					; `string'
CONST	ENDS
;	COMDAT ??_C@_0BK@EBJMCDPA@glCompressedTexSubImage3D@
CONST	SEGMENT
??_C@_0BK@EBJMCDPA@glCompressedTexSubImage3D@ DB 'glCompressedTexSubImage'
	DB	'3D', 00H					; `string'
CONST	ENDS
;	COMDAT ??_C@_0BH@GFPJBEAB@glCompressedTexImage1D@
CONST	SEGMENT
??_C@_0BH@GFPJBEAB@glCompressedTexImage1D@ DB 'glCompressedTexImage1D', 00H ; `string'
CONST	ENDS
;	COMDAT ??_C@_0BH@GHLPKKFI@glCompressedTexImage2D@
CONST	SEGMENT
??_C@_0BH@GHLPKKFI@glCompressedTexImage2D@ DB 'glCompressedTexImage2D', 00H ; `string'
CONST	ENDS
;	COMDAT ??_C@_0BH@GGHNMAGP@glCompressedTexImage3D@
CONST	SEGMENT
??_C@_0BH@GGHNMAGP@glCompressedTexImage3D@ DB 'glCompressedTexImage3D', 00H ; `string'
CONST	ENDS
;	COMDAT ??_C@_0BB@BJGIPMOA@glSampleCoverage@
CONST	SEGMENT
??_C@_0BB@BJGIPMOA@glSampleCoverage@ DB 'glSampleCoverage', 00H ; `string'
CONST	ENDS
;	COMDAT ??_C@_0BA@KOBBIKOF@glActiveTexture@
CONST	SEGMENT
??_C@_0BA@KOBBIKOF@glActiveTexture@ DB 'glActiveTexture', 00H ; `string'
CONST	ENDS
;	COMDAT ??_C@_0BE@PJFGNMAG@glCopyTexSubImage3D@
CONST	SEGMENT
??_C@_0BE@PJFGNMAG@glCopyTexSubImage3D@ DB 'glCopyTexSubImage3D', 00H ; `string'
CONST	ENDS
;	COMDAT ??_C@_0BA@NGGKPOPN@glTexSubImage3D@
CONST	SEGMENT
??_C@_0BA@NGGKPOPN@glTexSubImage3D@ DB 'glTexSubImage3D', 00H ; `string'
CONST	ENDS
;	COMDAT ??_C@_0N@JAEIBBBF@glTexImage3D@
CONST	SEGMENT
??_C@_0N@JAEIBBBF@glTexImage3D@ DB 'glTexImage3D', 00H	; `string'
CONST	ENDS
;	COMDAT ??_C@_0BE@IHNAGJGJ@glDrawRangeElements@
CONST	SEGMENT
??_C@_0BE@IHNAGJGJ@glDrawRangeElements@ DB 'glDrawRangeElements', 00H ; `string'
CONST	ENDS
;	COMDAT ??_C@_0BD@JKGPLNEA@glPushClientAttrib@
CONST	SEGMENT
??_C@_0BD@JKGPLNEA@glPushClientAttrib@ DB 'glPushClientAttrib', 00H ; `string'
CONST	ENDS
;	COMDAT ??_C@_0BC@GOOJKIDH@glPopClientAttrib@
CONST	SEGMENT
??_C@_0BC@GOOJKIDH@glPopClientAttrib@ DB 'glPopClientAttrib', 00H ; `string'
CONST	ENDS
;	COMDAT ??_C@_0L@BBKJOCAC@glIndexubv@
CONST	SEGMENT
??_C@_0L@BBKJOCAC@glIndexubv@ DB 'glIndexubv', 00H	; `string'
CONST	ENDS
;	COMDAT ??_C@_09BBIPIKNC@glIndexub@
CONST	SEGMENT
??_C@_09BBIPIKNC@glIndexub@ DB 'glIndexub', 00H		; `string'
CONST	ENDS
;	COMDAT ??_C@_0BF@FFCGNNIA@glPrioritizeTextures@
CONST	SEGMENT
??_C@_0BF@FFCGNNIA@glPrioritizeTextures@ DB 'glPrioritizeTextures', 00H ; `string'
CONST	ENDS
;	COMDAT ??_C@_0BG@DHOKJLEP@glAreTexturesResident@
CONST	SEGMENT
??_C@_0BG@DHOKJLEP@glAreTexturesResident@ DB 'glAreTexturesResident', 00H ; `string'
CONST	ENDS
;	COMDAT ??_C@_0BA@HAHECJNK@glVertexPointer@
CONST	SEGMENT
??_C@_0BA@HAHECJNK@glVertexPointer@ DB 'glVertexPointer', 00H ; `string'
CONST	ENDS
;	COMDAT ??_C@_0BC@DAOMILMO@glTexCoordPointer@
CONST	SEGMENT
??_C@_0BC@DAOMILMO@glTexCoordPointer@ DB 'glTexCoordPointer', 00H ; `string'
CONST	ENDS
;	COMDAT ??_C@_0BA@DCLMCEOP@glNormalPointer@
CONST	SEGMENT
??_C@_0BA@DCLMCEOP@glNormalPointer@ DB 'glNormalPointer', 00H ; `string'
CONST	ENDS
;	COMDAT ??_C@_0BE@EDEDCKLI@glInterleavedArrays@
CONST	SEGMENT
??_C@_0BE@EDEDCKLI@glInterleavedArrays@ DB 'glInterleavedArrays', 00H ; `string'
CONST	ENDS
;	COMDAT ??_C@_0P@KGJBLKPD@glIndexPointer@
CONST	SEGMENT
??_C@_0P@KGJBLKPD@glIndexPointer@ DB 'glIndexPointer', 00H ; `string'
CONST	ENDS
;	COMDAT ??_C@_0BE@KECPKGNE@glEnableClientState@
CONST	SEGMENT
??_C@_0BE@KECPKGNE@glEnableClientState@ DB 'glEnableClientState', 00H ; `string'
CONST	ENDS
;	COMDAT ??_C@_0BC@LILGCNN@glEdgeFlagPointer@
CONST	SEGMENT
??_C@_0BC@LILGCNN@glEdgeFlagPointer@ DB 'glEdgeFlagPointer', 00H ; `string'
CONST	ENDS
;	COMDAT ??_C@_0BF@LJDHBNBP@glDisableClientState@
CONST	SEGMENT
??_C@_0BF@LJDHBNBP@glDisableClientState@ DB 'glDisableClientState', 00H ; `string'
CONST	ENDS
;	COMDAT ??_C@_0P@DPKEGLKI@glColorPointer@
CONST	SEGMENT
??_C@_0P@DPKEGLKI@glColorPointer@ DB 'glColorPointer', 00H ; `string'
CONST	ENDS
;	COMDAT ??_C@_0P@CKCIJELG@glArrayElement@
CONST	SEGMENT
??_C@_0P@CKCIJELG@glArrayElement@ DB 'glArrayElement', 00H ; `string'
CONST	ENDS
;	COMDAT ??_C@_0M@NJHAEPDN@glIsTexture@
CONST	SEGMENT
??_C@_0M@NJHAEPDN@glIsTexture@ DB 'glIsTexture', 00H	; `string'
CONST	ENDS
;	COMDAT ??_C@_0O@LLMANLNK@glGenTextures@
CONST	SEGMENT
??_C@_0O@LLMANLNK@glGenTextures@ DB 'glGenTextures', 00H ; `string'
CONST	ENDS
;	COMDAT ??_C@_0BB@KMPLFJIC@glDeleteTextures@
CONST	SEGMENT
??_C@_0BB@KMPLFJIC@glDeleteTextures@ DB 'glDeleteTextures', 00H ; `string'
CONST	ENDS
;	COMDAT ??_C@_0O@JKKCIBGC@glBindTexture@
CONST	SEGMENT
??_C@_0O@JKKCIBGC@glBindTexture@ DB 'glBindTexture', 00H ; `string'
CONST	ENDS
;	COMDAT ??_C@_0BA@NHKIJEMK@glTexSubImage2D@
CONST	SEGMENT
??_C@_0BA@NHKIJEMK@glTexSubImage2D@ DB 'glTexSubImage2D', 00H ; `string'
CONST	ENDS
;	COMDAT ??_C@_0BA@NFOOCKJD@glTexSubImage1D@
CONST	SEGMENT
??_C@_0BA@NFOOCKJD@glTexSubImage1D@ DB 'glTexSubImage1D', 00H ; `string'
CONST	ENDS
;	COMDAT ??_C@_0BE@PIJELGDB@glCopyTexSubImage2D@
CONST	SEGMENT
??_C@_0BE@PIJELGDB@glCopyTexSubImage2D@ DB 'glCopyTexSubImage2D', 00H ; `string'
CONST	ENDS
;	COMDAT ??_C@_0BE@PKNCAIGI@glCopyTexSubImage1D@
CONST	SEGMENT
??_C@_0BE@PKNCAIGI@glCopyTexSubImage1D@ DB 'glCopyTexSubImage1D', 00H ; `string'
CONST	ENDS
;	COMDAT ??_C@_0BB@MGAFKJKC@glCopyTexImage2D@
CONST	SEGMENT
??_C@_0BB@MGAFKJKC@glCopyTexImage2D@ DB 'glCopyTexImage2D', 00H ; `string'
CONST	ENDS
;	COMDAT ??_C@_0BB@MEEDBHPL@glCopyTexImage1D@
CONST	SEGMENT
??_C@_0BB@MEEDBHPL@glCopyTexImage1D@ DB 'glCopyTexImage1D', 00H ; `string'
CONST	ENDS
;	COMDAT ??_C@_0BA@FFBJGNC@glPolygonOffset@
CONST	SEGMENT
??_C@_0BA@FFBJGNC@glPolygonOffset@ DB 'glPolygonOffset', 00H ; `string'
CONST	ENDS
;	COMDAT ??_C@_0O@LADEDGJO@glGetPointerv@
CONST	SEGMENT
??_C@_0O@LADEDGJO@glGetPointerv@ DB 'glGetPointerv', 00H ; `string'
CONST	ENDS
;	COMDAT ??_C@_0P@MENFIFGE@glDrawElements@
CONST	SEGMENT
??_C@_0P@MENFIFGE@glDrawElements@ DB 'glDrawElements', 00H ; `string'
CONST	ENDS
;	COMDAT ??_C@_0N@CMNPPOHA@glDrawArrays@
CONST	SEGMENT
??_C@_0N@CMNPPOHA@glDrawArrays@ DB 'glDrawArrays', 00H	; `string'
CONST	ENDS
;	COMDAT ??_C@_0N@IFPDDBNE@glTranslatef@
CONST	SEGMENT
??_C@_0N@IFPDDBNE@glTranslatef@ DB 'glTranslatef', 00H	; `string'
CONST	ENDS
;	COMDAT ??_C@_0N@LHMFFDFG@glTranslated@
CONST	SEGMENT
??_C@_0N@LHMFFDFG@glTranslated@ DB 'glTranslated', 00H	; `string'
CONST	ENDS
;	COMDAT ??_C@_08JCPEOPLK@glScalef@
CONST	SEGMENT
??_C@_08JCPEOPLK@glScalef@ DB 'glScalef', 00H		; `string'
CONST	ENDS
;	COMDAT ??_C@_08KAMCINDI@glScaled@
CONST	SEGMENT
??_C@_08KAMCINDI@glScaled@ DB 'glScaled', 00H		; `string'
CONST	ENDS
;	COMDAT ??_C@_09FCODNBIM@glRotatef@
CONST	SEGMENT
??_C@_09FCODNBIM@glRotatef@ DB 'glRotatef', 00H		; `string'
CONST	ENDS
;	COMDAT ??_C@_09GANFLDAO@glRotated@
CONST	SEGMENT
??_C@_09GANFLDAO@glRotated@ DB 'glRotated', 00H		; `string'
CONST	ENDS
;	COMDAT ??_C@_0N@IHFNHGBL@glPushMatrix@
CONST	SEGMENT
??_C@_0N@IHFNHGBL@glPushMatrix@ DB 'glPushMatrix', 00H	; `string'
CONST	ENDS
;	COMDAT ??_C@_0M@JPEAAEEK@glPopMatrix@
CONST	SEGMENT
??_C@_0M@JPEAAEEK@glPopMatrix@ DB 'glPopMatrix', 00H	; `string'
CONST	ENDS
;	COMDAT ??_C@_07DBAFHOII@glOrtho@
CONST	SEGMENT
??_C@_07DBAFHOII@glOrtho@ DB 'glOrtho', 00H		; `string'
CONST	ENDS
;	COMDAT ??_C@_0O@IFJFLNCL@glMultMatrixd@
CONST	SEGMENT
??_C@_0O@IFJFLNCL@glMultMatrixd@ DB 'glMultMatrixd', 00H ; `string'
CONST	ENDS
;	COMDAT ??_C@_0O@LHKDNPKJ@glMultMatrixf@
CONST	SEGMENT
??_C@_0O@LHKDNPKJ@glMultMatrixf@ DB 'glMultMatrixf', 00H ; `string'
CONST	ENDS
;	COMDAT ??_C@_0N@KDLNHKEJ@glMatrixMode@
CONST	SEGMENT
??_C@_0N@KDLNHKEJ@glMatrixMode@ DB 'glMatrixMode', 00H	; `string'
CONST	ENDS
;	COMDAT ??_C@_0O@LFHKEMK@glLoadMatrixd@
CONST	SEGMENT
??_C@_0O@LFHKEMK@glLoadMatrixd@ DB 'glLoadMatrixd', 00H	; `string'
CONST	ENDS
;	COMDAT ??_C@_0O@DJGBMGEI@glLoadMatrixf@
CONST	SEGMENT
??_C@_0O@DJGBMGEI@glLoadMatrixf@ DB 'glLoadMatrixf', 00H ; `string'
CONST	ENDS
;	COMDAT ??_C@_0P@EJAFHEPO@glLoadIdentity@
CONST	SEGMENT
??_C@_0P@EJAFHEPO@glLoadIdentity@ DB 'glLoadIdentity', 00H ; `string'
CONST	ENDS
;	COMDAT ??_C@_09ICLFHOKP@glFrustum@
CONST	SEGMENT
??_C@_09ICLFHOKP@glFrustum@ DB 'glFrustum', 00H		; `string'
CONST	ENDS
;	COMDAT ??_C@_08DMFMJKDH@glIsList@
CONST	SEGMENT
??_C@_08DMFMJKDH@glIsList@ DB 'glIsList', 00H		; `string'
CONST	ENDS
;	COMDAT ??_C@_0O@HOAMNHM@glGetTexGeniv@
CONST	SEGMENT
??_C@_0O@HOAMNHM@glGetTexGeniv@ DB 'glGetTexGeniv', 00H	; `string'
CONST	ENDS
;	COMDAT ??_C@_0O@MLMIKEB@glGetTexGenfv@
CONST	SEGMENT
??_C@_0O@MLMIKEB@glGetTexGenfv@ DB 'glGetTexGenfv', 00H	; `string'
CONST	ENDS
;	COMDAT ??_C@_0O@PDIFOCP@glGetTexGendv@
CONST	SEGMENT
??_C@_0O@PDIFOCP@glGetTexGendv@ DB 'glGetTexGendv', 00H	; `string'
CONST	ENDS
;	COMDAT ??_C@_0O@KIFFCCBG@glGetTexEnviv@
CONST	SEGMENT
??_C@_0O@KIFFCCBG@glGetTexEnviv@ DB 'glGetTexEnviv', 00H ; `string'
CONST	ENDS
;	COMDAT ??_C@_0O@KDAJGFCL@glGetTexEnvfv@
CONST	SEGMENT
??_C@_0O@KDAJGFCL@glGetTexEnvfv@ DB 'glGetTexEnvfv', 00H ; `string'
CONST	ENDS
;	COMDAT ??_C@_0BE@PBJHLEJI@glGetPolygonStipple@
CONST	SEGMENT
??_C@_0BE@PBJHLEJI@glGetPolygonStipple@ DB 'glGetPolygonStipple', 00H ; `string'
CONST	ENDS
;	COMDAT ??_C@_0BB@NHJEMOOF@glGetPixelMapusv@
CONST	SEGMENT
??_C@_0BB@NHJEMOOF@glGetPixelMapusv@ DB 'glGetPixelMapusv', 00H ; `string'
CONST	ENDS
;	COMDAT ??_C@_0BB@MGCFOIED@glGetPixelMapuiv@
CONST	SEGMENT
??_C@_0BB@MGCFOIED@glGetPixelMapuiv@ DB 'glGetPixelMapuiv', 00H ; `string'
CONST	ENDS
;	COMDAT ??_C@_0BA@EDGNDGIE@glGetPixelMapfv@
CONST	SEGMENT
??_C@_0BA@EDGNDGIE@glGetPixelMapfv@ DB 'glGetPixelMapfv', 00H ; `string'
CONST	ENDS
;	COMDAT ??_C@_0BA@GJKDADAB@glGetMaterialiv@
CONST	SEGMENT
??_C@_0BA@GJKDADAB@glGetMaterialiv@ DB 'glGetMaterialiv', 00H ; `string'
CONST	ENDS
;	COMDAT ??_C@_0BA@GCPPEEDM@glGetMaterialfv@
CONST	SEGMENT
??_C@_0BA@GCPPEEDM@glGetMaterialfv@ DB 'glGetMaterialfv', 00H ; `string'
CONST	ENDS
;	COMDAT ??_C@_0L@FOFLNEHD@glGetMapiv@
CONST	SEGMENT
??_C@_0L@FOFLNEHD@glGetMapiv@ DB 'glGetMapiv', 00H	; `string'
CONST	ENDS
;	COMDAT ??_C@_0L@FFAHJDEO@glGetMapfv@
CONST	SEGMENT
??_C@_0L@FFAHJDEO@glGetMapfv@ DB 'glGetMapfv', 00H	; `string'
CONST	ENDS
;	COMDAT ??_C@_0L@FGIDEHCA@glGetMapdv@
CONST	SEGMENT
??_C@_0L@FGIDEHCA@glGetMapdv@ DB 'glGetMapdv', 00H	; `string'
CONST	ENDS
;	COMDAT ??_C@_0N@MNDANBJN@glGetLightiv@
CONST	SEGMENT
??_C@_0N@MNDANBJN@glGetLightiv@ DB 'glGetLightiv', 00H	; `string'
CONST	ENDS
;	COMDAT ??_C@_0N@MGGMJGKA@glGetLightfv@
CONST	SEGMENT
??_C@_0N@MGGMJGKA@glGetLightfv@ DB 'glGetLightfv', 00H	; `string'
CONST	ENDS
;	COMDAT ??_C@_0P@MMMNLMC@glGetClipPlane@
CONST	SEGMENT
??_C@_0P@MMMNLMC@glGetClipPlane@ DB 'glGetClipPlane', 00H ; `string'
CONST	ENDS
;	COMDAT ??_C@_0N@FLFIHFDP@glDrawPixels@
CONST	SEGMENT
??_C@_0N@FLFIHFDP@glDrawPixels@ DB 'glDrawPixels', 00H	; `string'
CONST	ENDS
;	COMDAT ??_C@_0N@OACCOOE@glCopyPixels@
CONST	SEGMENT
??_C@_0N@OACCOOE@glCopyPixels@ DB 'glCopyPixels', 00H	; `string'
CONST	ENDS
;	COMDAT ??_C@_0O@FMEEPGOI@glPixelMapusv@
CONST	SEGMENT
??_C@_0O@FMEEPGOI@glPixelMapusv@ DB 'glPixelMapusv', 00H ; `string'
CONST	ENDS
;	COMDAT ??_C@_0O@ENPFNAEO@glPixelMapuiv@
CONST	SEGMENT
??_C@_0O@ENPFNAEO@glPixelMapuiv@ DB 'glPixelMapuiv', 00H ; `string'
CONST	ENDS
;	COMDAT ??_C@_0N@CNONNBNO@glPixelMapfv@
CONST	SEGMENT
??_C@_0N@CNONNBNO@glPixelMapfv@ DB 'glPixelMapfv', 00H	; `string'
CONST	ENDS
;	COMDAT ??_C@_0BB@IAMKJDIC@glPixelTransferi@
CONST	SEGMENT
??_C@_0BB@IAMKJDIC@glPixelTransferi@ DB 'glPixelTransferi', 00H ; `string'
CONST	ENDS
;	COMDAT ??_C@_0BB@HFCIPEN@glPixelTransferf@
CONST	SEGMENT
??_C@_0BB@HFCIPEN@glPixelTransferf@ DB 'glPixelTransferf', 00H ; `string'
CONST	ENDS
;	COMDAT ??_C@_0M@JAMJIGNB@glPixelZoom@
CONST	SEGMENT
??_C@_0M@JAMJIGNB@glPixelZoom@ DB 'glPixelZoom', 00H	; `string'
CONST	ENDS
;	COMDAT ??_C@_0M@BJGLMKCC@glAlphaFunc@
CONST	SEGMENT
??_C@_0M@BJGLMKCC@glAlphaFunc@ DB 'glAlphaFunc', 00H	; `string'
CONST	ENDS
;	COMDAT ??_C@_0N@BFGDHBFK@glEvalPoint2@
CONST	SEGMENT
??_C@_0N@BFGDHBFK@glEvalPoint2@ DB 'glEvalPoint2', 00H	; `string'
CONST	ENDS
;	COMDAT ??_C@_0M@BJHJGIPD@glEvalMesh2@
CONST	SEGMENT
??_C@_0M@BJHJGIPD@glEvalMesh2@ DB 'glEvalMesh2', 00H	; `string'
CONST	ENDS
;	COMDAT ??_C@_0N@DOEOCCJJ@glEvalPoint1@
CONST	SEGMENT
??_C@_0N@DOEOCCJJ@glEvalPoint1@ DB 'glEvalPoint1', 00H	; `string'
CONST	ENDS
;	COMDAT ??_C@_0M@DCFEDLDA@glEvalMesh1@
CONST	SEGMENT
??_C@_0M@DCFEDLDA@glEvalMesh1@ DB 'glEvalMesh1', 00H	; `string'
CONST	ENDS
;	COMDAT ??_C@_0P@LAAAJGBJ@glEvalCoord2fv@
CONST	SEGMENT
??_C@_0P@LAAAJGBJ@glEvalCoord2fv@ DB 'glEvalCoord2fv', 00H ; `string'
CONST	ENDS
;	COMDAT ??_C@_0O@GJGIOPHD@glEvalCoord2f@
CONST	SEGMENT
??_C@_0O@GJGIOPHD@glEvalCoord2f@ DB 'glEvalCoord2f', 00H ; `string'
CONST	ENDS
;	COMDAT ??_C@_0P@LDIEECHH@glEvalCoord2dv@
CONST	SEGMENT
??_C@_0P@LDIEECHH@glEvalCoord2dv@ DB 'glEvalCoord2dv', 00H ; `string'
CONST	ENDS
;	COMDAT ??_C@_0O@FLFOINPB@glEvalCoord2d@
CONST	SEGMENT
??_C@_0O@FLFOINPB@glEvalCoord2d@ DB 'glEvalCoord2d', 00H ; `string'
CONST	ENDS
;	COMDAT ??_C@_0P@KCLFDJPH@glEvalCoord1fv@
CONST	SEGMENT
??_C@_0P@KCLFDJPH@glEvalCoord1fv@ DB 'glEvalCoord1fv', 00H ; `string'
CONST	ENDS
;	COMDAT ??_C@_0O@GLCOFBCK@glEvalCoord1f@
CONST	SEGMENT
??_C@_0O@GLCOFBCK@glEvalCoord1f@ DB 'glEvalCoord1f', 00H ; `string'
CONST	ENDS
;	COMDAT ??_C@_0P@KBDBONJJ@glEvalCoord1dv@
CONST	SEGMENT
??_C@_0P@KBDBONJJ@glEvalCoord1dv@ DB 'glEvalCoord1dv', 00H ; `string'
CONST	ENDS
;	COMDAT ??_C@_0O@FJBIDDKI@glEvalCoord1d@
CONST	SEGMENT
??_C@_0O@FJBIDDKI@glEvalCoord1d@ DB 'glEvalCoord1d', 00H ; `string'
CONST	ENDS
;	COMDAT ??_C@_0M@PNEKFPAF@glMapGrid2f@
CONST	SEGMENT
??_C@_0M@PNEKFPAF@glMapGrid2f@ DB 'glMapGrid2f', 00H	; `string'
CONST	ENDS
;	COMDAT ??_C@_0M@MPHMDNIH@glMapGrid2d@
CONST	SEGMENT
??_C@_0M@MPHMDNIH@glMapGrid2d@ DB 'glMapGrid2d', 00H	; `string'
CONST	ENDS
;	COMDAT ??_C@_0M@PPAMOBFM@glMapGrid1f@
CONST	SEGMENT
??_C@_0M@PPAMOBFM@glMapGrid1f@ DB 'glMapGrid1f', 00H	; `string'
CONST	ENDS
;	COMDAT ??_C@_0M@MNDKIDNO@glMapGrid1d@
CONST	SEGMENT
??_C@_0M@MNDKIDNO@glMapGrid1d@ DB 'glMapGrid1d', 00H	; `string'
CONST	ENDS
;	COMDAT ??_C@_07GEAGLFKJ@glMap2f@
CONST	SEGMENT
??_C@_07GEAGLFKJ@glMap2f@ DB 'glMap2f', 00H		; `string'
CONST	ENDS
;	COMDAT ??_C@_07FGDANHCL@glMap2d@
CONST	SEGMENT
??_C@_07FGDANHCL@glMap2d@ DB 'glMap2d', 00H		; `string'
CONST	ENDS
;	COMDAT ??_C@_07GGEAALPA@glMap1f@
CONST	SEGMENT
??_C@_07GGEAALPA@glMap1f@ DB 'glMap1f', 00H		; `string'
CONST	ENDS
;	COMDAT ??_C@_07FEHGGJHC@glMap1d@
CONST	SEGMENT
??_C@_07FEHGGJHC@glMap1d@ DB 'glMap1d', 00H		; `string'
CONST	ENDS
;	COMDAT ??_C@_0N@KDMLHFJM@glPushAttrib@
CONST	SEGMENT
??_C@_0N@KDMLHFJM@glPushAttrib@ DB 'glPushAttrib', 00H	; `string'
CONST	ENDS
;	COMDAT ??_C@_0M@LLNGAHMN@glPopAttrib@
CONST	SEGMENT
??_C@_0M@LLNGAHMN@glPopAttrib@ DB 'glPopAttrib', 00H	; `string'
CONST	ENDS
;	COMDAT ??_C@_07LNIJJMEN@glAccum@
CONST	SEGMENT
??_C@_07LNIJJMEN@glAccum@ DB 'glAccum', 00H		; `string'
CONST	ENDS
;	COMDAT ??_C@_0M@ONDJOEOA@glIndexMask@
CONST	SEGMENT
??_C@_0M@ONDJOEOA@glIndexMask@ DB 'glIndexMask', 00H	; `string'
CONST	ENDS
;	COMDAT ??_C@_0N@EIILHCMH@glClearIndex@
CONST	SEGMENT
??_C@_0N@EIILHCMH@glClearIndex@ DB 'glClearIndex', 00H	; `string'
CONST	ENDS
;	COMDAT ??_C@_0N@OKAMEJMG@glClearAccum@
CONST	SEGMENT
??_C@_0N@OKAMEJMG@glClearAccum@ DB 'glClearAccum', 00H	; `string'
CONST	ENDS
;	COMDAT ??_C@_0L@LFFFABIK@glPushName@
CONST	SEGMENT
??_C@_0L@LFFFABIK@glPushName@ DB 'glPushName', 00H	; `string'
CONST	ENDS
;	COMDAT ??_C@_09IKDPIJOE@glPopName@
CONST	SEGMENT
??_C@_09IKDPIJOE@glPopName@ DB 'glPopName', 00H		; `string'
CONST	ENDS
;	COMDAT ??_C@_0O@KCIMMNEH@glPassThrough@
CONST	SEGMENT
??_C@_0O@KCIMMNEH@glPassThrough@ DB 'glPassThrough', 00H ; `string'
CONST	ENDS
;	COMDAT ??_C@_0L@JFFJNAJA@glLoadName@
CONST	SEGMENT
??_C@_0L@JFFJNAJA@glLoadName@ DB 'glLoadName', 00H	; `string'
CONST	ENDS
;	COMDAT ??_C@_0M@LBOBLINN@glInitNames@
CONST	SEGMENT
??_C@_0M@LBOBLINN@glInitNames@ DB 'glInitNames', 00H	; `string'
CONST	ENDS
;	COMDAT ??_C@_0N@HCFJFDGP@glRenderMode@
CONST	SEGMENT
??_C@_0N@HCFJFDGP@glRenderMode@ DB 'glRenderMode', 00H	; `string'
CONST	ENDS
;	COMDAT ??_C@_0P@KACPMBCN@glSelectBuffer@
CONST	SEGMENT
??_C@_0P@KACPMBCN@glSelectBuffer@ DB 'glSelectBuffer', 00H ; `string'
CONST	ENDS
;	COMDAT ??_C@_0BB@COFAIKCN@glFeedbackBuffer@
CONST	SEGMENT
??_C@_0BB@COFAIKCN@glFeedbackBuffer@ DB 'glFeedbackBuffer', 00H ; `string'
CONST	ENDS
;	COMDAT ??_C@_0L@OIGLGFLJ@glTexGeniv@
CONST	SEGMENT
??_C@_0L@OIGLGFLJ@glTexGeniv@ DB 'glTexGeniv', 00H	; `string'
CONST	ENDS
;	COMDAT ??_C@_09GKNHFOEO@glTexGeni@
CONST	SEGMENT
??_C@_09GKNHFOEO@glTexGeni@ DB 'glTexGeni', 00H		; `string'
CONST	ENDS
;	COMDAT ??_C@_0L@ODDHCCIE@glTexGenfv@
CONST	SEGMENT
??_C@_0L@ODDHCCIE@glTexGenfv@ DB 'glTexGenfv', 00H	; `string'
CONST	ENDS
;	COMDAT ??_C@_09ONEPECIB@glTexGenf@
CONST	SEGMENT
??_C@_09ONEPECIB@glTexGenf@ DB 'glTexGenf', 00H		; `string'
CONST	ENDS
;	COMDAT ??_C@_0L@OALDPGOK@glTexGendv@
CONST	SEGMENT
??_C@_0L@OALDPGOK@glTexGendv@ DB 'glTexGendv', 00H	; `string'
CONST	ENDS
;	COMDAT ??_C@_09NPHJCAAD@glTexGend@
CONST	SEGMENT
??_C@_09NPHJCAAD@glTexGend@ DB 'glTexGend', 00H		; `string'
CONST	ENDS
;	COMDAT ??_C@_0L@EHNOIKND@glTexEnviv@
CONST	SEGMENT
??_C@_0L@EHNOIKND@glTexEnviv@ DB 'glTexEnviv', 00H	; `string'
CONST	ENDS
;	COMDAT ??_C@_09NFCDHIOH@glTexEnvi@
CONST	SEGMENT
??_C@_09NFCDHIOH@glTexEnvi@ DB 'glTexEnvi', 00H		; `string'
CONST	ENDS
;	COMDAT ??_C@_0L@EMICMNOO@glTexEnvfv@
CONST	SEGMENT
??_C@_0L@EMICMNOO@glTexEnvfv@ DB 'glTexEnvfv', 00H	; `string'
CONST	ENDS
;	COMDAT ??_C@_09FCLLGECI@glTexEnvf@
CONST	SEGMENT
??_C@_09FCLLGECI@glTexEnvf@ DB 'glTexEnvf', 00H		; `string'
CONST	ENDS
;	COMDAT ??_C@_0N@NALMFHKN@glShadeModel@
CONST	SEGMENT
??_C@_0N@NALMFHKN@glShadeModel@ DB 'glShadeModel', 00H	; `string'
CONST	ENDS
;	COMDAT ??_C@_0BB@GIADEJGP@glPolygonStipple@
CONST	SEGMENT
??_C@_0BB@GIADEJGP@glPolygonStipple@ DB 'glPolygonStipple', 00H ; `string'
CONST	ENDS
;	COMDAT ??_C@_0N@HCDOEFL@glMaterialiv@
CONST	SEGMENT
??_C@_0N@HCDOEFL@glMaterialiv@ DB 'glMaterialiv', 00H	; `string'
CONST	ENDS
;	COMDAT ??_C@_0M@PHEGJGAN@glMateriali@
CONST	SEGMENT
??_C@_0M@PHEGJGAN@glMateriali@ DB 'glMateriali', 00H	; `string'
CONST	ENDS
;	COMDAT ??_C@_0N@MHPKDGG@glMaterialfv@
CONST	SEGMENT
??_C@_0N@MHPKDGG@glMaterialfv@ DB 'glMaterialfv', 00H	; `string'
CONST	ENDS
;	COMDAT ??_C@_0M@HANOIKMC@glMaterialf@
CONST	SEGMENT
??_C@_0M@HANOIKMC@glMaterialf@ DB 'glMaterialf', 00H	; `string'
CONST	ENDS
;	COMDAT ??_C@_0O@LDOINBOK@glLineStipple@
CONST	SEGMENT
??_C@_0O@LDOINBOK@glLineStipple@ DB 'glLineStipple', 00H ; `string'
CONST	ENDS
;	COMDAT ??_C@_0P@JBCFLLOP@glLightModeliv@
CONST	SEGMENT
??_C@_0P@JBCFLLOP@glLightModeliv@ DB 'glLightModeliv', 00H ; `string'
CONST	ENDS
;	COMDAT ??_C@_0O@PILBKMEH@glLightModeli@
CONST	SEGMENT
??_C@_0O@PILBKMEH@glLightModeli@ DB 'glLightModeli', 00H ; `string'
CONST	ENDS
;	COMDAT ??_C@_0P@JKHJPMNC@glLightModelfv@
CONST	SEGMENT
??_C@_0P@JKHJPMNC@glLightModelfv@ DB 'glLightModelfv', 00H ; `string'
CONST	ENDS
;	COMDAT ??_C@_0O@HPCJLAII@glLightModelf@
CONST	SEGMENT
??_C@_0O@HPCJLAII@glLightModelf@ DB 'glLightModelf', 00H ; `string'
CONST	ENDS
;	COMDAT ??_C@_09JDIIDONO@glLightiv@
CONST	SEGMENT
??_C@_09JDIIDONO@glLightiv@ DB 'glLightiv', 00H		; `string'
CONST	ENDS
;	COMDAT ??_C@_08DIKHJHIE@glLighti@
CONST	SEGMENT
??_C@_08DIKHJHIE@glLighti@ DB 'glLighti', 00H		; `string'
CONST	ENDS
;	COMDAT ??_C@_09JINEHJOD@glLightfv@
CONST	SEGMENT
??_C@_09JINEHJOD@glLightfv@ DB 'glLightfv', 00H		; `string'
CONST	ENDS
;	COMDAT ??_C@_08LPDPILEL@glLightf@
CONST	SEGMENT
??_C@_08LPDPILEL@glLightf@ DB 'glLightf', 00H		; `string'
CONST	ENDS
;	COMDAT ??_C@_07FGBEEHCN@glFogiv@
CONST	SEGMENT
??_C@_07FGBEEHCN@glFogiv@ DB 'glFogiv', 00H		; `string'
CONST	ENDS
;	COMDAT ??_C@_06BOOFNKDM@glFogi@
CONST	SEGMENT
??_C@_06BOOFNKDM@glFogi@ DB 'glFogi', 00H		; `string'
CONST	ENDS
;	COMDAT ??_C@_07FNEIAABA@glFogfv@
CONST	SEGMENT
??_C@_07FNEIAABA@glFogfv@ DB 'glFogfv', 00H		; `string'
CONST	ENDS
;	COMDAT ??_C@_06JJHNMGPD@glFogf@
CONST	SEGMENT
??_C@_06JJHNMGPD@glFogf@ DB 'glFogf', 00H		; `string'
CONST	ENDS
;	COMDAT ??_C@_0BA@OOEHEGPC@glColorMaterial@
CONST	SEGMENT
??_C@_0BA@OOEHEGPC@glColorMaterial@ DB 'glColorMaterial', 00H ; `string'
CONST	ENDS
;	COMDAT ??_C@_0M@OHCNGGFF@glClipPlane@
CONST	SEGMENT
??_C@_0M@OHCNGGFF@glClipPlane@ DB 'glClipPlane', 00H	; `string'
CONST	ENDS
;	COMDAT ??_C@_0M@BHICLKLB@glVertex4sv@
CONST	SEGMENT
??_C@_0M@BHICLKLB@glVertex4sv@ DB 'glVertex4sv', 00H	; `string'
CONST	ENDS
;	COMDAT ??_C@_0L@IMGCCGJH@glVertex4s@
CONST	SEGMENT
??_C@_0L@IMGCCGJH@glVertex4s@ DB 'glVertex4s', 00H	; `string'
CONST	ENDS
;	COMDAT ??_C@_0M@GDDJMBH@glVertex4iv@
CONST	SEGMENT
??_C@_0M@GDDJMBH@glVertex4iv@ DB 'glVertex4iv', 00H	; `string'
CONST	ENDS
;	COMDAT ??_C@_0L@DMEPNMEM@glVertex4i@
CONST	SEGMENT
??_C@_0L@DMEPNMEM@glVertex4i@ DB 'glVertex4i', 00H	; `string'
CONST	ENDS
;	COMDAT ??_C@_0M@NGPNLCK@glVertex4fv@
CONST	SEGMENT
??_C@_0M@NGPNLCK@glVertex4fv@ DB 'glVertex4fv', 00H	; `string'
CONST	ENDS
;	COMDAT ??_C@_0L@LLNHMAID@glVertex4f@
CONST	SEGMENT
??_C@_0L@LLNHMAID@glVertex4f@ DB 'glVertex4f', 00H	; `string'
CONST	ENDS
;	COMDAT ??_C@_0M@OOLAPEE@glVertex4dv@
CONST	SEGMENT
??_C@_0M@OOLAPEE@glVertex4dv@ DB 'glVertex4dv', 00H	; `string'
CONST	ENDS
;	COMDAT ??_C@_0L@IJOBKCAB@glVertex4d@
CONST	SEGMENT
??_C@_0L@IJOBKCAB@glVertex4d@ DB 'glVertex4d', 00H	; `string'
CONST	ENDS
;	COMDAT ??_C@_0M@IKFFICAI@glVertex3sv@
CONST	SEGMENT
??_C@_0M@IKFFICAI@glVertex3sv@ DB 'glVertex3sv', 00H	; `string'
CONST	ENDS
;	COMDAT ??_C@_0L@IJCNDABC@glVertex3s@
CONST	SEGMENT
??_C@_0L@IJCNDABC@glVertex3s@ DB 'glVertex3s', 00H	; `string'
CONST	ENDS
;	COMDAT ??_C@_0M@JLOEKEKO@glVertex3iv@
CONST	SEGMENT
??_C@_0M@JLOEKEKO@glVertex3iv@ DB 'glVertex3iv', 00H	; `string'
CONST	ENDS
;	COMDAT ??_C@_0L@DJAAMKMJ@glVertex3i@
CONST	SEGMENT
??_C@_0L@DJAAMKMJ@glVertex3i@ DB 'glVertex3i', 00H	; `string'
CONST	ENDS
;	COMDAT ??_C@_0M@JALIODJD@glVertex3fv@
CONST	SEGMENT
??_C@_0M@JALIODJD@glVertex3fv@ DB 'glVertex3fv', 00H	; `string'
CONST	ENDS
;	COMDAT ??_C@_0L@LOJINGAG@glVertex3f@
CONST	SEGMENT
??_C@_0L@LOJINGAG@glVertex3f@ DB 'glVertex3f', 00H	; `string'
CONST	ENDS
;	COMDAT ??_C@_0M@JDDMDHPN@glVertex3dv@
CONST	SEGMENT
??_C@_0M@JDDMDHPN@glVertex3dv@ DB 'glVertex3dv', 00H	; `string'
CONST	ENDS
;	COMDAT ??_C@_0L@IMKOLEIE@glVertex3d@
CONST	SEGMENT
??_C@_0L@IMKOLEIE@glVertex3d@ DB 'glVertex3d', 00H	; `string'
CONST	ENDS
;	COMDAT ??_C@_0M@DCOJOFGN@glVertex2sv@
CONST	SEGMENT
??_C@_0M@DCOJOFGN@glVertex2sv@ DB 'glVertex2sv', 00H	; `string'
CONST	ENDS
;	COMDAT ??_C@_0L@IIOPFKCF@glVertex2s@
CONST	SEGMENT
??_C@_0L@IIOPFKCF@glVertex2s@ DB 'glVertex2s', 00H	; `string'
CONST	ENDS
;	COMDAT ??_C@_0M@CDFIMDML@glVertex2iv@
CONST	SEGMENT
??_C@_0M@CDFIMDML@glVertex2iv@ DB 'glVertex2iv', 00H	; `string'
CONST	ENDS
;	COMDAT ??_C@_0L@DIMCKAPO@glVertex2i@
CONST	SEGMENT
??_C@_0L@DIMCKAPO@glVertex2i@ DB 'glVertex2i', 00H	; `string'
CONST	ENDS
;	COMDAT ??_C@_0M@CIAEIEPG@glVertex2fv@
CONST	SEGMENT
??_C@_0M@CIAEIEPG@glVertex2fv@ DB 'glVertex2fv', 00H	; `string'
CONST	ENDS
;	COMDAT ??_C@_0L@LPFKLMDB@glVertex2f@
CONST	SEGMENT
??_C@_0L@LPFKLMDB@glVertex2f@ DB 'glVertex2f', 00H	; `string'
CONST	ENDS
;	COMDAT ??_C@_0M@CLIAFAJI@glVertex2dv@
CONST	SEGMENT
??_C@_0M@CLIAFAJI@glVertex2dv@ DB 'glVertex2dv', 00H	; `string'
CONST	ENDS
;	COMDAT ??_C@_0L@INGMNOLD@glVertex2d@
CONST	SEGMENT
??_C@_0L@INGMNOLD@glVertex2d@ DB 'glVertex2d', 00H	; `string'
CONST	ENDS
;	COMDAT ??_C@_0O@EBJEPFAA@glTexCoord4sv@
CONST	SEGMENT
??_C@_0O@EBJEPFAA@glTexCoord4sv@ DB 'glTexCoord4sv', 00H ; `string'
CONST	ENDS
;	COMDAT ??_C@_0N@CJOJLEKC@glTexCoord4s@
CONST	SEGMENT
??_C@_0N@CJOJLEKC@glTexCoord4s@ DB 'glTexCoord4s', 00H	; `string'
CONST	ENDS
;	COMDAT ??_C@_0O@FACFNDKG@glTexCoord4iv@
CONST	SEGMENT
??_C@_0O@FACFNDKG@glTexCoord4iv@ DB 'glTexCoord4iv', 00H ; `string'
CONST	ENDS
;	COMDAT ??_C@_0N@JJMEEOHJ@glTexCoord4i@
CONST	SEGMENT
??_C@_0N@JJMEEOHJ@glTexCoord4i@ DB 'glTexCoord4i', 00H	; `string'
CONST	ENDS
;	COMDAT ??_C@_0O@FLHJJEJL@glTexCoord4fv@
CONST	SEGMENT
??_C@_0O@FLHJJEJL@glTexCoord4fv@ DB 'glTexCoord4fv', 00H ; `string'
CONST	ENDS
;	COMDAT ??_C@_0N@BOFMFCLG@glTexCoord4f@
CONST	SEGMENT
??_C@_0N@BOFMFCLG@glTexCoord4f@ DB 'glTexCoord4f', 00H	; `string'
CONST	ENDS
;	COMDAT ??_C@_0O@FIPNEAPF@glTexCoord4dv@
CONST	SEGMENT
??_C@_0O@FIPNEAPF@glTexCoord4dv@ DB 'glTexCoord4dv', 00H ; `string'
CONST	ENDS
;	COMDAT ??_C@_0N@CMGKDADE@glTexCoord4d@
CONST	SEGMENT
??_C@_0N@CMGKDADE@glTexCoord4d@ DB 'glTexCoord4d', 00H	; `string'
CONST	ENDS
;	COMDAT ??_C@_0O@NMEDMNLJ@glTexCoord3sv@
CONST	SEGMENT
??_C@_0O@NMEDMNLJ@glTexCoord3sv@ DB 'glTexCoord3sv', 00H ; `string'
CONST	ENDS
;	COMDAT ??_C@_0N@CMKGKCCH@glTexCoord3s@
CONST	SEGMENT
??_C@_0N@CMKGKCCH@glTexCoord3s@ DB 'glTexCoord3s', 00H	; `string'
CONST	ENDS
;	COMDAT ??_C@_0O@MNPCOLBP@glTexCoord3iv@
CONST	SEGMENT
??_C@_0O@MNPCOLBP@glTexCoord3iv@ DB 'glTexCoord3iv', 00H ; `string'
CONST	ENDS
;	COMDAT ??_C@_0N@JMILFIPM@glTexCoord3i@
CONST	SEGMENT
??_C@_0N@JMILFIPM@glTexCoord3i@ DB 'glTexCoord3i', 00H	; `string'
CONST	ENDS
;	COMDAT ??_C@_0O@MGKOKMCC@glTexCoord3fv@
CONST	SEGMENT
??_C@_0O@MGKOKMCC@glTexCoord3fv@ DB 'glTexCoord3fv', 00H ; `string'
CONST	ENDS
;	COMDAT ??_C@_0N@BLBDEEDD@glTexCoord3f@
CONST	SEGMENT
??_C@_0N@BLBDEEDD@glTexCoord3f@ DB 'glTexCoord3f', 00H	; `string'
CONST	ENDS
;	COMDAT ??_C@_0O@MFCKHIEM@glTexCoord3dv@
CONST	SEGMENT
??_C@_0O@MFCKHIEM@glTexCoord3dv@ DB 'glTexCoord3dv', 00H ; `string'
CONST	ENDS
;	COMDAT ??_C@_0N@CJCFCGLB@glTexCoord3d@
CONST	SEGMENT
??_C@_0N@CJCFCGLB@glTexCoord3d@ DB 'glTexCoord3d', 00H	; `string'
CONST	ENDS
;	COMDAT ??_C@_0O@GEPPKKNM@glTexCoord2sv@
CONST	SEGMENT
??_C@_0O@GEPPKKNM@glTexCoord2sv@ DB 'glTexCoord2sv', 00H ; `string'
CONST	ENDS
;	COMDAT ??_C@_0N@CNGEMIBA@glTexCoord2s@
CONST	SEGMENT
??_C@_0N@CNGEMIBA@glTexCoord2s@ DB 'glTexCoord2s', 00H	; `string'
CONST	ENDS
;	COMDAT ??_C@_0O@HFEOIMHK@glTexCoord2iv@
CONST	SEGMENT
??_C@_0O@HFEOIMHK@glTexCoord2iv@ DB 'glTexCoord2iv', 00H ; `string'
CONST	ENDS
;	COMDAT ??_C@_0N@JNEJDCML@glTexCoord2i@
CONST	SEGMENT
??_C@_0N@JNEJDCML@glTexCoord2i@ DB 'glTexCoord2i', 00H	; `string'
CONST	ENDS
;	COMDAT ??_C@_0O@HOBCMLEH@glTexCoord2fv@
CONST	SEGMENT
??_C@_0O@HOBCMLEH@glTexCoord2fv@ DB 'glTexCoord2fv', 00H ; `string'
CONST	ENDS
;	COMDAT ??_C@_0N@BKNBCOAE@glTexCoord2f@
CONST	SEGMENT
??_C@_0N@BKNBCOAE@glTexCoord2f@ DB 'glTexCoord2f', 00H	; `string'
CONST	ENDS
;	COMDAT ??_C@_0O@HNJGBPCJ@glTexCoord2dv@
CONST	SEGMENT
??_C@_0O@HNJGBPCJ@glTexCoord2dv@ DB 'glTexCoord2dv', 00H ; `string'
CONST	ENDS
;	COMDAT ??_C@_0N@CIOHEMIG@glTexCoord2d@
CONST	SEGMENT
??_C@_0N@CIOHEMIG@glTexCoord2d@ DB 'glTexCoord2d', 00H	; `string'
CONST	ENDS
;	COMDAT ??_C@_0O@HGEKAFDC@glTexCoord1sv@
CONST	SEGMENT
??_C@_0O@HGEKAFDC@glTexCoord1sv@ DB 'glTexCoord1sv', 00H ; `string'
CONST	ENDS
;	COMDAT ??_C@_0N@CPCCHGEJ@glTexCoord1s@
CONST	SEGMENT
??_C@_0N@CPCCHGEJ@glTexCoord1s@ DB 'glTexCoord1s', 00H	; `string'
CONST	ENDS
;	COMDAT ??_C@_0O@GHPLCDJE@glTexCoord1iv@
CONST	SEGMENT
??_C@_0O@GHPLCDJE@glTexCoord1iv@ DB 'glTexCoord1iv', 00H ; `string'
CONST	ENDS
;	COMDAT ??_C@_0N@JPAPIMJC@glTexCoord1i@
CONST	SEGMENT
??_C@_0N@JPAPIMJC@glTexCoord1i@ DB 'glTexCoord1i', 00H	; `string'
CONST	ENDS
;	COMDAT ??_C@_0O@GMKHGEKJ@glTexCoord1fv@
CONST	SEGMENT
??_C@_0O@GMKHGEKJ@glTexCoord1fv@ DB 'glTexCoord1fv', 00H ; `string'
CONST	ENDS
;	COMDAT ??_C@_0N@BIJHJAFN@glTexCoord1f@
CONST	SEGMENT
??_C@_0N@BIJHJAFN@glTexCoord1f@ DB 'glTexCoord1f', 00H	; `string'
CONST	ENDS
;	COMDAT ??_C@_0O@GPCDLAMH@glTexCoord1dv@
CONST	SEGMENT
??_C@_0O@GPCDLAMH@glTexCoord1dv@ DB 'glTexCoord1dv', 00H ; `string'
CONST	ENDS
;	COMDAT ??_C@_0N@CKKBPCNP@glTexCoord1d@
CONST	SEGMENT
??_C@_0N@CKKBPCNP@glTexCoord1d@ DB 'glTexCoord1d', 00H	; `string'
CONST	ENDS
;	COMDAT ??_C@_08FPNOOGJA@glRectsv@
CONST	SEGMENT
??_C@_08FPNOOGJA@glRectsv@ DB 'glRectsv', 00H		; `string'
CONST	ENDS
;	COMDAT ??_C@_07GCAIEMDA@glRects@
CONST	SEGMENT
??_C@_07GCAIEMDA@glRects@ DB 'glRects', 00H		; `string'
CONST	ENDS
;	COMDAT ??_C@_08EOGPMADG@glRectiv@
CONST	SEGMENT
??_C@_08EOGPMADG@glRectiv@ DB 'glRectiv', 00H		; `string'
CONST	ENDS
;	COMDAT ??_C@_07NCCFLGOL@glRecti@
CONST	SEGMENT
??_C@_07NCCFLGOL@glRecti@ DB 'glRecti', 00H		; `string'
CONST	ENDS
;	COMDAT ??_C@_08EFDDIHAL@glRectfv@
CONST	SEGMENT
??_C@_08EFDDIHAL@glRectfv@ DB 'glRectfv', 00H		; `string'
CONST	ENDS
;	COMDAT ??_C@_07FFLNKKCE@glRectf@
CONST	SEGMENT
??_C@_07FFLNKKCE@glRectf@ DB 'glRectf', 00H		; `string'
CONST	ENDS
;	COMDAT ??_C@_08EGLHFDGF@glRectdv@
CONST	SEGMENT
??_C@_08EGLHFDGF@glRectdv@ DB 'glRectdv', 00H		; `string'
CONST	ENDS
;	COMDAT ??_C@_07GHILMIKG@glRectd@
CONST	SEGMENT
??_C@_07GHILMIKG@glRectd@ DB 'glRectd', 00H		; `string'
CONST	ENDS
;	COMDAT ??_C@_0P@NJGHOAAG@glRasterPos4sv@
CONST	SEGMENT
??_C@_0P@NJGHOAAG@glRasterPos4sv@ DB 'glRasterPos4sv', 00H ; `string'
CONST	ENDS
;	COMDAT ??_C@_0O@INMAOOA@glRasterPos4s@
CONST	SEGMENT
??_C@_0O@INMAOOA@glRasterPos4s@ DB 'glRasterPos4s', 00H	; `string'
CONST	ENDS
;	COMDAT ??_C@_0P@MINGMGKA@glRasterPos4iv@
CONST	SEGMENT
??_C@_0P@MINGMGKA@glRasterPos4iv@ DB 'glRasterPos4iv', 00H ; `string'
CONST	ENDS
;	COMDAT ??_C@_0O@LIPBPEDL@glRasterPos4i@
CONST	SEGMENT
??_C@_0O@LIPBPEDL@glRasterPos4i@ DB 'glRasterPos4i', 00H ; `string'
CONST	ENDS
;	COMDAT ??_C@_0P@MDIKIBJN@glRasterPos4fv@
CONST	SEGMENT
??_C@_0P@MDIKIBJN@glRasterPos4fv@ DB 'glRasterPos4fv', 00H ; `string'
CONST	ENDS
;	COMDAT ??_C@_0O@DPGJOIPE@glRasterPos4f@
CONST	SEGMENT
??_C@_0O@DPGJOIPE@glRasterPos4f@ DB 'glRasterPos4f', 00H ; `string'
CONST	ENDS
;	COMDAT ??_C@_0P@MAAOFFPD@glRasterPos4dv@
CONST	SEGMENT
??_C@_0P@MAAOFFPD@glRasterPos4dv@ DB 'glRasterPos4dv', 00H ; `string'
CONST	ENDS
;	COMDAT ??_C@_0O@NFPIKHG@glRasterPos4d@
CONST	SEGMENT
??_C@_0O@NFPIKHG@glRasterPos4d@ DB 'glRasterPos4d', 00H	; `string'
CONST	ENDS
;	COMDAT ??_C@_0P@EELANILP@glRasterPos3sv@
CONST	SEGMENT
??_C@_0P@EELANILP@glRasterPos3sv@ DB 'glRasterPos3sv', 00H ; `string'
CONST	ENDS
;	COMDAT ??_C@_0O@NJDBIGF@glRasterPos3s@
CONST	SEGMENT
??_C@_0O@NJDBIGF@glRasterPos3s@ DB 'glRasterPos3s', 00H	; `string'
CONST	ENDS
;	COMDAT ??_C@_0P@FFABPOBJ@glRasterPos3iv@
CONST	SEGMENT
??_C@_0P@FFABPOBJ@glRasterPos3iv@ DB 'glRasterPos3iv', 00H ; `string'
CONST	ENDS
;	COMDAT ??_C@_0O@LNLOOCLO@glRasterPos3i@
CONST	SEGMENT
??_C@_0O@LNLOOCLO@glRasterPos3i@ DB 'glRasterPos3i', 00H ; `string'
CONST	ENDS
;	COMDAT ??_C@_0P@FOFNLJCE@glRasterPos3fv@
CONST	SEGMENT
??_C@_0P@FOFNLJCE@glRasterPos3fv@ DB 'glRasterPos3fv', 00H ; `string'
CONST	ENDS
;	COMDAT ??_C@_0O@DKCGPOHB@glRasterPos3f@
CONST	SEGMENT
??_C@_0O@DKCGPOHB@glRasterPos3f@ DB 'glRasterPos3f', 00H ; `string'
CONST	ENDS
;	COMDAT ??_C@_0P@FNNJGNEK@glRasterPos3dv@
CONST	SEGMENT
??_C@_0P@FNNJGNEK@glRasterPos3dv@ DB 'glRasterPos3dv', 00H ; `string'
CONST	ENDS
;	COMDAT ??_C@_0O@IBAJMPD@glRasterPos3d@
CONST	SEGMENT
??_C@_0O@IBAJMPD@glRasterPos3d@ DB 'glRasterPos3d', 00H	; `string'
CONST	ENDS
;	COMDAT ??_C@_0P@PMAMLPNK@glRasterPos2sv@
CONST	SEGMENT
??_C@_0P@PMAMLPNK@glRasterPos2sv@ DB 'glRasterPos2sv', 00H ; `string'
CONST	ENDS
;	COMDAT ??_C@_0O@MFBHCFC@glRasterPos2s@
CONST	SEGMENT
??_C@_0O@MFBHCFC@glRasterPos2s@ DB 'glRasterPos2s', 00H	; `string'
CONST	ENDS
;	COMDAT ??_C@_0P@ONLNJJHM@glRasterPos2iv@
CONST	SEGMENT
??_C@_0P@ONLNJJHM@glRasterPos2iv@ DB 'glRasterPos2iv', 00H ; `string'
CONST	ENDS
;	COMDAT ??_C@_0O@LMHMIIIJ@glRasterPos2i@
CONST	SEGMENT
??_C@_0O@LMHMIIIJ@glRasterPos2i@ DB 'glRasterPos2i', 00H ; `string'
CONST	ENDS
;	COMDAT ??_C@_0P@OGOBNOEB@glRasterPos2fv@
CONST	SEGMENT
??_C@_0P@OGOBNOEB@glRasterPos2fv@ DB 'glRasterPos2fv', 00H ; `string'
CONST	ENDS
;	COMDAT ??_C@_0O@DLOEJEEG@glRasterPos2f@
CONST	SEGMENT
??_C@_0O@DLOEJEEG@glRasterPos2f@ DB 'glRasterPos2f', 00H ; `string'
CONST	ENDS
;	COMDAT ??_C@_0P@OFGFAKCP@glRasterPos2dv@
CONST	SEGMENT
??_C@_0P@OFGFAKCP@glRasterPos2dv@ DB 'glRasterPos2dv', 00H ; `string'
CONST	ENDS
;	COMDAT ??_C@_0O@JNCPGME@glRasterPos2d@
CONST	SEGMENT
??_C@_0O@JNCPGME@glRasterPos2d@ DB 'glRasterPos2d', 00H	; `string'
CONST	ENDS
;	COMDAT ??_C@_0M@NHLFGDMD@glNormal3sv@
CONST	SEGMENT
??_C@_0M@NHLFGDMD@glNormal3sv@ DB 'glNormal3sv', 00H	; `string'
CONST	ENDS
;	COMDAT ??_C@_0L@BNHPJOI@glNormal3s@
CONST	SEGMENT
??_C@_0L@BNHPJOI@glNormal3s@ DB 'glNormal3s', 00H	; `string'
CONST	ENDS
;	COMDAT ??_C@_0M@MGAEEFGF@glNormal3iv@
CONST	SEGMENT
??_C@_0M@MGAEEFGF@glNormal3iv@ DB 'glNormal3iv', 00H	; `string'
CONST	ENDS
;	COMDAT ??_C@_0L@LBPKADDD@glNormal3i@
CONST	SEGMENT
??_C@_0L@LBPKADDD@glNormal3i@ DB 'glNormal3i', 00H	; `string'
CONST	ENDS
;	COMDAT ??_C@_0M@MNFIACFI@glNormal3fv@
CONST	SEGMENT
??_C@_0M@MNFIACFI@glNormal3fv@ DB 'glNormal3fv', 00H	; `string'
CONST	ENDS
;	COMDAT ??_C@_0L@DGGCBPPM@glNormal3f@
CONST	SEGMENT
??_C@_0L@DGGCBPPM@glNormal3f@ DB 'glNormal3f', 00H	; `string'
CONST	ENDS
;	COMDAT ??_C@_0M@MONMNGDG@glNormal3dv@
CONST	SEGMENT
??_C@_0M@MONMNGDG@glNormal3dv@ DB 'glNormal3dv', 00H	; `string'
CONST	ENDS
;	COMDAT ??_C@_0L@EFEHNHO@glNormal3d@
CONST	SEGMENT
??_C@_0L@EFEHNHO@glNormal3d@ DB 'glNormal3d', 00H	; `string'
CONST	ENDS
;	COMDAT ??_C@_0M@MKFBKKIE@glNormal3bv@
CONST	SEGMENT
??_C@_0M@MKFBKKIE@glNormal3bv@ DB 'glNormal3bv', 00H	; `string'
CONST	ENDS
;	COMDAT ??_C@_0L@FCAONKPI@glNormal3b@
CONST	SEGMENT
??_C@_0L@FCAONKPI@glNormal3b@ DB 'glNormal3b', 00H	; `string'
CONST	ENDS
;	COMDAT ??_C@_09DLKMCBDF@glIndexsv@
CONST	SEGMENT
??_C@_09DLKMCBDF@glIndexsv@ DB 'glIndexsv', 00H		; `string'
CONST	ENDS
;	COMDAT ??_C@_08HLGHCJCJ@glIndexs@
CONST	SEGMENT
??_C@_08HLGHCJCJ@glIndexs@ DB 'glIndexs', 00H		; `string'
CONST	ENDS
;	COMDAT ??_C@_09CKBNAHJD@glIndexiv@
CONST	SEGMENT
??_C@_09CKBNAHJD@glIndexiv@ DB 'glIndexiv', 00H		; `string'
CONST	ENDS
;	COMDAT ??_C@_08MLEKNDPC@glIndexi@
CONST	SEGMENT
??_C@_08MLEKNDPC@glIndexi@ DB 'glIndexi', 00H		; `string'
CONST	ENDS
;	COMDAT ??_C@_09CBEBEAKO@glIndexfv@
CONST	SEGMENT
??_C@_09CBEBEAKO@glIndexfv@ DB 'glIndexfv', 00H		; `string'
CONST	ENDS
;	COMDAT ??_C@_08EMNCMPDN@glIndexf@
CONST	SEGMENT
??_C@_08EMNCMPDN@glIndexf@ DB 'glIndexf', 00H		; `string'
CONST	ENDS
;	COMDAT ??_C@_09CCMFJEMA@glIndexdv@
CONST	SEGMENT
??_C@_09CCMFJEMA@glIndexdv@ DB 'glIndexdv', 00H		; `string'
CONST	ENDS
;	COMDAT ??_C@_08HOOEKNLP@glIndexd@
CONST	SEGMENT
??_C@_08HOOEKNLP@glIndexd@ DB 'glIndexd', 00H		; `string'
CONST	ENDS
;	COMDAT ??_C@_05OIBMBLHE@glEnd@
CONST	SEGMENT
??_C@_05OIBMBLHE@glEnd@ DB 'glEnd', 00H			; `string'
CONST	ENDS
;	COMDAT ??_C@_0M@MKDGIOMK@glEdgeFlagv@
CONST	SEGMENT
??_C@_0M@MKDGIOMK@glEdgeFlagv@ DB 'glEdgeFlagv', 00H	; `string'
CONST	ENDS
;	COMDAT ??_C@_0L@DFCKJEPI@glEdgeFlag@
CONST	SEGMENT
??_C@_0L@DFCKJEPI@glEdgeFlag@ DB 'glEdgeFlag', 00H	; `string'
CONST	ENDS
;	COMDAT ??_C@_0M@OPLLCJJN@glColor4usv@
CONST	SEGMENT
??_C@_0M@OPLLCJJN@glColor4usv@ DB 'glColor4usv', 00H	; `string'
CONST	ENDS
;	COMDAT ??_C@_0L@NHFPGDEK@glColor4us@
CONST	SEGMENT
??_C@_0L@NHFPGDEK@glColor4us@ DB 'glColor4us', 00H	; `string'
CONST	ENDS
;	COMDAT ??_C@_0M@POAKAPDL@glColor4uiv@
CONST	SEGMENT
??_C@_0M@POAKAPDL@glColor4uiv@ DB 'glColor4uiv', 00H	; `string'
CONST	ENDS
;	COMDAT ??_C@_0L@GHHCJJJB@glColor4ui@
CONST	SEGMENT
??_C@_0L@GHHCJJJB@glColor4ui@ DB 'glColor4ui', 00H	; `string'
CONST	ENDS
;	COMDAT ??_C@_0M@PCFPOANK@glColor4ubv@
CONST	SEGMENT
??_C@_0M@PCFPOANK@glColor4ubv@ DB 'glColor4ubv', 00H	; `string'
CONST	ENDS
;	COMDAT ??_C@_0L@IEIGEAFK@glColor4ub@
CONST	SEGMENT
??_C@_0L@IEIGEAFK@glColor4ub@ DB 'glColor4ub', 00H	; `string'
CONST	ENDS
;	COMDAT ??_C@_0L@KOKFOLLN@glColor4sv@
CONST	SEGMENT
??_C@_0L@KOKFOLLN@glColor4sv@ DB 'glColor4sv', 00H	; `string'
CONST	ENDS
;	COMDAT ??_C@_09MNOHCDOB@glColor4s@
CONST	SEGMENT
??_C@_09MNOHCDOB@glColor4s@ DB 'glColor4s', 00H		; `string'
CONST	ENDS
;	COMDAT ??_C@_0L@LPBEMNBL@glColor4iv@
CONST	SEGMENT
??_C@_0L@LPBEMNBL@glColor4iv@ DB 'glColor4iv', 00H	; `string'
CONST	ENDS
;	COMDAT ??_C@_09HNMKNJDK@glColor4i@
CONST	SEGMENT
??_C@_09HNMKNJDK@glColor4i@ DB 'glColor4i', 00H		; `string'
CONST	ENDS
;	COMDAT ??_C@_0L@LEEIIKCG@glColor4fv@
CONST	SEGMENT
??_C@_0L@LEEIIKCG@glColor4fv@ DB 'glColor4fv', 00H	; `string'
CONST	ENDS
;	COMDAT ??_C@_09PKFCMFPF@glColor4f@
CONST	SEGMENT
??_C@_09PKFCMFPF@glColor4f@ DB 'glColor4f', 00H		; `string'
CONST	ENDS
;	COMDAT ??_C@_0L@LHMMFOEI@glColor4dv@
CONST	SEGMENT
??_C@_0L@LHMMFOEI@glColor4dv@ DB 'glColor4dv', 00H	; `string'
CONST	ENDS
;	COMDAT ??_C@_09MIGEKHHH@glColor4d@
CONST	SEGMENT
??_C@_09MIGEKHHH@glColor4d@ DB 'glColor4d', 00H		; `string'
CONST	ENDS
;	COMDAT ??_C@_0L@LDEBCCPK@glColor4bv@
CONST	SEGMENT
??_C@_0L@LDEBCCPK@glColor4bv@ DB 'glColor4bv', 00H	; `string'
CONST	ENDS
;	COMDAT ??_C@_09JODOAAPB@glColor4b@
CONST	SEGMENT
??_C@_09JODOAAPB@glColor4b@ DB 'glColor4b', 00H		; `string'
CONST	ENDS
;	COMDAT ??_C@_0M@FNJLPFIN@glColor3usv@
CONST	SEGMENT
??_C@_0M@FNJLPFIN@glColor3usv@ DB 'glColor3usv', 00H	; `string'
CONST	ENDS
;	COMDAT ??_C@_0L@EKIIFLPD@glColor3us@
CONST	SEGMENT
??_C@_0L@EKIIFLPD@glColor3us@ DB 'glColor3us', 00H	; `string'
CONST	ENDS
;	COMDAT ??_C@_0M@EMCKNDCL@glColor3uiv@
CONST	SEGMENT
??_C@_0M@EMCKNDCL@glColor3uiv@ DB 'glColor3uiv', 00H	; `string'
CONST	ENDS
;	COMDAT ??_C@_0L@PKKFKBCI@glColor3ui@
CONST	SEGMENT
??_C@_0L@PKKFKBCI@glColor3ui@ DB 'glColor3ui', 00H	; `string'
CONST	ENDS
;	COMDAT ??_C@_0M@EAHPDMMK@glColor3ubv@
CONST	SEGMENT
??_C@_0M@EAHPDMMK@glColor3ubv@ DB 'glColor3ubv', 00H	; `string'
CONST	ENDS
;	COMDAT ??_C@_0L@BJFBHIOD@glColor3ub@
CONST	SEGMENT
??_C@_0L@BJFBHIOD@glColor3ub@ DB 'glColor3ub', 00H	; `string'
CONST	ENDS
;	COMDAT ??_C@_0L@DDHCNDAE@glColor3sv@
CONST	SEGMENT
??_C@_0L@DDHCNDAE@glColor3sv@ DB 'glColor3sv', 00H	; `string'
CONST	ENDS
;	COMDAT ??_C@_09MIKIDFGE@glColor3s@
CONST	SEGMENT
??_C@_09MIKIDFGE@glColor3s@ DB 'glColor3s', 00H		; `string'
CONST	ENDS
;	COMDAT ??_C@_0L@CCMDPFKC@glColor3iv@
CONST	SEGMENT
??_C@_0L@CCMDPFKC@glColor3iv@ DB 'glColor3iv', 00H	; `string'
CONST	ENDS
;	COMDAT ??_C@_09HIIFMPLP@glColor3i@
CONST	SEGMENT
??_C@_09HIIFMPLP@glColor3i@ DB 'glColor3i', 00H		; `string'
CONST	ENDS
;	COMDAT ??_C@_0L@CJJPLCJP@glColor3fv@
CONST	SEGMENT
??_C@_0L@CJJPLCJP@glColor3fv@ DB 'glColor3fv', 00H	; `string'
CONST	ENDS
;	COMDAT ??_C@_09PPBNNDHA@glColor3f@
CONST	SEGMENT
??_C@_09PPBNNDHA@glColor3f@ DB 'glColor3f', 00H		; `string'
CONST	ENDS
;	COMDAT ??_C@_0L@CKBLGGPB@glColor3dv@
CONST	SEGMENT
??_C@_0L@CKBLGGPB@glColor3dv@ DB 'glColor3dv', 00H	; `string'
CONST	ENDS
;	COMDAT ??_C@_09MNCLLBPC@glColor3d@
CONST	SEGMENT
??_C@_09MNCLLBPC@glColor3d@ DB 'glColor3d', 00H		; `string'
CONST	ENDS
;	COMDAT ??_C@_0L@COJGBKED@glColor3bv@
CONST	SEGMENT
??_C@_0L@COJGBKED@glColor3bv@ DB 'glColor3bv', 00H	; `string'
CONST	ENDS
;	COMDAT ??_C@_09JLHBBGHE@glColor3b@
CONST	SEGMENT
??_C@_09JLHBBGHE@glColor3b@ DB 'glColor3b', 00H		; `string'
CONST	ENDS
;	COMDAT ??_C@_08PJOLDJDK@glBitmap@
CONST	SEGMENT
??_C@_08PJOLDJDK@glBitmap@ DB 'glBitmap', 00H		; `string'
CONST	ENDS
;	COMDAT ??_C@_07FCOIFMD@glBegin@
CONST	SEGMENT
??_C@_07FCOIFMD@glBegin@ DB 'glBegin', 00H		; `string'
CONST	ENDS
;	COMDAT ??_C@_0L@HDOJDFBA@glListBase@
CONST	SEGMENT
??_C@_0L@HDOJDFBA@glListBase@ DB 'glListBase', 00H	; `string'
CONST	ENDS
;	COMDAT ??_C@_0L@BNOFOEBP@glGenLists@
CONST	SEGMENT
??_C@_0L@BNOFOEBP@glGenLists@ DB 'glGenLists', 00H	; `string'
CONST	ENDS
;	COMDAT ??_C@_0O@KPJIJAFM@glDeleteLists@
CONST	SEGMENT
??_C@_0O@KPJIJAFM@glDeleteLists@ DB 'glDeleteLists', 00H ; `string'
CONST	ENDS
;	COMDAT ??_C@_0M@LFDBDICJ@glCallLists@
CONST	SEGMENT
??_C@_0M@LFDBDICJ@glCallLists@ DB 'glCallLists', 00H	; `string'
CONST	ENDS
;	COMDAT ??_C@_0L@CIPLDIDL@glCallList@
CONST	SEGMENT
??_C@_0L@CIPLDIDL@glCallList@ DB 'glCallList', 00H	; `string'
CONST	ENDS
;	COMDAT ??_C@_09HKEBCLHH@glEndList@
CONST	SEGMENT
??_C@_09HKEBCLHH@glEndList@ DB 'glEndList', 00H		; `string'
CONST	ENDS
;	COMDAT ??_C@_09KAGOBDOO@glNewList@
CONST	SEGMENT
??_C@_09KAGOBDOO@glNewList@ DB 'glNewList', 00H		; `string'
CONST	ENDS
;	COMDAT ??_C@_0L@KBLIPDFH@glViewport@
CONST	SEGMENT
??_C@_0L@KBLIPDFH@glViewport@ DB 'glViewport', 00H	; `string'
CONST	ENDS
;	COMDAT ??_C@_0N@PEBDIKOA@glDepthRange@
CONST	SEGMENT
??_C@_0N@PEBDIKOA@glDepthRange@ DB 'glDepthRange', 00H	; `string'
CONST	ENDS
;	COMDAT ??_C@_0M@INHMIHKC@glIsEnabled@
CONST	SEGMENT
??_C@_0M@INHMIHKC@glIsEnabled@ DB 'glIsEnabled', 00H	; `string'
CONST	ENDS
;	COMDAT ??_C@_0BJ@GLJHCPGI@glGetTexLevelParameteriv@
CONST	SEGMENT
??_C@_0BJ@GLJHCPGI@glGetTexLevelParameteriv@ DB 'glGetTexLevelParameteriv'
	DB	00H						; `string'
CONST	ENDS
;	COMDAT ??_C@_0BJ@GAMLGIFF@glGetTexLevelParameterfv@
CONST	SEGMENT
??_C@_0BJ@GAMLGIFF@glGetTexLevelParameterfv@ DB 'glGetTexLevelParameterfv'
	DB	00H						; `string'
CONST	ENDS
;	COMDAT ??_C@_0BE@DGCNLNPP@glGetTexParameteriv@
CONST	SEGMENT
??_C@_0BE@DGCNLNPP@glGetTexParameteriv@ DB 'glGetTexParameteriv', 00H ; `string'
CONST	ENDS
;	COMDAT ??_C@_0BE@DNHBPKMC@glGetTexParameterfv@
CONST	SEGMENT
??_C@_0BE@DNHBPKMC@glGetTexParameterfv@ DB 'glGetTexParameterfv', 00H ; `string'
CONST	ENDS
;	COMDAT ??_C@_0O@DOIIJLAD@glGetTexImage@
CONST	SEGMENT
??_C@_0O@DOIIJLAD@glGetTexImage@ DB 'glGetTexImage', 00H ; `string'
CONST	ENDS
;	COMDAT ??_C@_0M@OPOBFDCB@glGetString@
CONST	SEGMENT
??_C@_0M@OPOBFDCB@glGetString@ DB 'glGetString', 00H	; `string'
CONST	ENDS
;	COMDAT ??_C@_0O@DHHDCCLF@glGetIntegerv@
CONST	SEGMENT
??_C@_0O@DHHDCCLF@glGetIntegerv@ DB 'glGetIntegerv', 00H ; `string'
CONST	ENDS
;	COMDAT ??_C@_0M@CKCOBONE@glGetFloatv@
CONST	SEGMENT
??_C@_0M@CKCOBONE@glGetFloatv@ DB 'glGetFloatv', 00H	; `string'
CONST	ENDS
;	COMDAT ??_C@_0L@FPKAMKHB@glGetError@
CONST	SEGMENT
??_C@_0L@FPKAMKHB@glGetError@ DB 'glGetError', 00H	; `string'
CONST	ENDS
;	COMDAT ??_C@_0N@OFBMMCDH@glGetDoublev@
CONST	SEGMENT
??_C@_0N@OFBMMCDH@glGetDoublev@ DB 'glGetDoublev', 00H	; `string'
CONST	ENDS
;	COMDAT ??_C@_0O@NLMELLCJ@glGetBooleanv@
CONST	SEGMENT
??_C@_0O@NLMELLCJ@glGetBooleanv@ DB 'glGetBooleanv', 00H ; `string'
CONST	ENDS
;	COMDAT ??_C@_0N@CKFNNHOO@glReadPixels@
CONST	SEGMENT
??_C@_0N@CKFNNHOO@glReadPixels@ DB 'glReadPixels', 00H	; `string'
CONST	ENDS
;	COMDAT ??_C@_0N@HFKHBECK@glReadBuffer@
CONST	SEGMENT
??_C@_0N@HFKHBECK@glReadBuffer@ DB 'glReadBuffer', 00H	; `string'
CONST	ENDS
;	COMDAT ??_C@_0O@JCCIGLOF@glPixelStorei@
CONST	SEGMENT
??_C@_0O@JCCIGLOF@glPixelStorei@ DB 'glPixelStorei', 00H ; `string'
CONST	ENDS
;	COMDAT ??_C@_0O@BFLAHHCK@glPixelStoref@
CONST	SEGMENT
??_C@_0O@BFLAHHCK@glPixelStoref@ DB 'glPixelStoref', 00H ; `string'
CONST	ENDS
;	COMDAT ??_C@_0M@NEJABAEP@glDepthFunc@
CONST	SEGMENT
??_C@_0M@NEJABAEP@glDepthFunc@ DB 'glDepthFunc', 00H	; `string'
CONST	ENDS
;	COMDAT ??_C@_0M@BILBNGF@glStencilOp@
CONST	SEGMENT
??_C@_0M@BILBNGF@glStencilOp@ DB 'glStencilOp', 00H	; `string'
CONST	ENDS
;	COMDAT ??_C@_0O@ENNLLOLN@glStencilFunc@
CONST	SEGMENT
??_C@_0O@ENNLLOLN@glStencilFunc@ DB 'glStencilFunc', 00H ; `string'
CONST	ENDS
;	COMDAT ??_C@_09GKGMNAKG@glLogicOp@
CONST	SEGMENT
??_C@_09GKGMNAKG@glLogicOp@ DB 'glLogicOp', 00H		; `string'
CONST	ENDS
;	COMDAT ??_C@_0M@PFBKOKOH@glBlendFunc@
CONST	SEGMENT
??_C@_0M@PFBKOKOH@glBlendFunc@ DB 'glBlendFunc', 00H	; `string'
CONST	ENDS
;	COMDAT ??_C@_07COFELLJA@glFlush@
CONST	SEGMENT
??_C@_07COFELLJA@glFlush@ DB 'glFlush', 00H		; `string'
CONST	ENDS
;	COMDAT ??_C@_08DFCPOKBK@glFinish@
CONST	SEGMENT
??_C@_08DFCPOKBK@glFinish@ DB 'glFinish', 00H		; `string'
CONST	ENDS
;	COMDAT ??_C@_08OOEHEKOP@glEnable@
CONST	SEGMENT
??_C@_08OOEHEKOP@glEnable@ DB 'glEnable', 00H		; `string'
CONST	ENDS
;	COMDAT ??_C@_09MHGMIMKN@glDisable@
CONST	SEGMENT
??_C@_09MHGMIMKN@glDisable@ DB 'glDisable', 00H		; `string'
CONST	ENDS
;	COMDAT ??_C@_0M@KABMFLLN@glDepthMask@
CONST	SEGMENT
??_C@_0M@KABMFLLN@glDepthMask@ DB 'glDepthMask', 00H	; `string'
CONST	ENDS
;	COMDAT ??_C@_0M@DLGOAHPH@glColorMask@
CONST	SEGMENT
??_C@_0M@DLGOAHPH@glColorMask@ DB 'glColorMask', 00H	; `string'
CONST	ENDS
;	COMDAT ??_C@_0O@DJFHPFEP@glStencilMask@
CONST	SEGMENT
??_C@_0O@DJFHPFEP@glStencilMask@ DB 'glStencilMask', 00H ; `string'
CONST	ENDS
;	COMDAT ??_C@_0N@LJIELNG@glClearDepth@
CONST	SEGMENT
??_C@_0N@LJIELNG@glClearDepth@ DB 'glClearDepth', 00H	; `string'
CONST	ENDS
;	COMDAT ??_C@_0P@KBLPBBFP@glClearStencil@
CONST	SEGMENT
??_C@_0P@KBLPBBFP@glClearStencil@ DB 'glClearStencil', 00H ; `string'
CONST	ENDS
;	COMDAT ??_C@_0N@OGLMDNKC@glClearColor@
CONST	SEGMENT
??_C@_0N@OGLMDNKC@glClearColor@ DB 'glClearColor', 00H	; `string'
CONST	ENDS
;	COMDAT ??_C@_07IBAPPAHJ@glClear@
CONST	SEGMENT
??_C@_07IBAPPAHJ@glClear@ DB 'glClear', 00H		; `string'
CONST	ENDS
;	COMDAT ??_C@_0N@EKCLGPL@glDrawBuffer@
CONST	SEGMENT
??_C@_0N@EKCLGPL@glDrawBuffer@ DB 'glDrawBuffer', 00H	; `string'
CONST	ENDS
;	COMDAT ??_C@_0N@JBIKHLCC@glTexImage2D@
CONST	SEGMENT
??_C@_0N@JBIKHLCC@glTexImage2D@ DB 'glTexImage2D', 00H	; `string'
CONST	ENDS
;	COMDAT ??_C@_0N@JDMMMFHL@glTexImage1D@
CONST	SEGMENT
??_C@_0N@JDMMMFHL@glTexImage1D@ DB 'glTexImage1D', 00H	; `string'
CONST	ENDS
;	COMDAT ??_C@_0BB@KPLJEAAI@glTexParameteriv@
CONST	SEGMENT
??_C@_0BB@KPLJEAAI@glTexParameteriv@ DB 'glTexParameteriv', 00H ; `string'
CONST	ENDS
;	COMDAT ??_C@_0BA@KDNJAKA@glTexParameteri@
CONST	SEGMENT
??_C@_0BA@KDNJAKA@glTexParameteri@ DB 'glTexParameteri', 00H ; `string'
CONST	ENDS
;	COMDAT ??_C@_0BB@KEOFAHDF@glTexParameterfv@
CONST	SEGMENT
??_C@_0BB@KEOFAHDF@glTexParameterfv@ DB 'glTexParameterfv', 00H ; `string'
CONST	ENDS
;	COMDAT ??_C@_0BA@INKFIMGP@glTexParameterf@
CONST	SEGMENT
??_C@_0BA@INKFIMGP@glTexParameterf@ DB 'glTexParameterf', 00H ; `string'
CONST	ENDS
;	COMDAT ??_C@_09ECGPAEPL@glScissor@
CONST	SEGMENT
??_C@_09ECGPAEPL@glScissor@ DB 'glScissor', 00H		; `string'
CONST	ENDS
;	COMDAT ??_C@_0O@DKMNBFMB@glPolygonMode@
CONST	SEGMENT
??_C@_0O@DKMNBFMB@glPolygonMode@ DB 'glPolygonMode', 00H ; `string'
CONST	ENDS
;	COMDAT ??_C@_0M@EEAPMMNM@glPointSize@
CONST	SEGMENT
??_C@_0M@EEAPMMNM@glPointSize@ DB 'glPointSize', 00H	; `string'
CONST	ENDS
;	COMDAT ??_C@_0M@CFLGNFPG@glLineWidth@
CONST	SEGMENT
??_C@_0M@CFLGNFPG@glLineWidth@ DB 'glLineWidth', 00H	; `string'
CONST	ENDS
;	COMDAT ??_C@_06HEADGMBC@glHint@
CONST	SEGMENT
??_C@_06HEADGMBC@glHint@ DB 'glHint', 00H		; `string'
CONST	ENDS
;	COMDAT ??_C@_0M@ILBMDJDA@glFrontFace@
CONST	SEGMENT
??_C@_0M@ILBMDJDA@glFrontFace@ DB 'glFrontFace', 00H	; `string'
CONST	ENDS
;	COMDAT ??_C@_0L@BAPBLHME@glCullFace@
CONST	SEGMENT
??_C@_0L@BAPBLHME@glCullFace@ DB 'glCullFace', 00H	; `string'
CONST	ENDS
;	COMDAT ??_C@_0BC@FFKMKEGM@wglGetProcAddress@
CONST	SEGMENT
??_C@_0BC@FFKMKEGM@wglGetProcAddress@ DB 'wglGetProcAddress', 00H ; `string'
CONST	ENDS
;	COMDAT ??_C@_1BK@LCODAJLO@?$AAo?$AAp?$AAe?$AAn?$AAg?$AAl?$AA3?$AA2?$AA?4?$AAd?$AAl?$AAl@
CONST	SEGMENT
??_C@_1BK@LCODAJLO@?$AAo?$AAp?$AAe?$AAn?$AAg?$AAl?$AA3?$AA2?$AA?4?$AAd?$AAl?$AAl@ DB 'o'
	DB	00H, 'p', 00H, 'e', 00H, 'n', 00H, 'g', 00H, 'l', 00H, '3', 00H
	DB	'2', 00H, '.', 00H, 'd', 00H, 'l', 00H, 'l', 00H, 00H, 00H ; `string'
CONST	ENDS
PUBLIC	gladLoadGLLoader
PUBLIC	gladLoadGL
PUBLIC	sscanf_s
PUBLIC	vsscanf_s
PUBLIC	_vsscanf_s_l
PUBLIC	__local_stdio_scanf_options
PUBLIC	__isa_available_default
PUBLIC	__real@00000000
PUBLIC	__real@0000000000000000
PUBLIC	__real@34000000
PUBLIC	__real@38000100
PUBLIC	__real@3b23d70a
PUBLIC	__real@3ba3d70a
PUBLIC	__real@3bd4fdf4
PUBLIC	__real@3bf5c28f
PUBLIC	__real@3c03126f
PUBLIC	__real@3c23d70a
PUBLIC	__real@3c4ccccd
PUBLIC	__real@3c8efa2e
PUBLIC	__real@3c8efa35
PUBLIC	__real@3ca3d70a
PUBLIC	__real@3ccccccd
PUBLIC	__real@3cfa2ad4
PUBLIC	__real@3d23d70a
PUBLIC	__real@3d48b439
PUBLIC	__real@3d4ccccd
PUBLIC	__real@3d75c28f
PUBLIC	__real@3d800000
PUBLIC	__real@3d888889
PUBLIC	__real@3d99999a
PUBLIC	__real@3da2680a
PUBLIC	__real@3dc49ba6
PUBLIC	__real@3dcccccd
PUBLIC	__real@3de147ae
PUBLIC	__real@3df5c28f
PUBLIC	__real@3e000000
PUBLIC	__real@3e19999a
PUBLIC	__real@3e4ccccd
PUBLIC	__real@3e666666
PUBLIC	__real@3e800000
PUBLIC	__real@3e99999a
PUBLIC	__real@3eaa7efa
PUBLIC	__real@3eb33333
PUBLIC	__real@3ebcd35b
PUBLIC	__real@3ecccccd
PUBLIC	__real@3ee66666
PUBLIC	__real@3ee8ba2e
PUBLIC	__real@3eeca57a
PUBLIC	__real@3f000000
PUBLIC	__real@3f0ccccd
PUBLIC	__real@3f19999a
PUBLIC	__real@3f266666
PUBLIC	__real@3f2ccccd
PUBLIC	__real@3f333333
PUBLIC	__real@3f39999a
PUBLIC	__real@3f400000
PUBLIC	__real@3f490fdb
PUBLIC	__real@3f4ccccd
PUBLIC	__real@3f5db22d
PUBLIC	__real@3f600000
PUBLIC	__real@3f666666
PUBLIC	__real@3f800000
PUBLIC	__real@3f99999a
PUBLIC	__real@3fa00000
PUBLIC	__real@3fa47ae147ae147b
PUBLIC	__real@3fa66666
PUBLIC	__real@3faccccd
PUBLIC	__real@3fc00000
PUBLIC	__real@3fc66666
PUBLIC	__real@3fd0000000000000
PUBLIC	__real@3fd33333
PUBLIC	__real@3fd3333333333333
PUBLIC	__real@3fd3333340000000
PUBLIC	__real@3fd999999999999a
PUBLIC	__real@3fdfe5c9
PUBLIC	__real@3fe0000000000000
PUBLIC	__real@3fe38bac
PUBLIC	__real@3fe6666660000000
PUBLIC	__real@3fe7b15b
PUBLIC	__real@3fef65fe
PUBLIC	__real@3ff0000000000000
PUBLIC	__real@3ff8000000000000
PUBLIC	__real@3ff9999a
PUBLIC	__real@40000000
PUBLIC	__real@4006310129cbab65
PUBLIC	__real@4009d97f
PUBLIC	__real@400ccccd
PUBLIC	__real@400e310129cbab65
PUBLIC	__real@401399999999999a
PUBLIC	__real@4014000000000000
PUBLIC	__real@4015c28f
PUBLIC	__real@40200000
PUBLIC	__real@4024000000000000
PUBLIC	__real@402a3d71
PUBLIC	__real@403b851f
PUBLIC	__real@40400000
PUBLIC	__real@40490fd0
PUBLIC	__real@40492d77
PUBLIC	__real@40627bb3
PUBLIC	__real@407d4fdf
PUBLIC	__real@407e147b
PUBLIC	__real@40800000
PUBLIC	__real@408d374c
PUBLIC	__real@40a00000
PUBLIC	__real@40a33333
PUBLIC	__real@40a4154d
PUBLIC	__real@40a70a3d
PUBLIC	__real@40a978d5
PUBLIC	__real@40c00000
PUBLIC	__real@40c90fd0
PUBLIC	__real@40cccccd
PUBLIC	__real@40ce2d0e
PUBLIC	__real@40d00000
PUBLIC	__real@40eafd22
PUBLIC	__real@40f3999a
PUBLIC	__real@40f66666
PUBLIC	__real@40f75c29
PUBLIC	__real@41000000
PUBLIC	__real@41020aa6
PUBLIC	__real@4103d70a
PUBLIC	__real@410451ec
PUBLIC	__real@41073333
PUBLIC	__real@410a7a10
PUBLIC	__real@410ae148
PUBLIC	__real@410bb852
PUBLIC	__real@41200000
PUBLIC	__real@412147ae
PUBLIC	__real@41400000
PUBLIC	__real@41600000
PUBLIC	__real@41800000
PUBLIC	__real@41980000
PUBLIC	__real@41c00000
PUBLIC	__real@41f00000
PUBLIC	__real@420c0000
PUBLIC	__real@42700000
PUBLIC	__real@42800000
PUBLIC	__real@428c0000
PUBLIC	__real@42a00000
PUBLIC	__real@42b40000
PUBLIC	__real@42c80000
PUBLIC	__real@437f0000
PUBLIC	__real@43800000
PUBLIC	__real@43b40000
PUBLIC	__real@4479c000
PUBLIC	__real@447a0000
PUBLIC	__real@461c3c00
PUBLIC	__real@477fff00
PUBLIC	__real@47c34ff3
PUBLIC	__real@497423f0
PUBLIC	__real@5f000000
PUBLIC	__real@80000000
PUBLIC	__real@bc4ccccd
PUBLIC	__real@bc8efa2e
PUBLIC	__real@bd4ccccd
PUBLIC	__real@bdc580c3
PUBLIC	__real@bdcccccd
PUBLIC	__real@bde147ae
PUBLIC	__real@be000000
PUBLIC	__real@be4ccccd
PUBLIC	__real@be800000
PUBLIC	__real@be99999a
PUBLIC	__real@becccccd
PUBLIC	__real@bf000000
PUBLIC	__real@bf0b9cb7
PUBLIC	__real@bf11c4db
PUBLIC	__real@bf266666
PUBLIC	__real@bf333333
PUBLIC	__real@bf38d4fe
PUBLIC	__real@bf3fbe77
PUBLIC	__real@bf400000
PUBLIC	__real@bf4ccccd
PUBLIC	__real@bf666666
PUBLIC	__real@bf733333
PUBLIC	__real@bf795e9e
PUBLIC	__real@bf79b50f
PUBLIC	__real@bf800000
PUBLIC	__real@bf99999a
PUBLIC	__real@bf9ae148
PUBLIC	__real@bf9bf488
PUBLIC	__real@bf9d70a4
PUBLIC	__real@bfa147ae
PUBLIC	__real@bfaccccd
PUBLIC	__real@bfb147ae
PUBLIC	__real@bfb631f9
PUBLIC	__real@bfb70a3d
PUBLIC	__real@bfb9999a
PUBLIC	__real@bfc00000
PUBLIC	__real@bfd8807357e670e3
PUBLIC	__real@bfdc28f6
PUBLIC	__real@bfe38bac
PUBLIC	__real@bfeb851f
PUBLIC	__real@bff0000000000000
PUBLIC	__real@bff094467381d7dc
PUBLIC	__real@bff222d0e5604189
PUBLIC	__real@bff23eab367a0f91
PUBLIC	__real@bff278d4fdf3b646
PUBLIC	__real@bff31b71758e2196
PUBLIC	__real@c0000000
PUBLIC	__real@c00b51eb851eb852
PUBLIC	__real@c00ccccd
PUBLIC	__real@c0109375
PUBLIC	__real@c016c8b4
PUBLIC	__real@c022d47ae147ae14
PUBLIC	__real@c02d0e56
PUBLIC	__real@c032800000000000
PUBLIC	__real@c0425e35
PUBLIC	__real@c045c28f
PUBLIC	__real@c050a57a
PUBLIC	__real@c05147ae
PUBLIC	__real@c05b020c
PUBLIC	__real@c0859ce0
PUBLIC	__real@c096872b
PUBLIC	__real@c09ef1aa
PUBLIC	__real@c0cced91
PUBLIC	__real@c0f7f7cf
PUBLIC	__real@c0f9999a
PUBLIC	__real@c1180000
PUBLIC	__real@c1287efa
PUBLIC	__real@c1487efa
PUBLIC	__real@c17cb021
PUBLIC	__real@c1a86666
PUBLIC	__real@c1ac0000
PUBLIC	__real@c2b40000
PUBLIC	__real@c479c000
PUBLIC	__real@c7c34ff3
PUBLIC	__xmm@0000000000000000000000003f800000
PUBLIC	__xmm@00000000000000003f80000000000000
PUBLIC	__xmm@0000000000000000bf80000000000000
PUBLIC	__xmm@0000000000000000bf8000003f800000
PUBLIC	__xmm@00000000000000040000000000000000
PUBLIC	__xmm@000000000000000f0000000000000000
PUBLIC	__xmm@000000003f8000000000000000000000
PUBLIC	__xmm@000000003f8000003f80000000000000
PUBLIC	__xmm@00000000bca3df6e0000000000000000
PUBLIC	__xmm@00000000bca3e7d30000000000000000
PUBLIC	__xmm@00000000bf8000000000000000000000
PUBLIC	__xmm@00000002000000000000000400000000
PUBLIC	__xmm@00000002000000020000000200000002
PUBLIC	__xmm@00000003000000030000000300000003
PUBLIC	__xmm@00000004000000040000000800000008
PUBLIC	__xmm@00000004000000080000000800000008
PUBLIC	__xmm@00000200000002000000020000000200
PUBLIC	__xmm@00080008000800080008000800080008
PUBLIC	__xmm@00ff00ff00ff00ff00ff00ff00ff00ff
PUBLIC	__xmm@01010000010100000101000001010000
PUBLIC	__xmm@08a914e808a914e808a914e808a914e8
PUBLIC	__xmm@11c8e09e11c8e09e11c8e09e11c8e09e
PUBLIC	__xmm@11c8f9c311c8f9c311c8f9c311c8f9c3
PUBLIC	__xmm@12d0046b12d0046b12d0046b12d0046b
PUBLIC	__xmm@166f166f166f166f166f166f166f166f
PUBLIC	__xmm@1c5a1c5a1c5a1c5a1c5a1c5a1c5a1c5a
PUBLIC	__xmm@3e4ccccd000000003e4ccccd00000000
PUBLIC	__xmm@3f0000003f0000003f0000003f000000
PUBLIC	__xmm@3f0000003f8000003f8000003f800000
PUBLIC	__xmm@3f19999a3f4ccccd3f4ccccd3f4ccccd
PUBLIC	__xmm@3f4000003dcccccd3f4000003dcccccd
PUBLIC	__xmm@3f4000003f8000003e99999a3e19999a
PUBLIC	__xmm@3f800000000000000000000000000000
PUBLIC	__xmm@3f8000003f4000003f4000003f400000
PUBLIC	__xmm@3f8000003f8000003f8000003f800000
PUBLIC	__xmm@3ff00000000000003ff0000000000000
PUBLIC	__xmm@400000003f8000003f8000003f800000
PUBLIC	__xmm@441a15214112faabbfe127dd4037db16
PUBLIC	__xmm@7fffffff7fffffff7fffffff7fffffff
PUBLIC	__xmm@80000000800000008000000080000000
PUBLIC	__xmm@80808080808080808080808080808080
PUBLIC	__xmm@bf800000bf800d1c0000000000000000
PUBLIC	__xmm@bf800000bf801a3a0000000000000000
PUBLIC	__xmm@e09ee565e09ee565e09ee565e09ee565
PUBLIC	__xmm@e9cf12d0e9cf12d0e9cf12d0e9cf12d0
PUBLIC	__xmm@eb1a08a9eb1a08a9eb1a08a9eb1a08a9
PUBLIC	__xmm@f493f493f493f493f493f493f493f493
PUBLIC	__xmm@f9c31a9df9c31a9df9c31a9df9c31a9d
PUBLIC	__xmm@fa7efa7efa7efa7efa7efa7efa7efa7e
EXTRN	_CxxThrowException:PROC
EXTRN	__CxxFrameHandler4:PROC
EXTRN	__GSHandlerCheck:PROC
EXTRN	__GSHandlerCheck_EH4:PROC
EXTRN	__chkstk:PROC
EXTRN	_fdclass:PROC
EXTRN	atan2f:PROC
EXTRN	ceilf:PROC
EXTRN	copysignf:PROC
EXTRN	cosf:PROC
EXTRN	expf:PROC
EXTRN	floorf:PROC
EXTRN	fmodf:PROC
EXTRN	memchr:PROC
EXTRN	memcmp:PROC
EXTRN	memcpy:PROC
EXTRN	memmove:PROC
EXTRN	memset:PROC
EXTRN	pow:PROC
EXTRN	powf:PROC
EXTRN	sinf:PROC
EXTRN	sqrtf:PROC
EXTRN	strcmp:PROC
EXTRN	tanf:PROC
EXTRN	__ImageBase:BYTE
EXTRN	__isa_available:DWORD
EXTRN	__security_cookie:QWORD
EXTRN	_fltused:DWORD
EXTRN	_tls_index:DWORD
max_loaded_major DD 01H DUP (?)
gladGetProcAddressPtr DQ 01H DUP (?)
exts	DQ	01H DUP (?)
libGL	DQ	01H DUP (?)
COMM	?_OptionsStorage@?1??__local_stdio_scanf_options@@9@9:QWORD							; `__local_stdio_scanf_options'::`2'::_OptionsStorage
num_exts_i DD	01H DUP (?)
	ALIGN	8

exts_i	DQ	01H DUP (?)
_BSS	ENDS
;	COMDAT __isa_available_default
_BSS	SEGMENT
__isa_available_default DD 01H DUP (?)
_BSS	ENDS
;	COMDAT pdata
pdata	SEGMENT
$pdata$gladLoadGLLoader DD imagerel $LN111
	DD	imagerel $LN111+4041
	DD	imagerel $unwind$gladLoadGLLoader
pdata	ENDS
;	COMDAT pdata
pdata	SEGMENT
$pdata$2$gladLoadGLLoader DD imagerel $LN111+4041
	DD	imagerel $LN111+4171
	DD	imagerel $chain$2$gladLoadGLLoader
pdata	ENDS
;	COMDAT pdata
pdata	SEGMENT
$pdata$3$gladLoadGLLoader DD imagerel $LN111+4171
	DD	imagerel $LN111+4298
	DD	imagerel $chain$3$gladLoadGLLoader
pdata	ENDS
;	COMDAT pdata
pdata	SEGMENT
$pdata$find_coreGL DD imagerel find_coreGL
	DD	imagerel find_coreGL+97
	DD	imagerel $unwind$find_coreGL
pdata	ENDS
;	COMDAT pdata
pdata	SEGMENT
$pdata$1$find_coreGL DD imagerel find_coreGL+97
	DD	imagerel find_coreGL+235
	DD	imagerel $chain$1$find_coreGL
pdata	ENDS
;	COMDAT pdata
pdata	SEGMENT
$pdata$2$find_coreGL DD imagerel find_coreGL+235
	DD	imagerel find_coreGL+979
	DD	imagerel $chain$2$find_coreGL
pdata	ENDS
;	COMDAT pdata
pdata	SEGMENT
$pdata$find_extensionsGL DD imagerel find_extensionsGL
	DD	imagerel find_extensionsGL+167
	DD	imagerel $unwind$find_extensionsGL
pdata	ENDS
;	COMDAT pdata
pdata	SEGMENT
$pdata$2$find_extensionsGL DD imagerel find_extensionsGL+167
	DD	imagerel find_extensionsGL+299
	DD	imagerel $chain$2$find_extensionsGL
pdata	ENDS
;	COMDAT pdata
pdata	SEGMENT
$pdata$3$find_extensionsGL DD imagerel find_extensionsGL+299
	DD	imagerel find_extensionsGL+385
	DD	imagerel $chain$3$find_extensionsGL
pdata	ENDS
;	COMDAT pdata
pdata	SEGMENT
$pdata$load_GL_VERSION_4_4 DD imagerel load_GL_VERSION_4_4
	DD	imagerel load_GL_VERSION_4_4+130
	DD	imagerel $unwind$load_GL_VERSION_4_4
pdata	ENDS
;	COMDAT pdata
pdata	SEGMENT
$pdata$load_GL_VERSION_4_3 DD imagerel load_GL_VERSION_4_3
	DD	imagerel load_GL_VERSION_4_3+554
	DD	imagerel $unwind$load_GL_VERSION_4_3
pdata	ENDS
;	COMDAT pdata
pdata	SEGMENT
$pdata$load_GL_VERSION_4_2 DD imagerel load_GL_VERSION_4_2
	DD	imagerel load_GL_VERSION_4_2+170
	DD	imagerel $unwind$load_GL_VERSION_4_2
pdata	ENDS
;	COMDAT pdata
pdata	SEGMENT
$pdata$load_GL_VERSION_4_1 DD imagerel load_GL_VERSION_4_1
	DD	imagerel load_GL_VERSION_4_1+1094
	DD	imagerel $unwind$load_GL_VERSION_4_1
pdata	ENDS
;	COMDAT pdata
pdata	SEGMENT
$pdata$load_GL_VERSION_4_0 DD imagerel load_GL_VERSION_4_0
	DD	imagerel load_GL_VERSION_4_0+578
	DD	imagerel $unwind$load_GL_VERSION_4_0
pdata	ENDS
;	COMDAT pdata
pdata	SEGMENT
$pdata$load_GL_VERSION_3_3 DD imagerel load_GL_VERSION_3_3
	DD	imagerel load_GL_VERSION_3_3+722
	DD	imagerel $unwind$load_GL_VERSION_3_3
pdata	ENDS
;	COMDAT pdata
pdata	SEGMENT
$pdata$load_GL_VERSION_3_2 DD imagerel load_GL_VERSION_3_2
	DD	imagerel load_GL_VERSION_3_2+261
	DD	imagerel $unwind$load_GL_VERSION_3_2
pdata	ENDS
;	COMDAT pdata
pdata	SEGMENT
$pdata$load_GL_VERSION_3_1 DD imagerel load_GL_VERSION_3_1
	DD	imagerel load_GL_VERSION_3_1+213
	DD	imagerel $unwind$load_GL_VERSION_3_1
pdata	ENDS
;	COMDAT pdata
pdata	SEGMENT
$pdata$load_GL_VERSION_3_0 DD imagerel load_GL_VERSION_3_0
	DD	imagerel load_GL_VERSION_3_0+1160
	DD	imagerel $unwind$load_GL_VERSION_3_0
pdata	ENDS
;	COMDAT pdata
pdata	SEGMENT
$pdata$load_GL_VERSION_2_1 DD imagerel load_GL_VERSION_2_1
	DD	imagerel load_GL_VERSION_2_1+94
	DD	imagerel $unwind$load_GL_VERSION_2_1
pdata	ENDS
;	COMDAT pdata
pdata	SEGMENT
$pdata$load_GL_VERSION_2_0 DD imagerel load_GL_VERSION_2_0
	DD	imagerel load_GL_VERSION_2_0+1313
	DD	imagerel $unwind$load_GL_VERSION_2_0
pdata	ENDS
;	COMDAT pdata
pdata	SEGMENT
$pdata$load_GL_VERSION_1_5 DD imagerel load_GL_VERSION_1_5
	DD	imagerel load_GL_VERSION_1_5+282
	DD	imagerel $unwind$load_GL_VERSION_1_5
pdata	ENDS
;	COMDAT pdata
pdata	SEGMENT
$pdata$load_GL_VERSION_1_4 DD imagerel load_GL_VERSION_1_4
	DD	imagerel load_GL_VERSION_1_4+590
	DD	imagerel $unwind$load_GL_VERSION_1_4
pdata	ENDS
;	COMDAT pdata
pdata	SEGMENT
$pdata$load_GL_VERSION_1_3 DD imagerel load_GL_VERSION_1_3
	DD	imagerel load_GL_VERSION_1_3+585
	DD	imagerel $unwind$load_GL_VERSION_1_3
pdata	ENDS
;	COMDAT pdata
pdata	SEGMENT
$pdata$load_GL_VERSION_1_2 DD imagerel load_GL_VERSION_1_2
	DD	imagerel load_GL_VERSION_1_2+70
	DD	imagerel $unwind$load_GL_VERSION_1_2
pdata	ENDS
;	COMDAT pdata
pdata	SEGMENT
$pdata$load_GL_VERSION_1_1 DD imagerel load_GL_VERSION_1_1
	DD	imagerel load_GL_VERSION_1_1+414
	DD	imagerel $unwind$load_GL_VERSION_1_1
pdata	ENDS
;	COMDAT pdata
pdata	SEGMENT
$pdata$load_GL_VERSION_1_0 DD imagerel load_GL_VERSION_1_0
	DD	imagerel load_GL_VERSION_1_0+2903
	DD	imagerel $unwind$load_GL_VERSION_1_0
pdata	ENDS
;	COMDAT pdata
pdata	SEGMENT
$pdata$has_ext DD imagerel has_ext
	DD	imagerel has_ext+240
	DD	imagerel $unwind$has_ext
pdata	ENDS
;	COMDAT pdata
pdata	SEGMENT
$pdata$free_exts DD imagerel free_exts
	DD	imagerel free_exts+16
	DD	imagerel $unwind$free_exts
pdata	ENDS
;	COMDAT pdata
pdata	SEGMENT
$pdata$0$free_exts DD imagerel free_exts+16
	DD	imagerel free_exts+31
	DD	imagerel $chain$0$free_exts
pdata	ENDS
;	COMDAT pdata
pdata	SEGMENT
$pdata$1$free_exts DD imagerel free_exts+31
	DD	imagerel free_exts+74
	DD	imagerel $chain$1$free_exts
pdata	ENDS
;	COMDAT pdata
pdata	SEGMENT
$pdata$2$free_exts DD imagerel free_exts+74
	DD	imagerel free_exts+96
	DD	imagerel $chain$2$free_exts
pdata	ENDS
;	COMDAT pdata
pdata	SEGMENT
$pdata$3$free_exts DD imagerel free_exts+96
	DD	imagerel free_exts+101
	DD	imagerel $chain$3$free_exts
pdata	ENDS
;	COMDAT pdata
pdata	SEGMENT
$pdata$get_exts DD imagerel get_exts
	DD	imagerel get_exts+161
	DD	imagerel $unwind$get_exts
pdata	ENDS
;	COMDAT pdata
pdata	SEGMENT
$pdata$3$get_exts DD imagerel get_exts+161
	DD	imagerel get_exts+302
	DD	imagerel $chain$3$get_exts
pdata	ENDS
;	COMDAT pdata
pdata	SEGMENT
$pdata$4$get_exts DD imagerel get_exts+302
	DD	imagerel get_exts+315
	DD	imagerel $chain$4$get_exts
pdata	ENDS
;	COMDAT pdata
pdata	SEGMENT
$pdata$gladLoadGL DD imagerel $LN18
	DD	imagerel $LN18+57
	DD	imagerel $unwind$gladLoadGL
pdata	ENDS
;	COMDAT pdata
pdata	SEGMENT
$pdata$0$gladLoadGL DD imagerel $LN18+57
	DD	imagerel $LN18+110
	DD	imagerel $chain$0$gladLoadGL
pdata	ENDS
;	COMDAT pdata
pdata	SEGMENT
$pdata$1$gladLoadGL DD imagerel $LN18+110
	DD	imagerel $LN18+117
	DD	imagerel $chain$1$gladLoadGL
pdata	ENDS
;	COMDAT pdata
pdata	SEGMENT
$pdata$get_proc DD imagerel get_proc
	DD	imagerel get_proc+79
	DD	imagerel $unwind$get_proc
pdata	ENDS
;	COMDAT pdata
pdata	SEGMENT
$pdata$close_gl DD imagerel close_gl
	DD	imagerel close_gl+38
	DD	imagerel $unwind$close_gl
pdata	ENDS
;	COMDAT pdata
pdata	SEGMENT
$pdata$open_gl DD imagerel open_gl
	DD	imagerel open_gl+72
	DD	imagerel $unwind$open_gl
pdata	ENDS
;	COMDAT pdata
pdata	SEGMENT
$pdata$sscanf_s DD imagerel $LN8
	DD	imagerel $LN8+86
	DD	imagerel $unwind$sscanf_s
pdata	ENDS
;	COMDAT pdata
pdata	SEGMENT
$pdata$vsscanf_s DD imagerel $LN6
	DD	imagerel $LN6+85
	DD	imagerel $unwind$vsscanf_s
pdata	ENDS
;	COMDAT pdata
pdata	SEGMENT
$pdata$_vsscanf_s_l DD imagerel $LN4
	DD	imagerel $LN4+85
	DD	imagerel $unwind$_vsscanf_s_l
;	COMDAT __xmm@fa7efa7efa7efa7efa7efa7efa7efa7e
CONST	SEGMENT
__xmm@fa7efa7efa7efa7efa7efa7efa7efa7e DB '~', 0faH, '~', 0faH, '~', 0faH
	DB	'~', 0faH, '~', 0faH, '~', 0faH, '~', 0faH, '~', 0faH
CONST	ENDS
;	COMDAT __xmm@f9c31a9df9c31a9df9c31a9df9c31a9d
CONST	SEGMENT
__xmm@f9c31a9df9c31a9df9c31a9df9c31a9d DB 09dH, 01aH, 0c3H, 0f9H, 09dH, 01aH
	DB	0c3H, 0f9H, 09dH, 01aH, 0c3H, 0f9H, 09dH, 01aH, 0c3H, 0f9H
CONST	ENDS
;	COMDAT __xmm@f493f493f493f493f493f493f493f493
CONST	SEGMENT
__xmm@f493f493f493f493f493f493f493f493 DB 093H, 0f4H, 093H, 0f4H, 093H, 0f4H
	DB	093H, 0f4H, 093H, 0f4H, 093H, 0f4H, 093H, 0f4H, 093H, 0f4H
CONST	ENDS
;	COMDAT __xmm@eb1a08a9eb1a08a9eb1a08a9eb1a08a9
CONST	SEGMENT
__xmm@eb1a08a9eb1a08a9eb1a08a9eb1a08a9 DB 0a9H, 08H, 01aH, 0ebH, 0a9H, 08H
	DB	01aH, 0ebH, 0a9H, 08H, 01aH, 0ebH, 0a9H, 08H, 01aH, 0ebH
CONST	ENDS
;	COMDAT __xmm@e9cf12d0e9cf12d0e9cf12d0e9cf12d0
CONST	SEGMENT
__xmm@e9cf12d0e9cf12d0e9cf12d0e9cf12d0 DB 0d0H, 012H, 0cfH, 0e9H, 0d0H, 012H
	DB	0cfH, 0e9H, 0d0H, 012H, 0cfH, 0e9H, 0d0H, 012H, 0cfH, 0e9H
CONST	ENDS
;	COMDAT __xmm@e09ee565e09ee565e09ee565e09ee565
CONST	SEGMENT
__xmm@e09ee565e09ee565e09ee565e09ee565 DB 'e', 0e5H, 09eH, 0e0H, 'e', 0e5H
	DB	09eH, 0e0H, 'e', 0e5H, 09eH, 0e0H, 'e', 0e5H, 09eH, 0e0H
CONST	ENDS
;	COMDAT __xmm@bf800000bf801a3a0000000000000000
CONST	SEGMENT
__xmm@bf800000bf801a3a0000000000000000 DB 00H, 00H, 00H, 00H, 00H, 00H, 00H
	DB	00H, ':', 01aH, 080H, 0bfH, 00H, 00H, 080H, 0bfH
CONST	ENDS
;	COMDAT __xmm@bf800000bf800d1c0000000000000000
CONST	SEGMENT
__xmm@bf800000bf800d1c0000000000000000 DB 00H, 00H, 00H, 00H, 00H, 00H, 00H
	DB	00H, 01cH, 0dH, 080H, 0bfH, 00H, 00H, 080H, 0bfH
CONST	ENDS
;	COMDAT __xmm@80808080808080808080808080808080
CONST	SEGMENT
__xmm@80808080808080808080808080808080 DB 080H, 080H, 080H, 080H, 080H, 080H
	DB	080H, 080H, 080H, 080H, 080H, 080H, 080H, 080H, 080H, 080H
CONST	ENDS
;	COMDAT __xmm@80000000800000008000000080000000
CONST	SEGMENT
__xmm@80000000800000008000000080000000 DB 00H, 00H, 00H, 080H, 00H, 00H, 00H
	DB	080H, 00H, 00H, 00H, 080H, 00H, 00H, 00H, 080H
CONST	ENDS
;	COMDAT __xmm@7fffffff7fffffff7fffffff7fffffff
CONST	SEGMENT
__xmm@7fffffff7fffffff7fffffff7fffffff DB 0ffH, 0ffH, 0ffH, 07fH, 0ffH, 0ffH
	DB	0ffH, 07fH, 0ffH, 0ffH, 0ffH, 07fH, 0ffH, 0ffH, 0ffH, 07fH
CONST	ENDS
;	COMDAT __xmm@441a15214112faabbfe127dd4037db16
CONST	SEGMENT
__xmm@441a15214112faabbfe127dd4037db16 DB 016H, 0dbH, '7@', 0ddH, '''', 0e1H
	DB	0bfH, 0abH, 0faH, 012H, 'A!', 015H, 01aH, 'D'
CONST	ENDS
;	COMDAT __xmm@400000003f8000003f8000003f800000
CONST	SEGMENT
__xmm@400000003f8000003f8000003f800000 DB 00H, 00H, 080H, '?', 00H, 00H, 080H
	DB	'?', 00H, 00H, 080H, '?', 00H, 00H, 00H, '@'
CONST	ENDS
;	COMDAT __xmm@3ff00000000000003ff0000000000000
CONST	SEGMENT
__xmm@3ff00000000000003ff0000000000000 DB 00H, 00H, 00H, 00H, 00H, 00H, 0f0H
	DB	'?', 00H, 00H, 00H, 00H, 00H, 00H, 0f0H, '?'
CONST	ENDS
;	COMDAT __xmm@3f8000003f8000003f8000003f800000
CONST	SEGMENT
__xmm@3f8000003f8000003f8000003f800000 DB 00H, 00H, 080H, '?', 00H, 00H, 080H
	DB	'?', 00H, 00H, 080H, '?', 00H, 00H, 080H, '?'
CONST	ENDS
;	COMDAT __xmm@3f8000003f4000003f4000003f400000
CONST	SEGMENT
__xmm@3f8000003f4000003f4000003f400000 DB 00H, 00H, '@?', 00H, 00H, '@?', 00H
	DB	00H, '@?', 00H, 00H, 080H, '?'
CONST	ENDS
;	COMDAT __xmm@3f800000000000000000000000000000
CONST	SEGMENT
__xmm@3f800000000000000000000000000000 DB 00H, 00H, 00H, 00H, 00H, 00H, 00H
	DB	00H, 00H, 00H, 00H, 00H, 00H, 00H, 080H, '?'
CONST	ENDS
;	COMDAT __xmm@3f4000003f8000003e99999a3e19999a
CONST	SEGMENT
__xmm@3f4000003f8000003e99999a3e19999a DB 09aH, 099H, 019H, '>', 09aH, 099H
	DB	099H, '>', 00H, 00H, 080H, '?', 00H, 00H, '@?'
CONST	ENDS
;	COMDAT __xmm@3f4000003dcccccd3f4000003dcccccd
CONST	SEGMENT
__xmm@3f4000003dcccccd3f4000003dcccccd DB 0cdH, 0ccH, 0ccH, '=', 00H, 00H
	DB	'@?', 0cdH, 0ccH, 0ccH, '=', 00H, 00H, '@?'
CONST	ENDS
;	COMDAT __xmm@3f19999a3f4ccccd3f4ccccd3f4ccccd
CONST	SEGMENT
__xmm@3f19999a3f4ccccd3f4ccccd3f4ccccd DB 0cdH, 0ccH, 'L?', 0cdH, 0ccH, 'L'
	DB	'?', 0cdH, 0ccH, 'L?', 09aH, 099H, 019H, '?'
CONST	ENDS
;	COMDAT __xmm@3f0000003f8000003f8000003f800000
CONST	SEGMENT
__xmm@3f0000003f8000003f8000003f800000 DB 00H, 00H, 080H, '?', 00H, 00H, 080H
	DB	'?', 00H, 00H, 080H, '?', 00H, 00H, 00H, '?'
CONST	ENDS
;	COMDAT __xmm@3f0000003f0000003f0000003f000000
CONST	SEGMENT
__xmm@3f0000003f0000003f0000003f000000 DB 00H, 00H, 00H, '?', 00H, 00H, 00H
	DB	'?', 00H, 00H, 00H, '?', 00H, 00H, 00H, '?'
CONST	ENDS
;	COMDAT __xmm@3e4ccccd000000003e4ccccd00000000
CONST	SEGMENT
__xmm@3e4ccccd000000003e4ccccd00000000 DB 00H, 00H, 00H, 00H, 0cdH, 0ccH, 'L'
	DB	'>', 00H, 00H, 00H, 00H, 0cdH, 0ccH, 'L>'
CONST	ENDS
;	COMDAT __xmm@1c5a1c5a1c5a1c5a1c5a1c5a1c5a1c5a
CONST	SEGMENT
__xmm@1c5a1c5a1c5a1c5a1c5a1c5a1c5a1c5a DB 'Z', 01cH, 'Z', 01cH, 'Z', 01cH
	DB	'Z', 01cH, 'Z', 01cH, 'Z', 01cH, 'Z', 01cH, 'Z', 01cH
CONST	ENDS
;	COMDAT __xmm@166f166f166f166f166f166f166f166f
CONST	SEGMENT
__xmm@166f166f166f166f166f166f166f166f DB 'o', 016H, 'o', 016H, 'o', 016H
	DB	'o', 016H, 'o', 016H, 'o', 016H, 'o', 016H, 'o', 016H
CONST	ENDS
;	COMDAT __xmm@12d0046b12d0046b12d0046b12d0046b
CONST	SEGMENT
__xmm@12d0046b12d0046b12d0046b12d0046b DB 'k', 04H, 0d0H, 012H, 'k', 04H, 0d0H
	DB	012H, 'k', 04H, 0d0H, 012H, 'k', 04H, 0d0H, 012H
CONST	ENDS
;	COMDAT __xmm@11c8f9c311c8f9c311c8f9c311c8f9c3
CONST	SEGMENT
__xmm@11c8f9c311c8f9c311c8f9c311c8f9c3 DB 0c3H, 0f9H, 0c8H, 011H, 0c3H, 0f9H
	DB	0c8H, 011H, 0c3H, 0f9H, 0c8H, 011H, 0c3H, 0f9H, 0c8H, 011H
CONST	ENDS
;	COMDAT __xmm@11c8e09e11c8e09e11c8e09e11c8e09e
CONST	SEGMENT
__xmm@11c8e09e11c8e09e11c8e09e11c8e09e DB 09eH, 0e0H, 0c8H, 011H, 09eH, 0e0H
	DB	0c8H, 011H, 09eH, 0e0H, 0c8H, 011H, 09eH, 0e0H, 0c8H, 011H
CONST	ENDS
;	COMDAT __xmm@08a914e808a914e808a914e808a914e8
CONST	SEGMENT
__xmm@08a914e808a914e808a914e808a914e8 DB 0e8H, 014H, 0a9H, 08H, 0e8H, 014H
	DB	0a9H, 08H, 0e8H, 014H, 0a9H, 08H, 0e8H, 014H, 0a9H, 08H
CONST	ENDS
;	COMDAT __xmm@01010000010100000101000001010000
CONST	SEGMENT
__xmm@01010000010100000101000001010000 DB 00H, 00H, 01H, 01H, 00H, 00H, 01H
	DB	01H, 00H, 00H, 01H, 01H, 00H, 00H, 01H, 01H
CONST	ENDS
;	COMDAT __xmm@00ff00ff00ff00ff00ff00ff00ff00ff
CONST	SEGMENT
__xmm@00ff00ff00ff00ff00ff00ff00ff00ff DB 0ffH, 00H, 0ffH, 00H, 0ffH, 00H
	DB	0ffH, 00H, 0ffH, 00H, 0ffH, 00H, 0ffH, 00H, 0ffH, 00H
CONST	ENDS
;	COMDAT __xmm@00080008000800080008000800080008
CONST	SEGMENT
__xmm@00080008000800080008000800080008 DB 08H, 00H, 08H, 00H, 08H, 00H, 08H
	DB	00H, 08H, 00H, 08H, 00H, 08H, 00H, 08H, 00H
CONST	ENDS
;	COMDAT __xmm@00000200000002000000020000000200
CONST	SEGMENT
__xmm@00000200000002000000020000000200 DB 00H, 02H, 00H, 00H, 00H, 02H, 00H
	DB	00H, 00H, 02H, 00H, 00H, 00H, 02H, 00H, 00H
CONST	ENDS
;	COMDAT __xmm@00000004000000080000000800000008
CONST	SEGMENT
__xmm@00000004000000080000000800000008 DB 08H, 00H, 00H, 00H, 08H, 00H, 00H
	DB	00H, 08H, 00H, 00H, 00H, 04H, 00H, 00H, 00H
CONST	ENDS
;	COMDAT __xmm@00000004000000040000000800000008
CONST	SEGMENT
__xmm@00000004000000040000000800000008 DB 08H, 00H, 00H, 00H, 08H, 00H, 00H
	DB	00H, 04H, 00H, 00H, 00H, 04H, 00H, 00H, 00H
CONST	ENDS
;	COMDAT __xmm@00000003000000030000000300000003
CONST	SEGMENT
__xmm@00000003000000030000000300000003 DB 03H, 00H, 00H, 00H, 03H, 00H, 00H
	DB	00H, 03H, 00H, 00H, 00H, 03H, 00H, 00H, 00H
CONST	ENDS
;	COMDAT __xmm@00000002000000020000000200000002
CONST	SEGMENT
__xmm@00000002000000020000000200000002 DB 02H, 00H, 00H, 00H, 02H, 00H, 00H
	DB	00H, 02H, 00H, 00H, 00H, 02H, 00H, 00H, 00H
CONST	ENDS
;	COMDAT __xmm@00000002000000000000000400000000
CONST	SEGMENT
__xmm@00000002000000000000000400000000 DB 00H, 00H, 00H, 00H, 04H, 00H, 00H
	DB	00H, 00H, 00H, 00H, 00H, 02H, 00H, 00H, 00H
CONST	ENDS
;	COMDAT __xmm@00000000bf8000000000000000000000
CONST	SEGMENT
__xmm@00000000bf8000000000000000000000 DB 00H, 00H, 00H, 00H, 00H, 00H, 00H
	DB	00H, 00H, 00H, 080H, 0bfH, 00H, 00H, 00H, 00H
CONST	ENDS
;	COMDAT __xmm@00000000bca3e7d30000000000000000
CONST	SEGMENT
__xmm@00000000bca3e7d30000000000000000 DB 00H, 00H, 00H, 00H, 00H, 00H, 00H
	DB	00H, 0d3H, 0e7H, 0a3H, 0bcH, 00H, 00H, 00H, 00H
CONST	ENDS
;	COMDAT __xmm@00000000bca3df6e0000000000000000
CONST	SEGMENT
__xmm@00000000bca3df6e0000000000000000 DB 00H, 00H, 00H, 00H, 00H, 00H, 00H
	DB	00H, 'n', 0dfH, 0a3H, 0bcH, 00H, 00H, 00H, 00H
CONST	ENDS
;	COMDAT __xmm@000000003f8000003f80000000000000
CONST	SEGMENT
__xmm@000000003f8000003f80000000000000 DB 00H, 00H, 00H, 00H, 00H, 00H, 080H
	DB	'?', 00H, 00H, 080H, '?', 00H, 00H, 00H, 00H
CONST	ENDS
;	COMDAT __xmm@000000003f8000000000000000000000
CONST	SEGMENT
__xmm@000000003f8000000000000000000000 DB 00H, 00H, 00H, 00H, 00H, 00H, 00H
	DB	00H, 00H, 00H, 080H, '?', 00H, 00H, 00H, 00H
CONST	ENDS
;	COMDAT __xmm@000000000000000f0000000000000000
CONST	SEGMENT
__xmm@000000000000000f0000000000000000 DB 00H, 00H, 00H, 00H, 00H, 00H, 00H
	DB	00H, 0fH, 00H, 00H, 00H, 00H, 00H, 00H, 00H
CONST	ENDS
;	COMDAT __xmm@00000000000000040000000000000000
CONST	SEGMENT
__xmm@00000000000000040000000000000000 DB 00H, 00H, 00H, 00H, 00H, 00H, 00H
	DB	00H, 04H, 00H, 00H, 00H, 00H, 00H, 00H, 00H
CONST	ENDS
;	COMDAT __xmm@0000000000000000bf8000003f800000
CONST	SEGMENT
__xmm@0000000000000000bf8000003f800000 DB 00H, 00H, 080H, '?', 00H, 00H, 080H
	DB	0bfH, 00H, 00H, 00H, 00H, 00H, 00H, 00H, 00H
CONST	ENDS
;	COMDAT __xmm@0000000000000000bf80000000000000
CONST	SEGMENT
__xmm@0000000000000000bf80000000000000 DB 00H, 00H, 00H, 00H, 00H, 00H, 080H
	DB	0bfH, 00H, 00H, 00H, 00H, 00H, 00H, 00H, 00H
CONST	ENDS
;	COMDAT __xmm@00000000000000003f80000000000000
CONST	SEGMENT
__xmm@00000000000000003f80000000000000 DB 00H, 00H, 00H, 00H, 00H, 00H, 080H
	DB	'?', 00H, 00H, 00H, 00H, 00H, 00H, 00H, 00H
CONST	ENDS
;	COMDAT __xmm@0000000000000000000000003f800000
CONST	SEGMENT
__xmm@0000000000000000000000003f800000 DB 00H, 00H, 080H, '?', 00H, 00H, 00H
	DB	00H, 00H, 00H, 00H, 00H, 00H, 00H, 00H, 00H
CONST	ENDS
;	COMDAT __real@c7c34ff3
CONST	SEGMENT
__real@c7c34ff3 DD 0c7c34ff3r			; -99999.9
CONST	ENDS
;	COMDAT __real@c479c000
CONST	SEGMENT
__real@c479c000 DD 0c479c000r			; -999
CONST	ENDS
;	COMDAT __real@c2b40000
CONST	SEGMENT
__real@c2b40000 DD 0c2b40000r			; -90
CONST	ENDS
;	COMDAT __real@c1ac0000
CONST	SEGMENT
__real@c1ac0000 DD 0c1ac0000r			; -21.5
CONST	ENDS
;	COMDAT __real@c1a86666
CONST	SEGMENT
__real@c1a86666 DD 0c1a86666r			; -21.05
CONST	ENDS
;	COMDAT __real@c17cb021
CONST	SEGMENT
__real@c17cb021 DD 0c17cb021r			; -15.793
CONST	ENDS
;	COMDAT __real@c1487efa
CONST	SEGMENT
__real@c1487efa DD 0c1487efar			; -12.531
CONST	ENDS
;	COMDAT __real@c1287efa
CONST	SEGMENT
__real@c1287efa DD 0c1287efar			; -10.531
CONST	ENDS
;	COMDAT __real@c1180000
CONST	SEGMENT
__real@c1180000 DD 0c1180000r			; -9.5
CONST	ENDS
;	COMDAT __real@c0f9999a
CONST	SEGMENT
__real@c0f9999a DD 0c0f9999ar			; -7.8
CONST	ENDS
;	COMDAT __real@c0f7f7cf
CONST	SEGMENT
__real@c0f7f7cf DD 0c0f7f7cfr			; -7.749
CONST	ENDS
;	COMDAT __real@c0cced91
CONST	SEGMENT
__real@c0cced91 DD 0c0cced91r			; -6.404
CONST	ENDS
;	COMDAT __real@c09ef1aa
CONST	SEGMENT
__real@c09ef1aa DD 0c09ef1aar			; -4.967
CONST	ENDS
;	COMDAT __real@c096872b
CONST	SEGMENT
__real@c096872b DD 0c096872br			; -4.704
CONST	ENDS
;	COMDAT __real@c0859ce0
CONST	SEGMENT
__real@c0859ce0 DD 0c0859ce0r			; -4.1754
CONST	ENDS
;	COMDAT __real@c05b020c
CONST	SEGMENT
__real@c05b020c DD 0c05b020cr			; -3.422
CONST	ENDS
;	COMDAT __real@c05147ae
CONST	SEGMENT
__real@c05147ae DD 0c05147aer			; -3.27
CONST	ENDS
;	COMDAT __real@c050a57a
CONST	SEGMENT
__real@c050a57a DD 0c050a57ar			; -3.2601
CONST	ENDS
;	COMDAT __real@c045c28f
CONST	SEGMENT
__real@c045c28f DD 0c045c28fr			; -3.09
CONST	ENDS
;	COMDAT __real@c0425e35
CONST	SEGMENT
__real@c0425e35 DD 0c0425e35r			; -3.037
CONST	ENDS
;	COMDAT __real@c032800000000000
CONST	SEGMENT
__real@c032800000000000 DQ 0c032800000000000r	; -18.5
CONST	ENDS
;	COMDAT __real@c02d0e56
CONST	SEGMENT
__real@c02d0e56 DD 0c02d0e56r			; -2.704
CONST	ENDS
;	COMDAT __real@c022d47ae147ae14
CONST	SEGMENT
__real@c022d47ae147ae14 DQ 0c022d47ae147ae14r	; -9.415
CONST	ENDS
;	COMDAT __real@c016c8b4
CONST	SEGMENT
__real@c016c8b4 DD 0c016c8b4r			; -2.356
CONST	ENDS
;	COMDAT __real@c0109375
CONST	SEGMENT
__real@c0109375 DD 0c0109375r			; -2.259
CONST	ENDS
;	COMDAT __real@c00ccccd
CONST	SEGMENT
__real@c00ccccd DD 0c00ccccdr			; -2.2
CONST	ENDS
;	COMDAT __real@c00b51eb851eb852
CONST	SEGMENT
__real@c00b51eb851eb852 DQ 0c00b51eb851eb852r	; -3.415
CONST	ENDS
;	COMDAT __real@c0000000
CONST	SEGMENT
__real@c0000000 DD 0c0000000r			; -2
CONST	ENDS
;	COMDAT __real@bff31b71758e2196
CONST	SEGMENT
__real@bff31b71758e2196 DQ 0bff31b71758e2196r	; -1.1942
CONST	ENDS
;	COMDAT __real@bff278d4fdf3b646
CONST	SEGMENT
__real@bff278d4fdf3b646 DQ 0bff278d4fdf3b646r	; -1.1545
CONST	ENDS
;	COMDAT __real@bff23eab367a0f91
CONST	SEGMENT
__real@bff23eab367a0f91 DQ 0bff23eab367a0f91r	; -1.1403
CONST	ENDS
;	COMDAT __real@bff222d0e5604189
CONST	SEGMENT
__real@bff222d0e5604189 DQ 0bff222d0e5604189r	; -1.1335
CONST	ENDS
;	COMDAT __real@bff094467381d7dc
CONST	SEGMENT
__real@bff094467381d7dc DQ 0bff094467381d7dcr	; -1.0362
CONST	ENDS
;	COMDAT __real@bff0000000000000
CONST	SEGMENT
__real@bff0000000000000 DQ 0bff0000000000000r	; -1
CONST	ENDS
;	COMDAT __real@bfeb851f
CONST	SEGMENT
__real@bfeb851f DD 0bfeb851fr			; -1.84
CONST	ENDS
;	COMDAT __real@bfe38bac
CONST	SEGMENT
__real@bfe38bac DD 0bfe38bacr			; -1.7777
CONST	ENDS
;	COMDAT __real@bfdc28f6
CONST	SEGMENT
__real@bfdc28f6 DD 0bfdc28f6r			; -1.72
CONST	ENDS
;	COMDAT __real@bfd8807357e670e3
CONST	SEGMENT
__real@bfd8807357e670e3 DQ 0bfd8807357e670e3r	; -0.38284
CONST	ENDS
;	COMDAT __real@bfc00000
CONST	SEGMENT
__real@bfc00000 DD 0bfc00000r			; -1.5
CONST	ENDS
;	COMDAT __real@bfb9999a
CONST	SEGMENT
__real@bfb9999a DD 0bfb9999ar			; -1.45
CONST	ENDS
;	COMDAT __real@bfb70a3d
CONST	SEGMENT
__real@bfb70a3d DD 0bfb70a3dr			; -1.43
CONST	ENDS
;	COMDAT __real@bfb631f9
CONST	SEGMENT
__real@bfb631f9 DD 0bfb631f9r			; -1.4234
CONST	ENDS
;	COMDAT __real@bfb147ae
CONST	SEGMENT
__real@bfb147ae DD 0bfb147aer			; -1.385
CONST	ENDS
;	COMDAT __real@bfaccccd
CONST	SEGMENT
__real@bfaccccd DD 0bfaccccdr			; -1.35
CONST	ENDS
;	COMDAT __real@bfa147ae
CONST	SEGMENT
__real@bfa147ae DD 0bfa147aer			; -1.26
CONST	ENDS
;	COMDAT __real@bf9d70a4
CONST	SEGMENT
__real@bf9d70a4 DD 0bf9d70a4r			; -1.23
CONST	ENDS
;	COMDAT __real@bf9bf488
CONST	SEGMENT
__real@bf9bf488 DD 0bf9bf488r			; -1.2184
CONST	ENDS
;	COMDAT __real@bf9ae148
CONST	SEGMENT
__real@bf9ae148 DD 0bf9ae148r			; -1.21
CONST	ENDS
;	COMDAT __real@bf99999a
CONST	SEGMENT
__real@bf99999a DD 0bf99999ar			; -1.2
CONST	ENDS
;	COMDAT __real@bf800000
CONST	SEGMENT
__real@bf800000 DD 0bf800000r			; -1
CONST	ENDS
;	COMDAT __real@bf79b50f
CONST	SEGMENT
__real@bf79b50f DD 0bf79b50fr			; -0.975419
CONST	ENDS
;	COMDAT __real@bf795e9e
CONST	SEGMENT
__real@bf795e9e DD 0bf795e9er			; -0.9741
CONST	ENDS
;	COMDAT __real@bf733333
CONST	SEGMENT
__real@bf733333 DD 0bf733333r			; -0.95
CONST	ENDS
;	COMDAT __real@bf666666
CONST	SEGMENT
__real@bf666666 DD 0bf666666r			; -0.9
CONST	ENDS
;	COMDAT __real@bf4ccccd
CONST	SEGMENT
__real@bf4ccccd DD 0bf4ccccdr			; -0.8
CONST	ENDS
;	COMDAT __real@bf400000
CONST	SEGMENT
__real@bf400000 DD 0bf400000r			; -0.75
CONST	ENDS
;	COMDAT __real@bf3fbe77
CONST	SEGMENT
__real@bf3fbe77 DD 0bf3fbe77r			; -0.749
CONST	ENDS
;	COMDAT __real@bf38d4fe
CONST	SEGMENT
__real@bf38d4fe DD 0bf38d4fer			; -0.722
CONST	ENDS
;	COMDAT __real@bf333333
CONST	SEGMENT
__real@bf333333 DD 0bf333333r			; -0.7
CONST	ENDS
;	COMDAT __real@bf266666
CONST	SEGMENT
__real@bf266666 DD 0bf266666r			; -0.65
CONST	ENDS
;	COMDAT __real@bf11c4db
CONST	SEGMENT
__real@bf11c4db DD 0bf11c4dbr			; -0.56941
CONST	ENDS
;	COMDAT __real@bf0b9cb7
CONST	SEGMENT
__real@bf0b9cb7 DD 0bf0b9cb7r			; -0.54536
CONST	ENDS
;	COMDAT __real@bf000000
CONST	SEGMENT
__real@bf000000 DD 0bf000000r			; -0.5
CONST	ENDS
;	COMDAT __real@becccccd
CONST	SEGMENT
__real@becccccd DD 0becccccdr			; -0.4
CONST	ENDS
;	COMDAT __real@be99999a
CONST	SEGMENT
__real@be99999a DD 0be99999ar			; -0.3
CONST	ENDS
;	COMDAT __real@be800000
CONST	SEGMENT
__real@be800000 DD 0be800000r			; -0.25
CONST	ENDS
;	COMDAT __real@be4ccccd
CONST	SEGMENT
__real@be4ccccd DD 0be4ccccdr			; -0.2
CONST	ENDS
;	COMDAT __real@be000000
CONST	SEGMENT
__real@be000000 DD 0be000000r			; -0.125
CONST	ENDS
;	COMDAT __real@bde147ae
CONST	SEGMENT
__real@bde147ae DD 0bde147aer			; -0.11
CONST	ENDS
;	COMDAT __real@bdcccccd
CONST	SEGMENT
__real@bdcccccd DD 0bdcccccdr			; -0.1
CONST	ENDS
;	COMDAT __real@bdc580c3
CONST	SEGMENT
__real@bdc580c3 DD 0bdc580c3r			; -0.096437
CONST	ENDS
;	COMDAT __real@bd4ccccd
CONST	SEGMENT
__real@bd4ccccd DD 0bd4ccccdr			; -0.05
CONST	ENDS
;	COMDAT __real@bc8efa2e
CONST	SEGMENT
__real@bc8efa2e DD 0bc8efa2er			; -0.0174533
CONST	ENDS
;	COMDAT __real@bc4ccccd
CONST	SEGMENT
__real@bc4ccccd DD 0bc4ccccdr			; -0.0125
CONST	ENDS
;	COMDAT __real@80000000
CONST	SEGMENT
__real@80000000 DD 080000000r			; -0
CONST	ENDS
;	COMDAT __real@5f000000
CONST	SEGMENT
__real@5f000000 DD 05f000000r			; 9.22337e+18
CONST	ENDS
;	COMDAT __real@497423f0
CONST	SEGMENT
__real@497423f0 DD 0497423f0r			; 999999
CONST	ENDS
;	COMDAT __real@47c34ff3
CONST	SEGMENT
__real@47c34ff3 DD 047c34ff3r			; 99999.9
CONST	ENDS
;	COMDAT __real@477fff00
CONST	SEGMENT
__real@477fff00 DD 0477fff00r			; 65535
CONST	ENDS
;	COMDAT __real@461c3c00
CONST	SEGMENT
__real@461c3c00 DD 0461c3c00r			; 9999
CONST	ENDS
;	COMDAT __real@447a0000
CONST	SEGMENT
__real@447a0000 DD 0447a0000r			; 1000
CONST	ENDS
;	COMDAT __real@4479c000
CONST	SEGMENT
__real@4479c000 DD 04479c000r			; 999
CONST	ENDS
;	COMDAT __real@43b40000
CONST	SEGMENT
__real@43b40000 DD 043b40000r			; 360
CONST	ENDS
;	COMDAT __real@43800000
CONST	SEGMENT
__real@43800000 DD 043800000r			; 256
CONST	ENDS
;	COMDAT __real@437f0000
CONST	SEGMENT
__real@437f0000 DD 0437f0000r			; 255
CONST	ENDS
;	COMDAT __real@42c80000
CONST	SEGMENT
__real@42c80000 DD 042c80000r			; 100
CONST	ENDS
;	COMDAT __real@42b40000
CONST	SEGMENT
__real@42b40000 DD 042b40000r			; 90
CONST	ENDS
;	COMDAT __real@42a00000
CONST	SEGMENT
__real@42a00000 DD 042a00000r			; 80
CONST	ENDS
;	COMDAT __real@428c0000
CONST	SEGMENT
__real@428c0000 DD 0428c0000r			; 70
CONST	ENDS
;	COMDAT __real@42800000
CONST	SEGMENT
__real@42800000 DD 042800000r			; 64
CONST	ENDS
;	COMDAT __real@42700000
CONST	SEGMENT
__real@42700000 DD 042700000r			; 60
CONST	ENDS
;	COMDAT __real@420c0000
CONST	SEGMENT
__real@420c0000 DD 0420c0000r			; 35
CONST	ENDS
;	COMDAT __real@41f00000
CONST	SEGMENT
__real@41f00000 DD 041f00000r			; 30
CONST	ENDS
;	COMDAT __real@41c00000
CONST	SEGMENT
__real@41c00000 DD 041c00000r			; 24
CONST	ENDS
;	COMDAT __real@41980000
CONST	SEGMENT
__real@41980000 DD 041980000r			; 19
CONST	ENDS
;	COMDAT __real@41800000
CONST	SEGMENT
__real@41800000 DD 041800000r			; 16
CONST	ENDS
;	COMDAT __real@41600000
CONST	SEGMENT
__real@41600000 DD 041600000r			; 14
CONST	ENDS
;	COMDAT __real@41400000
CONST	SEGMENT
__real@41400000 DD 041400000r			; 12
CONST	ENDS
;	COMDAT __real@412147ae
CONST	SEGMENT
__real@412147ae DD 0412147aer			; 10.08
CONST	ENDS
;	COMDAT __real@41200000
CONST	SEGMENT
__real@41200000 DD 041200000r			; 10
CONST	ENDS
;	COMDAT __real@410bb852
CONST	SEGMENT
__real@410bb852 DD 0410bb852r			; 8.7325
CONST	ENDS
;	COMDAT __real@410ae148
CONST	SEGMENT
__real@410ae148 DD 0410ae148r			; 8.68
CONST	ENDS
;	COMDAT __real@410a7a10
CONST	SEGMENT
__real@410a7a10 DD 0410a7a10r			; 8.6548
CONST	ENDS
;	COMDAT __real@41073333
CONST	SEGMENT
__real@41073333 DD 041073333r			; 8.45
CONST	ENDS
;	COMDAT __real@410451ec
CONST	SEGMENT
__real@410451ec DD 0410451ecr			; 8.27
CONST	ENDS
;	COMDAT __real@4103d70a
CONST	SEGMENT
__real@4103d70a DD 04103d70ar			; 8.24
CONST	ENDS
;	COMDAT __real@41020aa6
CONST	SEGMENT
__real@41020aa6 DD 041020aa6r			; 8.1276
CONST	ENDS
;	COMDAT __real@41000000
CONST	SEGMENT
__real@41000000 DD 041000000r			; 8
CONST	ENDS
;	COMDAT __real@40f75c29
CONST	SEGMENT
__real@40f75c29 DD 040f75c29r			; 7.73
CONST	ENDS
;	COMDAT __real@40f66666
CONST	SEGMENT
__real@40f66666 DD 040f66666r			; 7.7
CONST	ENDS
;	COMDAT __real@40f3999a
CONST	SEGMENT
__real@40f3999a DD 040f3999ar			; 7.6125
CONST	ENDS
;	COMDAT __real@40eafd22
CONST	SEGMENT
__real@40eafd22 DD 040eafd22r			; 7.3434
CONST	ENDS
;	COMDAT __real@40d00000
CONST	SEGMENT
__real@40d00000 DD 040d00000r			; 6.5
CONST	ENDS
;	COMDAT __real@40ce2d0e
CONST	SEGMENT
__real@40ce2d0e DD 040ce2d0er			; 6.443
CONST	ENDS
;	COMDAT __real@40cccccd
CONST	SEGMENT
__real@40cccccd DD 040cccccdr			; 6.4
CONST	ENDS
;	COMDAT __real@40c90fd0
CONST	SEGMENT
__real@40c90fd0 DD 040c90fd0r			; 6.28318
CONST	ENDS
;	COMDAT __real@40c00000
CONST	SEGMENT
__real@40c00000 DD 040c00000r			; 6
CONST	ENDS
;	COMDAT __real@40a978d5
CONST	SEGMENT
__real@40a978d5 DD 040a978d5r			; 5.296
CONST	ENDS
;	COMDAT __real@40a70a3d
CONST	SEGMENT
__real@40a70a3d DD 040a70a3dr			; 5.22
CONST	ENDS
;	COMDAT __real@40a4154d
CONST	SEGMENT
__real@40a4154d DD 040a4154dr			; 5.1276
CONST	ENDS
;	COMDAT __real@40a33333
CONST	SEGMENT
__real@40a33333 DD 040a33333r			; 5.1
CONST	ENDS
;	COMDAT __real@40a00000
CONST	SEGMENT
__real@40a00000 DD 040a00000r			; 5
CONST	ENDS
;	COMDAT __real@408d374c
CONST	SEGMENT
__real@408d374c DD 0408d374cr			; 4.413
CONST	ENDS
;	COMDAT __real@40800000
CONST	SEGMENT
__real@40800000 DD 040800000r			; 4
CONST	ENDS
;	COMDAT __real@407e147b
CONST	SEGMENT
__real@407e147b DD 0407e147br			; 3.97
CONST	ENDS
;	COMDAT __real@407d4fdf
CONST	SEGMENT
__real@407d4fdf DD 0407d4fdfr			; 3.958
CONST	ENDS
;	COMDAT __real@40627bb3
CONST	SEGMENT
__real@40627bb3 DD 040627bb3r			; 3.5388
CONST	ENDS
;	COMDAT __real@40492d77
CONST	SEGMENT
__real@40492d77 DD 040492d77r			; 3.1434
CONST	ENDS
;	COMDAT __real@40490fd0
CONST	SEGMENT
__real@40490fd0 DD 040490fd0r			; 3.14159
CONST	ENDS
;	COMDAT __real@40400000
CONST	SEGMENT
__real@40400000 DD 040400000r			; 3
CONST	ENDS
;	COMDAT __real@403b851f
CONST	SEGMENT
__real@403b851f DD 0403b851fr			; 2.93
CONST	ENDS
;	COMDAT __real@402a3d71
CONST	SEGMENT
__real@402a3d71 DD 0402a3d71r			; 2.66
CONST	ENDS
;	COMDAT __real@4024000000000000
CONST	SEGMENT
__real@4024000000000000 DQ 04024000000000000r	; 10
CONST	ENDS
;	COMDAT __real@40200000
CONST	SEGMENT
__real@40200000 DD 040200000r			; 2.5
CONST	ENDS
;	COMDAT __real@4015c28f
CONST	SEGMENT
__real@4015c28f DD 04015c28fr			; 2.34
CONST	ENDS
;	COMDAT __real@4014000000000000
CONST	SEGMENT
__real@4014000000000000 DQ 04014000000000000r	; 5
CONST	ENDS
;	COMDAT __real@401399999999999a
CONST	SEGMENT
__real@401399999999999a DQ 0401399999999999ar	; 4.9
CONST	ENDS
;	COMDAT __real@400e310129cbab65
CONST	SEGMENT
__real@400e310129cbab65 DQ 0400e310129cbab65r	; 3.77393
CONST	ENDS
;	COMDAT __real@400ccccd
CONST	SEGMENT
__real@400ccccd DD 0400ccccdr			; 2.2
CONST	ENDS
;	COMDAT __real@4009d97f
CONST	SEGMENT
__real@4009d97f DD 04009d97fr			; 2.1539
CONST	ENDS
;	COMDAT __real@4006310129cbab65
CONST	SEGMENT
__real@4006310129cbab65 DQ 04006310129cbab65r	; 2.77393
CONST	ENDS
;	COMDAT __real@40000000
CONST	SEGMENT
__real@40000000 DD 040000000r			; 2
CONST	ENDS
;	COMDAT __real@3ff9999a
CONST	SEGMENT
__real@3ff9999a DD 03ff9999ar			; 1.95
CONST	ENDS
;	COMDAT __real@3ff8000000000000
CONST	SEGMENT
__real@3ff8000000000000 DQ 03ff8000000000000r	; 1.5
CONST	ENDS
;	COMDAT __real@3ff0000000000000
CONST	SEGMENT
__real@3ff0000000000000 DQ 03ff0000000000000r	; 1
CONST	ENDS
;	COMDAT __real@3fef65fe
CONST	SEGMENT
__real@3fef65fe DD 03fef65fer			; 1.8703
CONST	ENDS
;	COMDAT __real@3fe7b15b
CONST	SEGMENT
__real@3fe7b15b DD 03fe7b15br			; 1.8101
CONST	ENDS
;	COMDAT __real@3fe6666660000000
CONST	SEGMENT
__real@3fe6666660000000 DQ 03fe6666660000000r	; 0.7
CONST	ENDS
;	COMDAT __real@3fe38bac
CONST	SEGMENT
__real@3fe38bac DD 03fe38bacr			; 1.7777
CONST	ENDS
;	COMDAT __real@3fe0000000000000
CONST	SEGMENT
__real@3fe0000000000000 DQ 03fe0000000000000r	; 0.5
CONST	ENDS
;	COMDAT __real@3fdfe5c9
CONST	SEGMENT
__real@3fdfe5c9 DD 03fdfe5c9r			; 1.7492
CONST	ENDS
;	COMDAT __real@3fd999999999999a
CONST	SEGMENT
__real@3fd999999999999a DQ 03fd999999999999ar	; 0.4
CONST	ENDS
;	COMDAT __real@3fd3333340000000
CONST	SEGMENT
__real@3fd3333340000000 DQ 03fd3333340000000r	; 0.3
CONST	ENDS
;	COMDAT __real@3fd3333333333333
CONST	SEGMENT
__real@3fd3333333333333 DQ 03fd3333333333333r	; 0.3
CONST	ENDS
;	COMDAT __real@3fd33333
CONST	SEGMENT
__real@3fd33333 DD 03fd33333r			; 1.65
CONST	ENDS
;	COMDAT __real@3fd0000000000000
CONST	SEGMENT
__real@3fd0000000000000 DQ 03fd0000000000000r	; 0.25
CONST	ENDS
;	COMDAT __real@3fc66666
CONST	SEGMENT
__real@3fc66666 DD 03fc66666r			; 1.55
CONST	ENDS
;	COMDAT __real@3fc00000
CONST	SEGMENT
__real@3fc00000 DD 03fc00000r			; 1.5
CONST	ENDS
;	COMDAT __real@3faccccd
CONST	SEGMENT
__real@3faccccd DD 03faccccdr			; 1.35
CONST	ENDS
;	COMDAT __real@3fa66666
CONST	SEGMENT
__real@3fa66666 DD 03fa66666r			; 1.3
CONST	ENDS
;	COMDAT __real@3fa47ae147ae147b
CONST	SEGMENT
__real@3fa47ae147ae147b DQ 03fa47ae147ae147br	; 0.04
CONST	ENDS
;	COMDAT __real@3fa00000
CONST	SEGMENT
__real@3fa00000 DD 03fa00000r			; 1.25
CONST	ENDS
;	COMDAT __real@3f99999a
CONST	SEGMENT
__real@3f99999a DD 03f99999ar			; 1.2
CONST	ENDS
;	COMDAT __real@3f800000
CONST	SEGMENT
__real@3f800000 DD 03f800000r			; 1
CONST	ENDS
;	COMDAT __real@3f666666
CONST	SEGMENT
__real@3f666666 DD 03f666666r			; 0.9
CONST	ENDS
;	COMDAT __real@3f600000
CONST	SEGMENT
__real@3f600000 DD 03f600000r			; 0.875
CONST	ENDS
;	COMDAT __real@3f5db22d
CONST	SEGMENT
__real@3f5db22d DD 03f5db22dr			; 0.866
CONST	ENDS
;	COMDAT __real@3f4ccccd
CONST	SEGMENT
__real@3f4ccccd DD 03f4ccccdr			; 0.8
CONST	ENDS
;	COMDAT __real@3f490fdb
CONST	SEGMENT
__real@3f490fdb DD 03f490fdbr			; 0.785398
CONST	ENDS
;	COMDAT __real@3f400000
CONST	SEGMENT
__real@3f400000 DD 03f400000r			; 0.75
CONST	ENDS
;	COMDAT __real@3f39999a
CONST	SEGMENT
__real@3f39999a DD 03f39999ar			; 0.725
CONST	ENDS
;	COMDAT __real@3f333333
CONST	SEGMENT
__real@3f333333 DD 03f333333r			; 0.7
CONST	ENDS
;	COMDAT __real@3f2ccccd
CONST	SEGMENT
__real@3f2ccccd DD 03f2ccccdr			; 0.675
CONST	ENDS
;	COMDAT __real@3f266666
CONST	SEGMENT
__real@3f266666 DD 03f266666r			; 0.65
CONST	ENDS
;	COMDAT __real@3f19999a
CONST	SEGMENT
__real@3f19999a DD 03f19999ar			; 0.6
CONST	ENDS
;	COMDAT __real@3f0ccccd
CONST	SEGMENT
__real@3f0ccccd DD 03f0ccccdr			; 0.55
CONST	ENDS
;	COMDAT __real@3f000000
CONST	SEGMENT
__real@3f000000 DD 03f000000r			; 0.5
CONST	ENDS
;	COMDAT __real@3eeca57a
CONST	SEGMENT
__real@3eeca57a DD 03eeca57ar			; 0.4622
CONST	ENDS
;	COMDAT __real@3ee8ba2e
CONST	SEGMENT
__real@3ee8ba2e DD 03ee8ba2er			; 0.454545
CONST	ENDS
;	COMDAT __real@3ee66666
CONST	SEGMENT
__real@3ee66666 DD 03ee66666r			; 0.45
CONST	ENDS
;	COMDAT __real@3ecccccd
CONST	SEGMENT
__real@3ecccccd DD 03ecccccdr			; 0.4
CONST	ENDS
;	COMDAT __real@3ebcd35b
CONST	SEGMENT
__real@3ebcd35b DD 03ebcd35br			; 0.3688
CONST	ENDS
;	COMDAT __real@3eb33333
CONST	SEGMENT
__real@3eb33333 DD 03eb33333r			; 0.35
CONST	ENDS
;	COMDAT __real@3eaa7efa
CONST	SEGMENT
__real@3eaa7efa DD 03eaa7efar			; 0.333
CONST	ENDS
;	COMDAT __real@3e99999a
CONST	SEGMENT
__real@3e99999a DD 03e99999ar			; 0.3
CONST	ENDS
;	COMDAT __real@3e800000
CONST	SEGMENT
__real@3e800000 DD 03e800000r			; 0.25
CONST	ENDS
;	COMDAT __real@3e666666
CONST	SEGMENT
__real@3e666666 DD 03e666666r			; 0.225
CONST	ENDS
;	COMDAT __real@3e4ccccd
CONST	SEGMENT
__real@3e4ccccd DD 03e4ccccdr			; 0.2
CONST	ENDS
;	COMDAT __real@3e19999a
CONST	SEGMENT
__real@3e19999a DD 03e19999ar			; 0.15
CONST	ENDS
;	COMDAT __real@3e000000
CONST	SEGMENT
__real@3e000000 DD 03e000000r			; 0.125
CONST	ENDS
;	COMDAT __real@3df5c28f
CONST	SEGMENT
__real@3df5c28f DD 03df5c28fr			; 0.12
CONST	ENDS
;	COMDAT __real@3de147ae
CONST	SEGMENT
__real@3de147ae DD 03de147aer			; 0.11
CONST	ENDS
;	COMDAT __real@3dcccccd
CONST	SEGMENT
__real@3dcccccd DD 03dcccccdr			; 0.1
CONST	ENDS
;	COMDAT __real@3dc49ba6
CONST	SEGMENT
__real@3dc49ba6 DD 03dc49ba6r			; 0.096
CONST	ENDS
;	COMDAT __real@3da2680a
CONST	SEGMENT
__real@3da2680a DD 03da2680ar			; 0.0793
CONST	ENDS
;	COMDAT __real@3d99999a
CONST	SEGMENT
__real@3d99999a DD 03d99999ar			; 0.075
CONST	ENDS
;	COMDAT __real@3d888889
CONST	SEGMENT
__real@3d888889 DD 03d888889r			; 0.0666667
CONST	ENDS
;	COMDAT __real@3d800000
CONST	SEGMENT
__real@3d800000 DD 03d800000r			; 0.0625
CONST	ENDS
;	COMDAT __real@3d75c28f
CONST	SEGMENT
__real@3d75c28f DD 03d75c28fr			; 0.06
CONST	ENDS
;	COMDAT __real@3d4ccccd
CONST	SEGMENT
__real@3d4ccccd DD 03d4ccccdr			; 0.05
CONST	ENDS
;	COMDAT __real@3d48b439
CONST	SEGMENT
__real@3d48b439 DD 03d48b439r			; 0.049
CONST	ENDS
;	COMDAT __real@3d23d70a
CONST	SEGMENT
__real@3d23d70a DD 03d23d70ar			; 0.04
CONST	ENDS
;	COMDAT __real@3cfa2ad4
CONST	SEGMENT
__real@3cfa2ad4 DD 03cfa2ad4r			; 0.030538
CONST	ENDS
;	COMDAT __real@3ccccccd
CONST	SEGMENT
__real@3ccccccd DD 03ccccccdr			; 0.025
CONST	ENDS
;	COMDAT __real@3ca3d70a
CONST	SEGMENT
__real@3ca3d70a DD 03ca3d70ar			; 0.02
CONST	ENDS
;	COMDAT __real@3c8efa35
CONST	SEGMENT
__real@3c8efa35 DD 03c8efa35r			; 0.0174533
CONST	ENDS
;	COMDAT __real@3c8efa2e
CONST	SEGMENT
__real@3c8efa2e DD 03c8efa2er			; 0.0174533
CONST	ENDS
;	COMDAT __real@3c4ccccd
CONST	SEGMENT
__real@3c4ccccd DD 03c4ccccdr			; 0.0125
CONST	ENDS
;	COMDAT __real@3c23d70a
CONST	SEGMENT
__real@3c23d70a DD 03c23d70ar			; 0.01
CONST	ENDS
;	COMDAT __real@3c03126f
CONST	SEGMENT
__real@3c03126f DD 03c03126fr			; 0.008
CONST	ENDS
;	COMDAT __real@3bf5c28f
CONST	SEGMENT
__real@3bf5c28f DD 03bf5c28fr			; 0.0075
CONST	ENDS
;	COMDAT __real@3bd4fdf4
CONST	SEGMENT
__real@3bd4fdf4 DD 03bd4fdf4r			; 0.0065
CONST	ENDS
;	COMDAT __real@3ba3d70a
CONST	SEGMENT
__real@3ba3d70a DD 03ba3d70ar			; 0.005
CONST	ENDS
;	COMDAT __real@3b23d70a
CONST	SEGMENT
__real@3b23d70a DD 03b23d70ar			; 0.0025
CONST	ENDS
;	COMDAT __real@38000100
CONST	SEGMENT
__real@38000100 DD 038000100r			; 3.05185e-05
CONST	ENDS
;	COMDAT __real@34000000
CONST	SEGMENT
__real@34000000 DD 034000000r			; 1.19209e-07
CONST	ENDS
;	COMDAT __real@0000000000000000
CONST	SEGMENT
__real@0000000000000000 DQ 00000000000000000r	; 0
CONST	ENDS
;	COMDAT __real@00000000
CONST	SEGMENT
__real@00000000 DD 000000000r			; 0
CONST	ENDS
;	COMDAT xdata
xdata	SEGMENT
$unwind$_vsscanf_s_l DD 060f01H
	DD	09640fH
	DD	08340fH
	DD	0700b520fH
xdata	ENDS
;	COMDAT xdata
xdata	SEGMENT
$unwind$vsscanf_s DD 060f01H
	DD	09640fH
	DD	08340fH
	DD	0700b520fH
xdata	ENDS
;	COMDAT xdata
xdata	SEGMENT
$unwind$sscanf_s DD 041601H
	DD	070125216H
	DD	030106011H
xdata	ENDS
;	COMDAT xdata
xdata	SEGMENT
$unwind$open_gl DD 010401H
	DD	04204H
xdata	ENDS
;	COMDAT xdata
xdata	SEGMENT
$unwind$close_gl DD 010401H
	DD	04204H
xdata	ENDS
;	COMDAT xdata
xdata	SEGMENT
$unwind$get_proc DD 020601H
	DD	030023206H
xdata	ENDS
;	COMDAT xdata
xdata	SEGMENT
$chain$1$gladLoadGL DD 021H
	DD	imagerel $LN18
	DD	imagerel $LN18+57
	DD	imagerel $unwind$gladLoadGL
xdata	ENDS
;	COMDAT xdata
xdata	SEGMENT
$chain$0$gladLoadGL DD 020521H
	DD	043405H
	DD	imagerel $LN18
	DD	imagerel $LN18+57
	DD	imagerel $unwind$gladLoadGL
xdata	ENDS
;	COMDAT xdata
xdata	SEGMENT
$unwind$gladLoadGL DD 010401H
	DD	04204H
xdata	ENDS
;	COMDAT xdata
xdata	SEGMENT
$chain$4$get_exts DD 021H
	DD	imagerel get_exts
	DD	imagerel get_exts+161
	DD	imagerel $unwind$get_exts
xdata	ENDS
;	COMDAT xdata
xdata	SEGMENT
$chain$3$get_exts DD 081421H
	DD	04e414H
	DD	0a640fH
	DD	09540aH
	DD	083405H
	DD	imagerel get_exts
	DD	imagerel get_exts+161
	DD	imagerel $unwind$get_exts
xdata	ENDS
;	COMDAT xdata
xdata	SEGMENT
$unwind$get_exts DD 030801H
	DD	0f0044208H
	DD	07002H
xdata	ENDS
;	COMDAT xdata
xdata	SEGMENT
$chain$3$free_exts DD 021H
	DD	imagerel free_exts
	DD	imagerel free_exts+16
	DD	imagerel $unwind$free_exts
xdata	ENDS
;	COMDAT xdata
xdata	SEGMENT
$chain$2$free_exts DD 021H
	DD	imagerel free_exts+16
	DD	imagerel free_exts+31
	DD	imagerel $chain$0$free_exts
xdata	ENDS
;	COMDAT xdata
xdata	SEGMENT
$chain$1$free_exts DD 020521H
	DD	047405H
	DD	imagerel free_exts+16
	DD	imagerel free_exts+31
	DD	imagerel $chain$0$free_exts
xdata	ENDS
;	COMDAT xdata
xdata	SEGMENT
$chain$0$free_exts DD 020521H
	DD	063405H
	DD	imagerel free_exts
	DD	imagerel free_exts+16
	DD	imagerel $unwind$free_exts
xdata	ENDS
;	COMDAT xdata
xdata	SEGMENT
$unwind$free_exts DD 010401H
	DD	04204H
xdata	ENDS
;	COMDAT xdata
xdata	SEGMENT
$unwind$has_ext DD 040a01H
	DD	06340aH
	DD	07006320aH
xdata	ENDS
;	COMDAT xdata
xdata	SEGMENT
$unwind$load_GL_VERSION_1_0 DD 020601H
	DD	030023206H
xdata	ENDS
;	COMDAT xdata
xdata	SEGMENT
$unwind$load_GL_VERSION_1_1 DD 010401H
	DD	04204H
xdata	ENDS
;	COMDAT xdata
xdata	SEGMENT
$unwind$load_GL_VERSION_1_2 DD 010401H
	DD	04204H
xdata	ENDS
;	COMDAT xdata
xdata	SEGMENT
$unwind$load_GL_VERSION_1_3 DD 010401H
	DD	04204H
xdata	ENDS
;	COMDAT xdata
xdata	SEGMENT
$unwind$load_GL_VERSION_1_4 DD 010401H
	DD	04204H
xdata	ENDS
;	COMDAT xdata
xdata	SEGMENT
$unwind$load_GL_VERSION_1_5 DD 010401H
	DD	04204H
xdata	ENDS
;	COMDAT xdata
xdata	SEGMENT
$unwind$load_GL_VERSION_2_0 DD 010401H
	DD	04204H
xdata	ENDS
;	COMDAT xdata
xdata	SEGMENT
$unwind$load_GL_VERSION_2_1 DD 010401H
	DD	04204H
xdata	ENDS
;	COMDAT xdata
xdata	SEGMENT
$unwind$load_GL_VERSION_3_0 DD 010401H
	DD	04204H
xdata	ENDS
;	COMDAT xdata
xdata	SEGMENT
$unwind$load_GL_VERSION_3_1 DD 010401H
	DD	04204H
xdata	ENDS
;	COMDAT xdata
xdata	SEGMENT
$unwind$load_GL_VERSION_3_2 DD 010401H
	DD	04204H
xdata	ENDS
;	COMDAT xdata
xdata	SEGMENT
$unwind$load_GL_VERSION_3_3 DD 010401H
	DD	04204H
xdata	ENDS
;	COMDAT xdata
xdata	SEGMENT
$unwind$load_GL_VERSION_4_0 DD 010401H
	DD	04204H
xdata	ENDS
;	COMDAT xdata
xdata	SEGMENT
$unwind$load_GL_VERSION_4_1 DD 010401H
	DD	04204H
xdata	ENDS
;	COMDAT xdata
xdata	SEGMENT
$unwind$load_GL_VERSION_4_2 DD 010401H
	DD	04204H
xdata	ENDS
;	COMDAT xdata
xdata	SEGMENT
$unwind$load_GL_VERSION_4_3 DD 010401H
	DD	04204H
xdata	ENDS
;	COMDAT xdata
xdata	SEGMENT
$unwind$load_GL_VERSION_4_4 DD 010401H
	DD	04204H
xdata	ENDS
;	COMDAT xdata
xdata	SEGMENT
$chain$3$find_extensionsGL DD 021H
	DD	imagerel find_extensionsGL
	DD	imagerel find_extensionsGL+167
	DD	imagerel $unwind$find_extensionsGL
xdata	ENDS
;	COMDAT xdata
xdata	SEGMENT
$chain$2$find_extensionsGL DD 060f21H
	DD	0ae40fH
	DD	09640aH
	DD	085405H
	DD	imagerel find_extensionsGL
	DD	imagerel find_extensionsGL+167
	DD	imagerel $unwind$find_extensionsGL
xdata	ENDS
;	COMDAT xdata
xdata	SEGMENT
$unwind$find_extensionsGL DD 040901H
	DD	0c0053209H
	DD	030027003H
xdata	ENDS
;	COMDAT xdata
xdata	SEGMENT
$chain$2$find_coreGL DD 021H
	DD	imagerel find_coreGL
	DD	imagerel find_coreGL+97
	DD	imagerel $unwind$find_coreGL
xdata	ENDS
;	COMDAT xdata
xdata	SEGMENT
$chain$1$find_coreGL DD 040a21H
	DD	0d540aH
	DD	0c3405H
	DD	imagerel find_coreGL
	DD	imagerel find_coreGL+97
	DD	imagerel $unwind$find_coreGL
xdata	ENDS
;	COMDAT xdata
xdata	SEGMENT
$unwind$find_coreGL DD 061f19H
	DD	0f7410H
	DD	0e6410H
	DD	0e00c9210H
	DD	imagerel __GSHandlerCheck
	DD	048H
xdata	ENDS
;	COMDAT xdata
xdata	SEGMENT
$chain$3$gladLoadGLLoader DD 021H
	DD	imagerel $LN111
	DD	imagerel $LN111+4041
	DD	imagerel $unwind$gladLoadGLLoader
xdata	ENDS
;	COMDAT xdata
xdata	SEGMENT
$chain$2$gladLoadGLLoader DD 061221H
	DD	0ae412H
	DD	09640dH
	DD	085405H
	DD	imagerel $LN111
	DD	imagerel $LN111+4041
	DD	imagerel $unwind$gladLoadGLLoader
xdata	ENDS
;	COMDAT xdata
xdata	SEGMENT
$unwind$gladLoadGLLoader DD 060e01H
	DD	0b340eH
	DD	0f00a320eH
	DD	07006c008H
xdata	ENDS
; Function compile flags: /Ogtpy
; File C:\Program Files (x86)\Windows Kits\10\Include\10.0.22621.0\ucrt\corecrt_stdio_config.h
;	COMDAT __local_stdio_scanf_options
_TEXT	SEGMENT
__local_stdio_scanf_options PROC			; COMDAT

; 101  :         static unsigned __int64 _OptionsStorage;
; 102  :         return &_OptionsStorage;

	lea	rax, OFFSET FLAT:?_OptionsStorage@?1??__local_stdio_scanf_options@@9@9 ; `__local_stdio_scanf_options'::`2'::_OptionsStorage

; 103  :     }

	ret	0
__local_stdio_scanf_options ENDP
_TEXT	ENDS
; Function compile flags: /Ogtpy
; File C:\Program Files (x86)\Windows Kits\10\Include\10.0.22621.0\ucrt\stdio.h
;	COMDAT _vsscanf_s_l
_TEXT	SEGMENT
_Buffer$ = 64
_Format$ = 72
_Locale$dead$ = 80
_ArgList$ = 88
_vsscanf_s_l PROC					; COMDAT

; 2183 :     {

$LN4:
	mov	QWORD PTR [rsp+8], rbx
	mov	QWORD PTR [rsp+16], rsi
	push	rdi
	sub	rsp, 48					; 00000030H
	mov	rbx, r9
	mov	rdi, rdx
	mov	rsi, rcx

; 2184 :         return __stdio_common_vsscanf(

	call	__local_stdio_scanf_options
	mov	QWORD PTR [rsp+40], rbx
	mov	r9, rdi
	mov	r8, -1
	mov	QWORD PTR [rsp+32], 0
	mov	rdx, rsi
	mov	rcx, QWORD PTR [rax]
	or	rcx, 1
	call	QWORD PTR __imp___stdio_common_vsscanf

; 2185 :             _CRT_INTERNAL_LOCAL_SCANF_OPTIONS | _CRT_INTERNAL_SCANF_SECURECRT,
; 2186 :             _Buffer, (size_t)-1, _Format, _Locale, _ArgList);
; 2187 :     }

	mov	rbx, QWORD PTR [rsp+64]
	mov	rsi, QWORD PTR [rsp+72]
	add	rsp, 48					; 00000030H
	pop	rdi
	ret	0
_vsscanf_s_l ENDP
_TEXT	ENDS
; Function compile flags: /Ogtpy
; File C:\Program Files (x86)\Windows Kits\10\Include\10.0.22621.0\ucrt\stdio.h
;	COMDAT vsscanf_s
_TEXT	SEGMENT
_Buffer$ = 64
_Format$ = 72
_ArgList$ = 80
vsscanf_s PROC						; COMDAT

; 2204 :         {

$LN6:
	mov	QWORD PTR [rsp+8], rbx
	mov	QWORD PTR [rsp+16], rsi
	push	rdi
	sub	rsp, 48					; 00000030H
	mov	rbx, r8
	mov	rdi, rdx
	mov	rsi, rcx

; 2184 :         return __stdio_common_vsscanf(

	call	__local_stdio_scanf_options
	mov	QWORD PTR [rsp+40], rbx
	mov	r9, rdi
	mov	r8, -1
	mov	QWORD PTR [rsp+32], 0
	mov	rdx, rsi
	mov	rcx, QWORD PTR [rax]
	or	rcx, 1
	call	QWORD PTR __imp___stdio_common_vsscanf

; 2205 :             return _vsscanf_s_l(_Buffer, _Format, NULL, _ArgList);
; 2206 :         }

	mov	rbx, QWORD PTR [rsp+64]
	mov	rsi, QWORD PTR [rsp+72]
	add	rsp, 48					; 00000030H
	pop	rdi
	ret	0
vsscanf_s ENDP
_TEXT	ENDS
; Function compile flags: /Ogtpy
; File C:\Program Files (x86)\Windows Kits\10\Include\10.0.22621.0\ucrt\stdio.h
;	COMDAT sscanf_s
_TEXT	SEGMENT
_Buffer$ = 80
_Format$ = 88
sscanf_s PROC						; COMDAT

; 2286 :         {

$LN8:
	mov	QWORD PTR [rsp+16], rdx
	mov	QWORD PTR [rsp+24], r8
	mov	QWORD PTR [rsp+32], r9
	push	rbx
	push	rsi
	push	rdi
	sub	rsp, 48					; 00000030H
	mov	rbx, rdx

; 2287 :             int _Result;
; 2288 :             va_list _ArgList;
; 2289 :             __crt_va_start(_ArgList, _Format);

	lea	rsi, QWORD PTR _Format$[rsp+8]
	mov	rdi, rcx

; 2184 :         return __stdio_common_vsscanf(

	call	__local_stdio_scanf_options
	mov	QWORD PTR [rsp+40], rsi
	mov	r9, rbx
	mov	r8, -1
	mov	QWORD PTR [rsp+32], 0
	mov	rdx, rdi
	mov	rcx, QWORD PTR [rax]
	or	rcx, 1
	call	QWORD PTR __imp___stdio_common_vsscanf

; 2290 : 
; 2291 :             _Result = vsscanf_s(_Buffer, _Format, _ArgList);
; 2292 : 
; 2293 :             __crt_va_end(_ArgList);
; 2294 :             return _Result;
; 2295 :         }

	add	rsp, 48					; 00000030H
	pop	rdi
	pop	rsi
	pop	rbx
	ret	0
sscanf_s ENDP
_TEXT	ENDS
; Function compile flags: /Ogtpy
; File C:\Radiophobia\Radiophobia-main\glad.c
;	COMDAT open_gl
_TEXT	SEGMENT
open_gl	PROC						; COMDAT

; 57   : int open_gl(void) {

	sub	rsp, 40					; 00000028H

; 58   : #ifndef IS_UWP
; 59   :     libGL = LoadLibraryW(L"opengl32.dll");

	lea	rcx, OFFSET FLAT:??_C@_1BK@LCODAJLO@?$AAo?$AAp?$AAe?$AAn?$AAg?$AAl?$AA3?$AA2?$AA?4?$AAd?$AAl?$AAl@
	call	QWORD PTR __imp_LoadLibraryW
	mov	QWORD PTR libGL, rax
	test	rax, rax

; 60   :     if(libGL != NULL) {

	je	SHORT $LN2@open_gl

; 61   :         void (* tmp)(void);
; 62   :         tmp = (void(*)(void)) GetProcAddress(libGL, "wglGetProcAddress");

	lea	rdx, OFFSET FLAT:??_C@_0BC@FFKMKEGM@wglGetProcAddress@
	mov	rcx, rax
	call	QWORD PTR __imp_GetProcAddress

; 63   :         gladGetProcAddressPtr = (PFNWGLGETPROCADDRESSPROC_PRIVATE) tmp;
; 64   :         return gladGetProcAddressPtr != NULL;

	xor	ecx, ecx
	mov	QWORD PTR gladGetProcAddressPtr, rax
	test	rax, rax
	setne	cl
	mov	eax, ecx

; 65   :     }
; 66   : #endif
; 67   : 
; 68   :     return 0;
; 69   : }

	add	rsp, 40					; 00000028H
	ret	0
$LN2@open_gl:
	add	rsp, 40					; 00000028H
	ret	0
open_gl	ENDP
_TEXT	ENDS
; Function compile flags: /Ogtpy
; File C:\Radiophobia\Radiophobia-main\glad.c
;	COMDAT close_gl
_TEXT	SEGMENT
close_gl PROC						; COMDAT

; 72   : void close_gl(void) {

	sub	rsp, 40					; 00000028H

; 73   :     if(libGL != NULL) {

	mov	rcx, QWORD PTR libGL
	test	rcx, rcx
	je	SHORT $LN2@close_gl

; 74   :         FreeLibrary((HMODULE) libGL);

	call	QWORD PTR __imp_FreeLibrary

; 75   :         libGL = NULL;

	mov	QWORD PTR libGL, 0
$LN2@close_gl:

; 76   :     }
; 77   : }

	add	rsp, 40					; 00000028H
	ret	0
close_gl ENDP
_TEXT	ENDS
; Function compile flags: /Ogtpy
; File C:\Radiophobia\Radiophobia-main\glad.c
;	COMDAT get_proc
_TEXT	SEGMENT
namez$ = 48
get_proc PROC						; COMDAT

; 128  : void* get_proc(const char *namez) {

	push	rbx
	sub	rsp, 32					; 00000020H
	mov	rbx, rcx

; 129  :     void* result = NULL;
; 130  :     if(libGL == NULL) return NULL;

	mov	rcx, QWORD PTR libGL
	test	rcx, rcx
	jne	SHORT $LN2@get_proc
	xor	eax, eax

; 140  : #else
; 141  :         result = dlsym(libGL, namez);
; 142  : #endif
; 143  :     }
; 144  : 
; 145  :     return result;
; 146  : }

	add	rsp, 32					; 00000020H
	pop	rbx
	ret	0
$LN2@get_proc:

; 131  : 
; 132  : #if !defined(__APPLE__) && !defined(__HAIKU__)
; 133  :     if(gladGetProcAddressPtr != NULL) {

	mov	rax, QWORD PTR gladGetProcAddressPtr
	test	rax, rax
	je	SHORT $LN6@get_proc

; 134  :         result = gladGetProcAddressPtr(namez);

	mov	rcx, rbx
	call	rax

; 135  :     }
; 136  : #endif
; 137  :     if(result == NULL) {

	test	rax, rax
	jne	SHORT $LN4@get_proc
	mov	rcx, QWORD PTR libGL
$LN6@get_proc:

; 138  : #if defined(_WIN32) || defined(__CYGWIN__)
; 139  :         result = (void*)GetProcAddress((HMODULE) libGL, namez);

	mov	rdx, rbx

; 140  : #else
; 141  :         result = dlsym(libGL, namez);
; 142  : #endif
; 143  :     }
; 144  : 
; 145  :     return result;
; 146  : }

	add	rsp, 32					; 00000020H
	pop	rbx

; 138  : #if defined(_WIN32) || defined(__CYGWIN__)
; 139  :         result = (void*)GetProcAddress((HMODULE) libGL, namez);

	rex_jmp	QWORD PTR __imp_GetProcAddress
$LN4@get_proc:

; 140  : #else
; 141  :         result = dlsym(libGL, namez);
; 142  : #endif
; 143  :     }
; 144  : 
; 145  :     return result;
; 146  : }

	add	rsp, 32					; 00000020H
	pop	rbx
	ret	0
get_proc ENDP
_TEXT	ENDS
; Function compile flags: /Ogtpy
; File C:\Radiophobia\Radiophobia-main\glad.c
;	COMDAT gladLoadGL
_TEXT	SEGMENT
gladLoadGL PROC						; COMDAT

; 148  : int gladLoadGL(void) {

$LN18:
	sub	rsp, 40					; 00000028H

; 59   :     libGL = LoadLibraryW(L"opengl32.dll");

	lea	rcx, OFFSET FLAT:??_C@_1BK@LCODAJLO@?$AAo?$AAp?$AAe?$AAn?$AAg?$AAl?$AA3?$AA2?$AA?4?$AAd?$AAl?$AAl@
	call	QWORD PTR __imp_LoadLibraryW
	mov	QWORD PTR libGL, rax
	test	rax, rax

; 60   :     if(libGL != NULL) {

	je	SHORT $LN11@gladLoadGL

; 61   :         void (* tmp)(void);
; 62   :         tmp = (void(*)(void)) GetProcAddress(libGL, "wglGetProcAddress");

	lea	rdx, OFFSET FLAT:??_C@_0BC@FFKMKEGM@wglGetProcAddress@
	mov	rcx, rax
	call	QWORD PTR __imp_GetProcAddress

; 63   :         gladGetProcAddressPtr = (PFNWGLGETPROCADDRESSPROC_PRIVATE) tmp;

	mov	QWORD PTR gladGetProcAddressPtr, rax

; 149  :     int status = 0;
; 150  : 
; 151  :     if(open_gl()) {

	test	rax, rax
	je	SHORT $LN11@gladLoadGL
	mov	QWORD PTR [rsp+32], rbx

; 152  :         status = gladLoadGLLoader(&get_proc);

	call	gladLoadGLLoader

; 73   :     if(libGL != NULL) {

	mov	rcx, QWORD PTR libGL

; 152  :         status = gladLoadGLLoader(&get_proc);

	mov	ebx, eax

; 73   :     if(libGL != NULL) {

	test	rcx, rcx
	je	SHORT $LN16@gladLoadGL

; 74   :         FreeLibrary((HMODULE) libGL);

	call	QWORD PTR __imp_FreeLibrary

; 153  :         close_gl();
; 154  :     }
; 155  : 
; 156  :     return status;

	mov	eax, ebx

; 75   :         libGL = NULL;

	mov	QWORD PTR libGL, 0
$LN16@gladLoadGL:
	mov	rbx, QWORD PTR [rsp+32]

; 157  : }

	add	rsp, 40					; 00000028H
	ret	0
$LN11@gladLoadGL:
	xor	eax, eax
	add	rsp, 40					; 00000028H
	ret	0
gladLoadGL ENDP
_TEXT	ENDS
; Function compile flags: /Ogtpy
; File C:\Radiophobia\Radiophobia-main\glad.c
;	COMDAT get_exts
_TEXT	SEGMENT
get_exts PROC						; COMDAT

; 172  : static int get_exts(void) {

	push	rdi
	push	r15
	sub	rsp, 40					; 00000028H

; 173  : #ifdef _GLAD_IS_SOME_NEW_VERSION
; 174  :     if(max_loaded_major < 3) {

	cmp	DWORD PTR max_loaded_major, 3
	jge	SHORT $LN5@get_exts

; 175  : #endif
; 176  :         exts = (const char *)glGetString(GL_EXTENSIONS);

	mov	ecx, 7939				; 00001f03H
	call	QWORD PTR glad_glGetString
	mov	QWORD PTR exts, rax

; 200  :         }
; 201  :     }
; 202  : #endif
; 203  :     return 1;

	mov	eax, 1

; 204  : }

	add	rsp, 40					; 00000028H
	pop	r15
	pop	rdi
	ret	0
$LN5@get_exts:

; 177  : #ifdef _GLAD_IS_SOME_NEW_VERSION
; 178  :     } else {
; 179  :         int index;
; 180  : 
; 181  :         num_exts_i = 0;

	xor	edi, edi

; 182  :         glGetIntegerv(GL_NUM_EXTENSIONS, &num_exts_i);

	lea	rdx, OFFSET FLAT:num_exts_i
	mov	ecx, 33309				; 0000821dH
	mov	DWORD PTR num_exts_i, edi
	call	QWORD PTR glad_glGetIntegerv

; 183  :         if (num_exts_i > 0) {

	movsxd	rax, DWORD PTR num_exts_i
	lea	r15, QWORD PTR [rdi-1]
	test	eax, eax
	jle	SHORT $LN16@get_exts

; 184  :             exts_i = (char **)malloc((size_t)num_exts_i * (sizeof *exts_i));

	mov	rcx, rax
	mov	eax, 8
	mul	rcx
	cmovo	rax, r15
	mov	rcx, rax
	call	QWORD PTR __imp_malloc
	mov	rcx, rax
	mov	QWORD PTR exts_i, rax
	mov	eax, DWORD PTR num_exts_i
	jmp	SHORT $LN7@get_exts
$LN16@get_exts:

; 183  :         if (num_exts_i > 0) {

	mov	rcx, QWORD PTR exts_i
$LN7@get_exts:

; 185  :         }
; 186  : 
; 187  :         if (exts_i == NULL) {

	test	rcx, rcx
	jne	SHORT $LN8@get_exts

; 188  :             return 0;

	xor	eax, eax

; 204  : }

	add	rsp, 40					; 00000028H
	pop	r15
	pop	rdi
	ret	0
$LN8@get_exts:

; 189  :         }
; 190  : 
; 191  :         for(index = 0; index < num_exts_i; index++) {

	test	eax, eax
	jle	$LN3@get_exts
	mov	QWORD PTR [rsp+64], rbx
	mov	QWORD PTR [rsp+72], rbp
	mov	QWORD PTR [rsp+80], rsi
	mov	QWORD PTR [rsp+32], r14
	mov	r14, rdi
	npad	8
$LL4@get_exts:

; 192  :             const char *gl_str_tmp = (const char*)glGetStringi(GL_EXTENSIONS, index);

	mov	edx, edi
	mov	ecx, 7939				; 00001f03H
	call	QWORD PTR glad_glGetStringi
	mov	rbx, rax

; 193  :             size_t len = strlen(gl_str_tmp);

	mov	rcx, r15
$LL15@get_exts:
	cmp	BYTE PTR [rax+rcx+1], 0
	lea	rcx, QWORD PTR [rcx+1]
	jne	SHORT $LL15@get_exts

; 194  : 
; 195  :             char *local_str = (char*)malloc((len+1) * sizeof(char));

	lea	rbp, QWORD PTR [rcx+1]
	mov	rcx, rbp
	call	QWORD PTR __imp_malloc
	mov	rsi, rax

; 196  :             if(local_str != NULL) {

	test	rax, rax
	je	SHORT $LN9@get_exts

; 197  :                 memcpy(local_str, gl_str_tmp, (len+1) * sizeof(char));

	mov	r8, rbp
	mov	rdx, rbx
	mov	rcx, rax
	call	memcpy
$LN9@get_exts:

; 198  :             }
; 199  :             exts_i[index] = local_str;

	mov	rcx, QWORD PTR exts_i
	inc	edi
	mov	QWORD PTR [r14+rcx], rsi
	add	r14, 8
	cmp	edi, DWORD PTR num_exts_i
	jl	SHORT $LL4@get_exts

; 189  :         }
; 190  : 
; 191  :         for(index = 0; index < num_exts_i; index++) {

	mov	r14, QWORD PTR [rsp+32]
	mov	rsi, QWORD PTR [rsp+80]
	mov	rbp, QWORD PTR [rsp+72]
	mov	rbx, QWORD PTR [rsp+64]
$LN3@get_exts:

; 200  :         }
; 201  :     }
; 202  : #endif
; 203  :     return 1;

	mov	eax, 1

; 204  : }

	add	rsp, 40					; 00000028H
	pop	r15
	pop	rdi
	ret	0
get_exts ENDP
_TEXT	ENDS
; Function compile flags: /Ogtpy
; File C:\Radiophobia\Radiophobia-main\glad.c
;	COMDAT free_exts
_TEXT	SEGMENT
free_exts PROC						; COMDAT

; 206  : static void free_exts(void) {

	sub	rsp, 40					; 00000028H

; 207  :     if (exts_i != NULL) {

	mov	rcx, QWORD PTR exts_i
	test	rcx, rcx
	je	SHORT $LN5@free_exts
	mov	QWORD PTR [rsp+48], rbx

; 208  :         int index;
; 209  :         for(index = 0; index < num_exts_i; index++) {

	xor	ebx, ebx
	cmp	DWORD PTR num_exts_i, ebx
	jle	SHORT $LN3@free_exts
	mov	QWORD PTR [rsp+32], rdi
	xor	edi, edi
$LL4@free_exts:

; 210  :             free((char *)exts_i[index]);

	mov	rcx, QWORD PTR [rdi+rcx]
	call	QWORD PTR __imp_free
	mov	rcx, QWORD PTR exts_i
	lea	rdi, QWORD PTR [rdi+8]
	inc	ebx
	cmp	ebx, DWORD PTR num_exts_i
	jl	SHORT $LL4@free_exts
	mov	rdi, QWORD PTR [rsp+32]
$LN3@free_exts:

; 211  :         }
; 212  :         free((void *)exts_i);

	call	QWORD PTR __imp_free

; 213  :         exts_i = NULL;

	mov	rbx, QWORD PTR [rsp+48]
	mov	QWORD PTR exts_i, 0
$LN5@free_exts:

; 214  :     }
; 215  : }

	add	rsp, 40					; 00000028H
	ret	0
free_exts ENDP
_TEXT	ENDS
; Function compile flags: /Ogtpy
; File C:\Radiophobia\Radiophobia-main\glad.c
;	COMDAT has_ext
_TEXT	SEGMENT
ext$ = 48
has_ext	PROC						; COMDAT

; 217  : static int has_ext(const char *ext) {

	mov	QWORD PTR [rsp+8], rbx
	push	rdi
	sub	rsp, 32					; 00000020H

; 218  : #ifdef _GLAD_IS_SOME_NEW_VERSION
; 219  :     if(max_loaded_major < 3) {

	cmp	DWORD PTR max_loaded_major, 3
	mov	rbx, rcx
	jge	SHORT $LN7@has_ext

; 220  : #endif
; 221  :         const char *extensions;
; 222  :         const char *loc;
; 223  :         const char *terminator;
; 224  :         extensions = exts;

	mov	rdi, QWORD PTR exts
	test	rdi, rdi

; 225  :         if(extensions == NULL || ext == NULL) {

	je	SHORT $LN32@has_ext
	test	rcx, rcx
	je	SHORT $LN32@has_ext

; 226  :             return 0;
; 227  :         }
; 228  : 
; 229  :         while(1) {
; 230  :             loc = strstr(extensions, ext);

	mov	rdx, rcx
	mov	rcx, rdi
	call	QWORD PTR __imp_strstr

; 231  :             if(loc == NULL) {

	test	rax, rax
	je	SHORT $LN32@has_ext
	npad	8
$LL2@has_ext:

; 232  :                 return 0;
; 233  :             }
; 234  : 
; 235  :             terminator = loc + strlen(ext);

	mov	rcx, -1
$LL36@has_ext:
	inc	rcx
	cmp	BYTE PTR [rbx+rcx], 0
	jne	SHORT $LL36@has_ext
	add	rcx, rax

; 236  :             if((loc == extensions || *(loc - 1) == ' ') &&

	cmp	rax, rdi
	je	SHORT $LN13@has_ext
	cmp	BYTE PTR [rax-1], 32			; 00000020H
	jne	SHORT $LN30@has_ext
$LN13@has_ext:
	test	BYTE PTR [rcx], 223			; 000000dfH
	je	SHORT $LN22@has_ext
$LN30@has_ext:

; 226  :             return 0;
; 227  :         }
; 228  : 
; 229  :         while(1) {
; 230  :             loc = strstr(extensions, ext);

	mov	rdx, rbx

; 237  :                 (*terminator == ' ' || *terminator == '\0')) {
; 238  :                 return 1;
; 239  :             }
; 240  :             extensions = terminator;

	mov	rdi, rcx
	call	QWORD PTR __imp_strstr
	test	rax, rax
	jne	SHORT $LL2@has_ext
$LN32@has_ext:

; 250  :                 return 1;
; 251  :             }
; 252  :         }
; 253  :     }
; 254  : #endif
; 255  : 
; 256  :     return 0;

	xor	eax, eax

; 257  : }

	mov	rbx, QWORD PTR [rsp+48]
	add	rsp, 32					; 00000020H
	pop	rdi
	ret	0
$LN7@has_ext:

; 241  :         }
; 242  : #ifdef _GLAD_IS_SOME_NEW_VERSION
; 243  :     } else {
; 244  :         int index;
; 245  :         if(exts_i == NULL) return 0;

	mov	r9, QWORD PTR exts_i
	test	r9, r9
	je	SHORT $LN32@has_ext

; 246  :         for(index = 0; index < num_exts_i; index++) {

	mov	r11d, DWORD PTR num_exts_i
	xor	r10d, r10d
	test	r11d, r11d
	jle	SHORT $LN32@has_ext
	npad	4
$LL6@has_ext:

; 247  :             const char *e = exts_i[index];
; 248  : 
; 249  :             if(exts_i[index] != NULL && strcmp(e, ext) == 0) {

	mov	rax, QWORD PTR [r9]
	test	rax, rax
	je	SHORT $LN4@has_ext
	mov	r8, rbx
	sub	r8, rax
	npad	2
$LL34@has_ext:
	movzx	edx, BYTE PTR [rax]
	movzx	ecx, BYTE PTR [rax+r8]
	sub	edx, ecx
	jne	SHORT $LN35@has_ext
	inc	rax
	test	ecx, ecx
	jne	SHORT $LL34@has_ext
$LN35@has_ext:
	test	edx, edx
	je	SHORT $LN22@has_ext
$LN4@has_ext:

; 246  :         for(index = 0; index < num_exts_i; index++) {

	inc	r10d
	add	r9, 8
	cmp	r10d, r11d
	jl	SHORT $LL6@has_ext

; 250  :                 return 1;
; 251  :             }
; 252  :         }
; 253  :     }
; 254  : #endif
; 255  : 
; 256  :     return 0;

	xor	eax, eax

; 257  : }

	mov	rbx, QWORD PTR [rsp+48]
	add	rsp, 32					; 00000020H
	pop	rdi
	ret	0
$LN22@has_ext:
	mov	rbx, QWORD PTR [rsp+48]
	mov	eax, 1
	add	rsp, 32					; 00000020H
	pop	rdi
	ret	0
has_ext	ENDP
_TEXT	ENDS
; Function compile flags: /Ogtpy
; File C:\Radiophobia\Radiophobia-main\glad.c
;	COMDAT load_GL_VERSION_1_0
_TEXT	SEGMENT
load$ = 48
load_GL_VERSION_1_0 PROC				; COMDAT

; 1197 : static void load_GL_VERSION_1_0(GLADloadproc load) {

	push	rbx
	sub	rsp, 32					; 00000020H

; 1198 : 	if(!GLAD_GL_VERSION_1_0) return;

	cmp	DWORD PTR GLAD_GL_VERSION_1_0, 0
	mov	rbx, rcx
	je	$LN1@load_GL_VE

; 1199 : 	glad_glCullFace = (PFNGLCULLFACEPROC)load("glCullFace");

	lea	rcx, OFFSET FLAT:??_C@_0L@BAPBLHME@glCullFace@
	call	rbx

; 1200 : 	glad_glFrontFace = (PFNGLFRONTFACEPROC)load("glFrontFace");

	lea	rcx, OFFSET FLAT:??_C@_0M@ILBMDJDA@glFrontFace@
	mov	QWORD PTR glad_glCullFace, rax
	call	rbx

; 1201 : 	glad_glHint = (PFNGLHINTPROC)load("glHint");

	lea	rcx, OFFSET FLAT:??_C@_06HEADGMBC@glHint@
	call	rbx

; 1202 : 	glad_glLineWidth = (PFNGLLINEWIDTHPROC)load("glLineWidth");

	lea	rcx, OFFSET FLAT:??_C@_0M@CFLGNFPG@glLineWidth@
	call	rbx

; 1203 : 	glad_glPointSize = (PFNGLPOINTSIZEPROC)load("glPointSize");

	lea	rcx, OFFSET FLAT:??_C@_0M@EEAPMMNM@glPointSize@
	call	rbx

; 1204 : 	glad_glPolygonMode = (PFNGLPOLYGONMODEPROC)load("glPolygonMode");

	lea	rcx, OFFSET FLAT:??_C@_0O@DKMNBFMB@glPolygonMode@
	call	rbx

; 1205 : 	glad_glScissor = (PFNGLSCISSORPROC)load("glScissor");

	lea	rcx, OFFSET FLAT:??_C@_09ECGPAEPL@glScissor@
	call	rbx

; 1206 : 	glad_glTexParameterf = (PFNGLTEXPARAMETERFPROC)load("glTexParameterf");

	lea	rcx, OFFSET FLAT:??_C@_0BA@INKFIMGP@glTexParameterf@
	call	rbx

; 1207 : 	glad_glTexParameterfv = (PFNGLTEXPARAMETERFVPROC)load("glTexParameterfv");

	lea	rcx, OFFSET FLAT:??_C@_0BB@KEOFAHDF@glTexParameterfv@
	call	rbx

; 1208 : 	glad_glTexParameteri = (PFNGLTEXPARAMETERIPROC)load("glTexParameteri");

	lea	rcx, OFFSET FLAT:??_C@_0BA@KDNJAKA@glTexParameteri@
	call	rbx

; 1209 : 	glad_glTexParameteriv = (PFNGLTEXPARAMETERIVPROC)load("glTexParameteriv");

	lea	rcx, OFFSET FLAT:??_C@_0BB@KPLJEAAI@glTexParameteriv@
	mov	QWORD PTR glad_glTexParameteri, rax
	call	rbx

; 1210 : 	glad_glTexImage1D = (PFNGLTEXIMAGE1DPROC)load("glTexImage1D");

	lea	rcx, OFFSET FLAT:??_C@_0N@JDMMMFHL@glTexImage1D@
	call	rbx

; 1211 : 	glad_glTexImage2D = (PFNGLTEXIMAGE2DPROC)load("glTexImage2D");

	lea	rcx, OFFSET FLAT:??_C@_0N@JBIKHLCC@glTexImage2D@
	call	rbx

; 1212 : 	glad_glDrawBuffer = (PFNGLDRAWBUFFERPROC)load("glDrawBuffer");

	lea	rcx, OFFSET FLAT:??_C@_0N@EKCLGPL@glDrawBuffer@
	mov	QWORD PTR glad_glTexImage2D, rax
	call	rbx

; 1213 : 	glad_glClear = (PFNGLCLEARPROC)load("glClear");

	lea	rcx, OFFSET FLAT:??_C@_07IBAPPAHJ@glClear@
	mov	QWORD PTR glad_glDrawBuffer, rax
	call	rbx

; 1214 : 	glad_glClearColor = (PFNGLCLEARCOLORPROC)load("glClearColor");

	lea	rcx, OFFSET FLAT:??_C@_0N@OGLMDNKC@glClearColor@
	mov	QWORD PTR glad_glClear, rax
	call	rbx

; 1215 : 	glad_glClearStencil = (PFNGLCLEARSTENCILPROC)load("glClearStencil");

	lea	rcx, OFFSET FLAT:??_C@_0P@KBLPBBFP@glClearStencil@
	mov	QWORD PTR glad_glClearColor, rax
	call	rbx

; 1216 : 	glad_glClearDepth = (PFNGLCLEARDEPTHPROC)load("glClearDepth");

	lea	rcx, OFFSET FLAT:??_C@_0N@LJIELNG@glClearDepth@
	call	rbx

; 1217 : 	glad_glStencilMask = (PFNGLSTENCILMASKPROC)load("glStencilMask");

	lea	rcx, OFFSET FLAT:??_C@_0O@DJFHPFEP@glStencilMask@
	call	rbx

; 1218 : 	glad_glColorMask = (PFNGLCOLORMASKPROC)load("glColorMask");

	lea	rcx, OFFSET FLAT:??_C@_0M@DLGOAHPH@glColorMask@
	call	rbx

; 1219 : 	glad_glDepthMask = (PFNGLDEPTHMASKPROC)load("glDepthMask");

	lea	rcx, OFFSET FLAT:??_C@_0M@KABMFLLN@glDepthMask@
	call	rbx

; 1220 : 	glad_glDisable = (PFNGLDISABLEPROC)load("glDisable");

	lea	rcx, OFFSET FLAT:??_C@_09MHGMIMKN@glDisable@
	mov	QWORD PTR glad_glDepthMask, rax
	call	rbx

; 1221 : 	glad_glEnable = (PFNGLENABLEPROC)load("glEnable");

	lea	rcx, OFFSET FLAT:??_C@_08OOEHEKOP@glEnable@
	mov	QWORD PTR glad_glDisable, rax
	call	rbx

; 1222 : 	glad_glFinish = (PFNGLFINISHPROC)load("glFinish");

	lea	rcx, OFFSET FLAT:??_C@_08DFCPOKBK@glFinish@
	mov	QWORD PTR glad_glEnable, rax
	call	rbx

; 1223 : 	glad_glFlush = (PFNGLFLUSHPROC)load("glFlush");

	lea	rcx, OFFSET FLAT:??_C@_07COFELLJA@glFlush@
	call	rbx

; 1224 : 	glad_glBlendFunc = (PFNGLBLENDFUNCPROC)load("glBlendFunc");

	lea	rcx, OFFSET FLAT:??_C@_0M@PFBKOKOH@glBlendFunc@
	call	rbx

; 1225 : 	glad_glLogicOp = (PFNGLLOGICOPPROC)load("glLogicOp");

	lea	rcx, OFFSET FLAT:??_C@_09GKGMNAKG@glLogicOp@
	mov	QWORD PTR glad_glBlendFunc, rax
	call	rbx

; 1226 : 	glad_glStencilFunc = (PFNGLSTENCILFUNCPROC)load("glStencilFunc");

	lea	rcx, OFFSET FLAT:??_C@_0O@ENNLLOLN@glStencilFunc@
	call	rbx

; 1227 : 	glad_glStencilOp = (PFNGLSTENCILOPPROC)load("glStencilOp");

	lea	rcx, OFFSET FLAT:??_C@_0M@BILBNGF@glStencilOp@
	call	rbx

; 1228 : 	glad_glDepthFunc = (PFNGLDEPTHFUNCPROC)load("glDepthFunc");

	lea	rcx, OFFSET FLAT:??_C@_0M@NEJABAEP@glDepthFunc@
	call	rbx

; 1229 : 	glad_glPixelStoref = (PFNGLPIXELSTOREFPROC)load("glPixelStoref");

	lea	rcx, OFFSET FLAT:??_C@_0O@BFLAHHCK@glPixelStoref@
	mov	QWORD PTR glad_glDepthFunc, rax
	call	rbx

; 1230 : 	glad_glPixelStorei = (PFNGLPIXELSTOREIPROC)load("glPixelStorei");

	lea	rcx, OFFSET FLAT:??_C@_0O@JCCIGLOF@glPixelStorei@
	call	rbx

; 1231 : 	glad_glReadBuffer = (PFNGLREADBUFFERPROC)load("glReadBuffer");

	lea	rcx, OFFSET FLAT:??_C@_0N@HFKHBECK@glReadBuffer@
	mov	QWORD PTR glad_glPixelStorei, rax
	call	rbx

; 1232 : 	glad_glReadPixels = (PFNGLREADPIXELSPROC)load("glReadPixels");

	lea	rcx, OFFSET FLAT:??_C@_0N@CKFNNHOO@glReadPixels@
	mov	QWORD PTR glad_glReadBuffer, rax
	call	rbx

; 1233 : 	glad_glGetBooleanv = (PFNGLGETBOOLEANVPROC)load("glGetBooleanv");

	lea	rcx, OFFSET FLAT:??_C@_0O@NLMELLCJ@glGetBooleanv@
	call	rbx

; 1234 : 	glad_glGetDoublev = (PFNGLGETDOUBLEVPROC)load("glGetDoublev");

	lea	rcx, OFFSET FLAT:??_C@_0N@OFBMMCDH@glGetDoublev@
	call	rbx

; 1235 : 	glad_glGetError = (PFNGLGETERRORPROC)load("glGetError");

	lea	rcx, OFFSET FLAT:??_C@_0L@FPKAMKHB@glGetError@
	call	rbx

; 1236 : 	glad_glGetFloatv = (PFNGLGETFLOATVPROC)load("glGetFloatv");

	lea	rcx, OFFSET FLAT:??_C@_0M@CKCOBONE@glGetFloatv@
	call	rbx

; 1237 : 	glad_glGetIntegerv = (PFNGLGETINTEGERVPROC)load("glGetIntegerv");

	lea	rcx, OFFSET FLAT:??_C@_0O@DHHDCCLF@glGetIntegerv@
	call	rbx

; 1238 : 	glad_glGetString = (PFNGLGETSTRINGPROC)load("glGetString");

	lea	rcx, OFFSET FLAT:??_C@_0M@OPOBFDCB@glGetString@
	mov	QWORD PTR glad_glGetIntegerv, rax
	call	rbx

; 1239 : 	glad_glGetTexImage = (PFNGLGETTEXIMAGEPROC)load("glGetTexImage");

	lea	rcx, OFFSET FLAT:??_C@_0O@DOIIJLAD@glGetTexImage@
	mov	QWORD PTR glad_glGetString, rax
	call	rbx

; 1240 : 	glad_glGetTexParameterfv = (PFNGLGETTEXPARAMETERFVPROC)load("glGetTexParameterfv");

	lea	rcx, OFFSET FLAT:??_C@_0BE@DNHBPKMC@glGetTexParameterfv@
	call	rbx

; 1241 : 	glad_glGetTexParameteriv = (PFNGLGETTEXPARAMETERIVPROC)load("glGetTexParameteriv");

	lea	rcx, OFFSET FLAT:??_C@_0BE@DGCNLNPP@glGetTexParameteriv@
	call	rbx

; 1242 : 	glad_glGetTexLevelParameterfv = (PFNGLGETTEXLEVELPARAMETERFVPROC)load("glGetTexLevelParameterfv");

	lea	rcx, OFFSET FLAT:??_C@_0BJ@GAMLGIFF@glGetTexLevelParameterfv@
	call	rbx

; 1243 : 	glad_glGetTexLevelParameteriv = (PFNGLGETTEXLEVELPARAMETERIVPROC)load("glGetTexLevelParameteriv");

	lea	rcx, OFFSET FLAT:??_C@_0BJ@GLJHCPGI@glGetTexLevelParameteriv@
	call	rbx

; 1244 : 	glad_glIsEnabled = (PFNGLISENABLEDPROC)load("glIsEnabled");

	lea	rcx, OFFSET FLAT:??_C@_0M@INHMIHKC@glIsEnabled@
	call	rbx

; 1245 : 	glad_glDepthRange = (PFNGLDEPTHRANGEPROC)load("glDepthRange");

	lea	rcx, OFFSET FLAT:??_C@_0N@PEBDIKOA@glDepthRange@
	call	rbx

; 1246 : 	glad_glViewport = (PFNGLVIEWPORTPROC)load("glViewport");

	lea	rcx, OFFSET FLAT:??_C@_0L@KBLIPDFH@glViewport@
	call	rbx

; 1247 : 	glad_glNewList = (PFNGLNEWLISTPROC)load("glNewList");

	lea	rcx, OFFSET FLAT:??_C@_09KAGOBDOO@glNewList@
	mov	QWORD PTR glad_glViewport, rax
	call	rbx

; 1248 : 	glad_glEndList = (PFNGLENDLISTPROC)load("glEndList");

	lea	rcx, OFFSET FLAT:??_C@_09HKEBCLHH@glEndList@
	call	rbx

; 1249 : 	glad_glCallList = (PFNGLCALLLISTPROC)load("glCallList");

	lea	rcx, OFFSET FLAT:??_C@_0L@CIPLDIDL@glCallList@
	call	rbx

; 1250 : 	glad_glCallLists = (PFNGLCALLLISTSPROC)load("glCallLists");

	lea	rcx, OFFSET FLAT:??_C@_0M@LFDBDICJ@glCallLists@
	call	rbx

; 1251 : 	glad_glDeleteLists = (PFNGLDELETELISTSPROC)load("glDeleteLists");

	lea	rcx, OFFSET FLAT:??_C@_0O@KPJIJAFM@glDeleteLists@
	call	rbx

; 1252 : 	glad_glGenLists = (PFNGLGENLISTSPROC)load("glGenLists");

	lea	rcx, OFFSET FLAT:??_C@_0L@BNOFOEBP@glGenLists@
	call	rbx

; 1253 : 	glad_glListBase = (PFNGLLISTBASEPROC)load("glListBase");

	lea	rcx, OFFSET FLAT:??_C@_0L@HDOJDFBA@glListBase@
	call	rbx

; 1254 : 	glad_glBegin = (PFNGLBEGINPROC)load("glBegin");

	lea	rcx, OFFSET FLAT:??_C@_07FCOIFMD@glBegin@
	call	rbx

; 1255 : 	glad_glBitmap = (PFNGLBITMAPPROC)load("glBitmap");

	lea	rcx, OFFSET FLAT:??_C@_08PJOLDJDK@glBitmap@
	call	rbx

; 1256 : 	glad_glColor3b = (PFNGLCOLOR3BPROC)load("glColor3b");

	lea	rcx, OFFSET FLAT:??_C@_09JLHBBGHE@glColor3b@
	call	rbx

; 1257 : 	glad_glColor3bv = (PFNGLCOLOR3BVPROC)load("glColor3bv");

	lea	rcx, OFFSET FLAT:??_C@_0L@COJGBKED@glColor3bv@
	call	rbx

; 1258 : 	glad_glColor3d = (PFNGLCOLOR3DPROC)load("glColor3d");

	lea	rcx, OFFSET FLAT:??_C@_09MNCLLBPC@glColor3d@
	call	rbx

; 1259 : 	glad_glColor3dv = (PFNGLCOLOR3DVPROC)load("glColor3dv");

	lea	rcx, OFFSET FLAT:??_C@_0L@CKBLGGPB@glColor3dv@
	call	rbx

; 1260 : 	glad_glColor3f = (PFNGLCOLOR3FPROC)load("glColor3f");

	lea	rcx, OFFSET FLAT:??_C@_09PPBNNDHA@glColor3f@
	call	rbx

; 1261 : 	glad_glColor3fv = (PFNGLCOLOR3FVPROC)load("glColor3fv");

	lea	rcx, OFFSET FLAT:??_C@_0L@CJJPLCJP@glColor3fv@
	call	rbx

; 1262 : 	glad_glColor3i = (PFNGLCOLOR3IPROC)load("glColor3i");

	lea	rcx, OFFSET FLAT:??_C@_09HIIFMPLP@glColor3i@
	call	rbx

; 1263 : 	glad_glColor3iv = (PFNGLCOLOR3IVPROC)load("glColor3iv");

	lea	rcx, OFFSET FLAT:??_C@_0L@CCMDPFKC@glColor3iv@
	call	rbx

; 1264 : 	glad_glColor3s = (PFNGLCOLOR3SPROC)load("glColor3s");

	lea	rcx, OFFSET FLAT:??_C@_09MIKIDFGE@glColor3s@
	call	rbx

; 1265 : 	glad_glColor3sv = (PFNGLCOLOR3SVPROC)load("glColor3sv");

	lea	rcx, OFFSET FLAT:??_C@_0L@DDHCNDAE@glColor3sv@
	call	rbx

; 1266 : 	glad_glColor3ub = (PFNGLCOLOR3UBPROC)load("glColor3ub");

	lea	rcx, OFFSET FLAT:??_C@_0L@BJFBHIOD@glColor3ub@
	call	rbx

; 1267 : 	glad_glColor3ubv = (PFNGLCOLOR3UBVPROC)load("glColor3ubv");

	lea	rcx, OFFSET FLAT:??_C@_0M@EAHPDMMK@glColor3ubv@
	call	rbx

; 1268 : 	glad_glColor3ui = (PFNGLCOLOR3UIPROC)load("glColor3ui");

	lea	rcx, OFFSET FLAT:??_C@_0L@PKKFKBCI@glColor3ui@
	call	rbx

; 1269 : 	glad_glColor3uiv = (PFNGLCOLOR3UIVPROC)load("glColor3uiv");

	lea	rcx, OFFSET FLAT:??_C@_0M@EMCKNDCL@glColor3uiv@
	call	rbx

; 1270 : 	glad_glColor3us = (PFNGLCOLOR3USPROC)load("glColor3us");

	lea	rcx, OFFSET FLAT:??_C@_0L@EKIIFLPD@glColor3us@
	call	rbx

; 1271 : 	glad_glColor3usv = (PFNGLCOLOR3USVPROC)load("glColor3usv");

	lea	rcx, OFFSET FLAT:??_C@_0M@FNJLPFIN@glColor3usv@
	call	rbx

; 1272 : 	glad_glColor4b = (PFNGLCOLOR4BPROC)load("glColor4b");

	lea	rcx, OFFSET FLAT:??_C@_09JODOAAPB@glColor4b@
	call	rbx

; 1273 : 	glad_glColor4bv = (PFNGLCOLOR4BVPROC)load("glColor4bv");

	lea	rcx, OFFSET FLAT:??_C@_0L@LDEBCCPK@glColor4bv@
	call	rbx

; 1274 : 	glad_glColor4d = (PFNGLCOLOR4DPROC)load("glColor4d");

	lea	rcx, OFFSET FLAT:??_C@_09MIGEKHHH@glColor4d@
	call	rbx

; 1275 : 	glad_glColor4dv = (PFNGLCOLOR4DVPROC)load("glColor4dv");

	lea	rcx, OFFSET FLAT:??_C@_0L@LHMMFOEI@glColor4dv@
	call	rbx

; 1276 : 	glad_glColor4f = (PFNGLCOLOR4FPROC)load("glColor4f");

	lea	rcx, OFFSET FLAT:??_C@_09PKFCMFPF@glColor4f@
	call	rbx

; 1277 : 	glad_glColor4fv = (PFNGLCOLOR4FVPROC)load("glColor4fv");

	lea	rcx, OFFSET FLAT:??_C@_0L@LEEIIKCG@glColor4fv@
	call	rbx

; 1278 : 	glad_glColor4i = (PFNGLCOLOR4IPROC)load("glColor4i");

	lea	rcx, OFFSET FLAT:??_C@_09HNMKNJDK@glColor4i@
	call	rbx

; 1279 : 	glad_glColor4iv = (PFNGLCOLOR4IVPROC)load("glColor4iv");

	lea	rcx, OFFSET FLAT:??_C@_0L@LPBEMNBL@glColor4iv@
	call	rbx

; 1280 : 	glad_glColor4s = (PFNGLCOLOR4SPROC)load("glColor4s");

	lea	rcx, OFFSET FLAT:??_C@_09MNOHCDOB@glColor4s@
	call	rbx

; 1281 : 	glad_glColor4sv = (PFNGLCOLOR4SVPROC)load("glColor4sv");

	lea	rcx, OFFSET FLAT:??_C@_0L@KOKFOLLN@glColor4sv@
	call	rbx

; 1282 : 	glad_glColor4ub = (PFNGLCOLOR4UBPROC)load("glColor4ub");

	lea	rcx, OFFSET FLAT:??_C@_0L@IEIGEAFK@glColor4ub@
	call	rbx

; 1283 : 	glad_glColor4ubv = (PFNGLCOLOR4UBVPROC)load("glColor4ubv");

	lea	rcx, OFFSET FLAT:??_C@_0M@PCFPOANK@glColor4ubv@
	call	rbx

; 1284 : 	glad_glColor4ui = (PFNGLCOLOR4UIPROC)load("glColor4ui");

	lea	rcx, OFFSET FLAT:??_C@_0L@GHHCJJJB@glColor4ui@
	call	rbx

; 1285 : 	glad_glColor4uiv = (PFNGLCOLOR4UIVPROC)load("glColor4uiv");

	lea	rcx, OFFSET FLAT:??_C@_0M@POAKAPDL@glColor4uiv@
	call	rbx

; 1286 : 	glad_glColor4us = (PFNGLCOLOR4USPROC)load("glColor4us");

	lea	rcx, OFFSET FLAT:??_C@_0L@NHFPGDEK@glColor4us@
	call	rbx

; 1287 : 	glad_glColor4usv = (PFNGLCOLOR4USVPROC)load("glColor4usv");

	lea	rcx, OFFSET FLAT:??_C@_0M@OPLLCJJN@glColor4usv@
	call	rbx

; 1288 : 	glad_glEdgeFlag = (PFNGLEDGEFLAGPROC)load("glEdgeFlag");

	lea	rcx, OFFSET FLAT:??_C@_0L@DFCKJEPI@glEdgeFlag@
	call	rbx

; 1289 : 	glad_glEdgeFlagv = (PFNGLEDGEFLAGVPROC)load("glEdgeFlagv");

	lea	rcx, OFFSET FLAT:??_C@_0M@MKDGIOMK@glEdgeFlagv@
	call	rbx

; 1290 : 	glad_glEnd = (PFNGLENDPROC)load("glEnd");

	lea	rcx, OFFSET FLAT:??_C@_05OIBMBLHE@glEnd@
	call	rbx

; 1291 : 	glad_glIndexd = (PFNGLINDEXDPROC)load("glIndexd");

	lea	rcx, OFFSET FLAT:??_C@_08HOOEKNLP@glIndexd@
	call	rbx

; 1292 : 	glad_glIndexdv = (PFNGLINDEXDVPROC)load("glIndexdv");

	lea	rcx, OFFSET FLAT:??_C@_09CCMFJEMA@glIndexdv@
	call	rbx

; 1293 : 	glad_glIndexf = (PFNGLINDEXFPROC)load("glIndexf");

	lea	rcx, OFFSET FLAT:??_C@_08EMNCMPDN@glIndexf@
	call	rbx

; 1294 : 	glad_glIndexfv = (PFNGLINDEXFVPROC)load("glIndexfv");

	lea	rcx, OFFSET FLAT:??_C@_09CBEBEAKO@glIndexfv@
	call	rbx

; 1295 : 	glad_glIndexi = (PFNGLINDEXIPROC)load("glIndexi");

	lea	rcx, OFFSET FLAT:??_C@_08MLEKNDPC@glIndexi@
	call	rbx

; 1296 : 	glad_glIndexiv = (PFNGLINDEXIVPROC)load("glIndexiv");

	lea	rcx, OFFSET FLAT:??_C@_09CKBNAHJD@glIndexiv@
	call	rbx

; 1297 : 	glad_glIndexs = (PFNGLINDEXSPROC)load("glIndexs");

	lea	rcx, OFFSET FLAT:??_C@_08HLGHCJCJ@glIndexs@
	call	rbx

; 1298 : 	glad_glIndexsv = (PFNGLINDEXSVPROC)load("glIndexsv");

	lea	rcx, OFFSET FLAT:??_C@_09DLKMCBDF@glIndexsv@
	call	rbx

; 1299 : 	glad_glNormal3b = (PFNGLNORMAL3BPROC)load("glNormal3b");

	lea	rcx, OFFSET FLAT:??_C@_0L@FCAONKPI@glNormal3b@
	call	rbx

; 1300 : 	glad_glNormal3bv = (PFNGLNORMAL3BVPROC)load("glNormal3bv");

	lea	rcx, OFFSET FLAT:??_C@_0M@MKFBKKIE@glNormal3bv@
	call	rbx

; 1301 : 	glad_glNormal3d = (PFNGLNORMAL3DPROC)load("glNormal3d");

	lea	rcx, OFFSET FLAT:??_C@_0L@EFEHNHO@glNormal3d@
	call	rbx

; 1302 : 	glad_glNormal3dv = (PFNGLNORMAL3DVPROC)load("glNormal3dv");

	lea	rcx, OFFSET FLAT:??_C@_0M@MONMNGDG@glNormal3dv@
	call	rbx

; 1303 : 	glad_glNormal3f = (PFNGLNORMAL3FPROC)load("glNormal3f");

	lea	rcx, OFFSET FLAT:??_C@_0L@DGGCBPPM@glNormal3f@
	call	rbx

; 1304 : 	glad_glNormal3fv = (PFNGLNORMAL3FVPROC)load("glNormal3fv");

	lea	rcx, OFFSET FLAT:??_C@_0M@MNFIACFI@glNormal3fv@
	call	rbx

; 1305 : 	glad_glNormal3i = (PFNGLNORMAL3IPROC)load("glNormal3i");

	lea	rcx, OFFSET FLAT:??_C@_0L@LBPKADDD@glNormal3i@
	call	rbx

; 1306 : 	glad_glNormal3iv = (PFNGLNORMAL3IVPROC)load("glNormal3iv");

	lea	rcx, OFFSET FLAT:??_C@_0M@MGAEEFGF@glNormal3iv@
	call	rbx

; 1307 : 	glad_glNormal3s = (PFNGLNORMAL3SPROC)load("glNormal3s");

	lea	rcx, OFFSET FLAT:??_C@_0L@BNHPJOI@glNormal3s@
	call	rbx

; 1308 : 	glad_glNormal3sv = (PFNGLNORMAL3SVPROC)load("glNormal3sv");

	lea	rcx, OFFSET FLAT:??_C@_0M@NHLFGDMD@glNormal3sv@
	call	rbx

; 1309 : 	glad_glRasterPos2d = (PFNGLRASTERPOS2DPROC)load("glRasterPos2d");

	lea	rcx, OFFSET FLAT:??_C@_0O@JNCPGME@glRasterPos2d@
	call	rbx

; 1310 : 	glad_glRasterPos2dv = (PFNGLRASTERPOS2DVPROC)load("glRasterPos2dv");

	lea	rcx, OFFSET FLAT:??_C@_0P@OFGFAKCP@glRasterPos2dv@
	call	rbx

; 1311 : 	glad_glRasterPos2f = (PFNGLRASTERPOS2FPROC)load("glRasterPos2f");

	lea	rcx, OFFSET FLAT:??_C@_0O@DLOEJEEG@glRasterPos2f@
	call	rbx

; 1312 : 	glad_glRasterPos2fv = (PFNGLRASTERPOS2FVPROC)load("glRasterPos2fv");

	lea	rcx, OFFSET FLAT:??_C@_0P@OGOBNOEB@glRasterPos2fv@
	call	rbx

; 1313 : 	glad_glRasterPos2i = (PFNGLRASTERPOS2IPROC)load("glRasterPos2i");

	lea	rcx, OFFSET FLAT:??_C@_0O@LMHMIIIJ@glRasterPos2i@
	call	rbx

; 1314 : 	glad_glRasterPos2iv = (PFNGLRASTERPOS2IVPROC)load("glRasterPos2iv");

	lea	rcx, OFFSET FLAT:??_C@_0P@ONLNJJHM@glRasterPos2iv@
	call	rbx

; 1315 : 	glad_glRasterPos2s = (PFNGLRASTERPOS2SPROC)load("glRasterPos2s");

	lea	rcx, OFFSET FLAT:??_C@_0O@MFBHCFC@glRasterPos2s@
	call	rbx

; 1316 : 	glad_glRasterPos2sv = (PFNGLRASTERPOS2SVPROC)load("glRasterPos2sv");

	lea	rcx, OFFSET FLAT:??_C@_0P@PMAMLPNK@glRasterPos2sv@
	call	rbx

; 1317 : 	glad_glRasterPos3d = (PFNGLRASTERPOS3DPROC)load("glRasterPos3d");

	lea	rcx, OFFSET FLAT:??_C@_0O@IBAJMPD@glRasterPos3d@
	call	rbx

; 1318 : 	glad_glRasterPos3dv = (PFNGLRASTERPOS3DVPROC)load("glRasterPos3dv");

	lea	rcx, OFFSET FLAT:??_C@_0P@FNNJGNEK@glRasterPos3dv@
	call	rbx

; 1319 : 	glad_glRasterPos3f = (PFNGLRASTERPOS3FPROC)load("glRasterPos3f");

	lea	rcx, OFFSET FLAT:??_C@_0O@DKCGPOHB@glRasterPos3f@
	call	rbx

; 1320 : 	glad_glRasterPos3fv = (PFNGLRASTERPOS3FVPROC)load("glRasterPos3fv");

	lea	rcx, OFFSET FLAT:??_C@_0P@FOFNLJCE@glRasterPos3fv@
	call	rbx

; 1321 : 	glad_glRasterPos3i = (PFNGLRASTERPOS3IPROC)load("glRasterPos3i");

	lea	rcx, OFFSET FLAT:??_C@_0O@LNLOOCLO@glRasterPos3i@
	call	rbx

; 1322 : 	glad_glRasterPos3iv = (PFNGLRASTERPOS3IVPROC)load("glRasterPos3iv");

	lea	rcx, OFFSET FLAT:??_C@_0P@FFABPOBJ@glRasterPos3iv@
	call	rbx

; 1323 : 	glad_glRasterPos3s = (PFNGLRASTERPOS3SPROC)load("glRasterPos3s");

	lea	rcx, OFFSET FLAT:??_C@_0O@NJDBIGF@glRasterPos3s@
	call	rbx

; 1324 : 	glad_glRasterPos3sv = (PFNGLRASTERPOS3SVPROC)load("glRasterPos3sv");

	lea	rcx, OFFSET FLAT:??_C@_0P@EELANILP@glRasterPos3sv@
	call	rbx

; 1325 : 	glad_glRasterPos4d = (PFNGLRASTERPOS4DPROC)load("glRasterPos4d");

	lea	rcx, OFFSET FLAT:??_C@_0O@NFPIKHG@glRasterPos4d@
	call	rbx

; 1326 : 	glad_glRasterPos4dv = (PFNGLRASTERPOS4DVPROC)load("glRasterPos4dv");

	lea	rcx, OFFSET FLAT:??_C@_0P@MAAOFFPD@glRasterPos4dv@
	call	rbx

; 1327 : 	glad_glRasterPos4f = (PFNGLRASTERPOS4FPROC)load("glRasterPos4f");

	lea	rcx, OFFSET FLAT:??_C@_0O@DPGJOIPE@glRasterPos4f@
	call	rbx

; 1328 : 	glad_glRasterPos4fv = (PFNGLRASTERPOS4FVPROC)load("glRasterPos4fv");

	lea	rcx, OFFSET FLAT:??_C@_0P@MDIKIBJN@glRasterPos4fv@
	call	rbx

; 1329 : 	glad_glRasterPos4i = (PFNGLRASTERPOS4IPROC)load("glRasterPos4i");

	lea	rcx, OFFSET FLAT:??_C@_0O@LIPBPEDL@glRasterPos4i@
	call	rbx

; 1330 : 	glad_glRasterPos4iv = (PFNGLRASTERPOS4IVPROC)load("glRasterPos4iv");

	lea	rcx, OFFSET FLAT:??_C@_0P@MINGMGKA@glRasterPos4iv@
	call	rbx

; 1331 : 	glad_glRasterPos4s = (PFNGLRASTERPOS4SPROC)load("glRasterPos4s");

	lea	rcx, OFFSET FLAT:??_C@_0O@INMAOOA@glRasterPos4s@
	call	rbx

; 1332 : 	glad_glRasterPos4sv = (PFNGLRASTERPOS4SVPROC)load("glRasterPos4sv");

	lea	rcx, OFFSET FLAT:??_C@_0P@NJGHOAAG@glRasterPos4sv@
	call	rbx

; 1333 : 	glad_glRectd = (PFNGLRECTDPROC)load("glRectd");

	lea	rcx, OFFSET FLAT:??_C@_07GHILMIKG@glRectd@
	call	rbx

; 1334 : 	glad_glRectdv = (PFNGLRECTDVPROC)load("glRectdv");

	lea	rcx, OFFSET FLAT:??_C@_08EGLHFDGF@glRectdv@
	call	rbx

; 1335 : 	glad_glRectf = (PFNGLRECTFPROC)load("glRectf");

	lea	rcx, OFFSET FLAT:??_C@_07FFLNKKCE@glRectf@
	call	rbx

; 1336 : 	glad_glRectfv = (PFNGLRECTFVPROC)load("glRectfv");

	lea	rcx, OFFSET FLAT:??_C@_08EFDDIHAL@glRectfv@
	call	rbx

; 1337 : 	glad_glRecti = (PFNGLRECTIPROC)load("glRecti");

	lea	rcx, OFFSET FLAT:??_C@_07NCCFLGOL@glRecti@
	call	rbx

; 1338 : 	glad_glRectiv = (PFNGLRECTIVPROC)load("glRectiv");

	lea	rcx, OFFSET FLAT:??_C@_08EOGPMADG@glRectiv@
	call	rbx

; 1339 : 	glad_glRects = (PFNGLRECTSPROC)load("glRects");

	lea	rcx, OFFSET FLAT:??_C@_07GCAIEMDA@glRects@
	call	rbx

; 1340 : 	glad_glRectsv = (PFNGLRECTSVPROC)load("glRectsv");

	lea	rcx, OFFSET FLAT:??_C@_08FPNOOGJA@glRectsv@
	call	rbx

; 1341 : 	glad_glTexCoord1d = (PFNGLTEXCOORD1DPROC)load("glTexCoord1d");

	lea	rcx, OFFSET FLAT:??_C@_0N@CKKBPCNP@glTexCoord1d@
	call	rbx

; 1342 : 	glad_glTexCoord1dv = (PFNGLTEXCOORD1DVPROC)load("glTexCoord1dv");

	lea	rcx, OFFSET FLAT:??_C@_0O@GPCDLAMH@glTexCoord1dv@
	call	rbx

; 1343 : 	glad_glTexCoord1f = (PFNGLTEXCOORD1FPROC)load("glTexCoord1f");

	lea	rcx, OFFSET FLAT:??_C@_0N@BIJHJAFN@glTexCoord1f@
	call	rbx

; 1344 : 	glad_glTexCoord1fv = (PFNGLTEXCOORD1FVPROC)load("glTexCoord1fv");

	lea	rcx, OFFSET FLAT:??_C@_0O@GMKHGEKJ@glTexCoord1fv@
	call	rbx

; 1345 : 	glad_glTexCoord1i = (PFNGLTEXCOORD1IPROC)load("glTexCoord1i");

	lea	rcx, OFFSET FLAT:??_C@_0N@JPAPIMJC@glTexCoord1i@
	call	rbx

; 1346 : 	glad_glTexCoord1iv = (PFNGLTEXCOORD1IVPROC)load("glTexCoord1iv");

	lea	rcx, OFFSET FLAT:??_C@_0O@GHPLCDJE@glTexCoord1iv@
	call	rbx

; 1347 : 	glad_glTexCoord1s = (PFNGLTEXCOORD1SPROC)load("glTexCoord1s");

	lea	rcx, OFFSET FLAT:??_C@_0N@CPCCHGEJ@glTexCoord1s@
	call	rbx

; 1348 : 	glad_glTexCoord1sv = (PFNGLTEXCOORD1SVPROC)load("glTexCoord1sv");

	lea	rcx, OFFSET FLAT:??_C@_0O@HGEKAFDC@glTexCoord1sv@
	call	rbx

; 1349 : 	glad_glTexCoord2d = (PFNGLTEXCOORD2DPROC)load("glTexCoord2d");

	lea	rcx, OFFSET FLAT:??_C@_0N@CIOHEMIG@glTexCoord2d@
	call	rbx

; 1350 : 	glad_glTexCoord2dv = (PFNGLTEXCOORD2DVPROC)load("glTexCoord2dv");

	lea	rcx, OFFSET FLAT:??_C@_0O@HNJGBPCJ@glTexCoord2dv@
	call	rbx

; 1351 : 	glad_glTexCoord2f = (PFNGLTEXCOORD2FPROC)load("glTexCoord2f");

	lea	rcx, OFFSET FLAT:??_C@_0N@BKNBCOAE@glTexCoord2f@
	call	rbx

; 1352 : 	glad_glTexCoord2fv = (PFNGLTEXCOORD2FVPROC)load("glTexCoord2fv");

	lea	rcx, OFFSET FLAT:??_C@_0O@HOBCMLEH@glTexCoord2fv@
	call	rbx

; 1353 : 	glad_glTexCoord2i = (PFNGLTEXCOORD2IPROC)load("glTexCoord2i");

	lea	rcx, OFFSET FLAT:??_C@_0N@JNEJDCML@glTexCoord2i@
	call	rbx

; 1354 : 	glad_glTexCoord2iv = (PFNGLTEXCOORD2IVPROC)load("glTexCoord2iv");

	lea	rcx, OFFSET FLAT:??_C@_0O@HFEOIMHK@glTexCoord2iv@
	call	rbx

; 1355 : 	glad_glTexCoord2s = (PFNGLTEXCOORD2SPROC)load("glTexCoord2s");

	lea	rcx, OFFSET FLAT:??_C@_0N@CNGEMIBA@glTexCoord2s@
	call	rbx

; 1356 : 	glad_glTexCoord2sv = (PFNGLTEXCOORD2SVPROC)load("glTexCoord2sv");

	lea	rcx, OFFSET FLAT:??_C@_0O@GEPPKKNM@glTexCoord2sv@
	call	rbx

; 1357 : 	glad_glTexCoord3d = (PFNGLTEXCOORD3DPROC)load("glTexCoord3d");

	lea	rcx, OFFSET FLAT:??_C@_0N@CJCFCGLB@glTexCoord3d@
	call	rbx

; 1358 : 	glad_glTexCoord3dv = (PFNGLTEXCOORD3DVPROC)load("glTexCoord3dv");

	lea	rcx, OFFSET FLAT:??_C@_0O@MFCKHIEM@glTexCoord3dv@
	call	rbx

; 1359 : 	glad_glTexCoord3f = (PFNGLTEXCOORD3FPROC)load("glTexCoord3f");

	lea	rcx, OFFSET FLAT:??_C@_0N@BLBDEEDD@glTexCoord3f@
	call	rbx

; 1360 : 	glad_glTexCoord3fv = (PFNGLTEXCOORD3FVPROC)load("glTexCoord3fv");

	lea	rcx, OFFSET FLAT:??_C@_0O@MGKOKMCC@glTexCoord3fv@
	call	rbx

; 1361 : 	glad_glTexCoord3i = (PFNGLTEXCOORD3IPROC)load("glTexCoord3i");

	lea	rcx, OFFSET FLAT:??_C@_0N@JMILFIPM@glTexCoord3i@
	call	rbx

; 1362 : 	glad_glTexCoord3iv = (PFNGLTEXCOORD3IVPROC)load("glTexCoord3iv");

	lea	rcx, OFFSET FLAT:??_C@_0O@MNPCOLBP@glTexCoord3iv@
	call	rbx

; 1363 : 	glad_glTexCoord3s = (PFNGLTEXCOORD3SPROC)load("glTexCoord3s");

	lea	rcx, OFFSET FLAT:??_C@_0N@CMKGKCCH@glTexCoord3s@
	call	rbx

; 1364 : 	glad_glTexCoord3sv = (PFNGLTEXCOORD3SVPROC)load("glTexCoord3sv");

	lea	rcx, OFFSET FLAT:??_C@_0O@NMEDMNLJ@glTexCoord3sv@
	call	rbx

; 1365 : 	glad_glTexCoord4d = (PFNGLTEXCOORD4DPROC)load("glTexCoord4d");

	lea	rcx, OFFSET FLAT:??_C@_0N@CMGKDADE@glTexCoord4d@
	call	rbx

; 1366 : 	glad_glTexCoord4dv = (PFNGLTEXCOORD4DVPROC)load("glTexCoord4dv");

	lea	rcx, OFFSET FLAT:??_C@_0O@FIPNEAPF@glTexCoord4dv@
	call	rbx

; 1367 : 	glad_glTexCoord4f = (PFNGLTEXCOORD4FPROC)load("glTexCoord4f");

	lea	rcx, OFFSET FLAT:??_C@_0N@BOFMFCLG@glTexCoord4f@
	call	rbx

; 1368 : 	glad_glTexCoord4fv = (PFNGLTEXCOORD4FVPROC)load("glTexCoord4fv");

	lea	rcx, OFFSET FLAT:??_C@_0O@FLHJJEJL@glTexCoord4fv@
	call	rbx

; 1369 : 	glad_glTexCoord4i = (PFNGLTEXCOORD4IPROC)load("glTexCoord4i");

	lea	rcx, OFFSET FLAT:??_C@_0N@JJMEEOHJ@glTexCoord4i@
	call	rbx

; 1370 : 	glad_glTexCoord4iv = (PFNGLTEXCOORD4IVPROC)load("glTexCoord4iv");

	lea	rcx, OFFSET FLAT:??_C@_0O@FACFNDKG@glTexCoord4iv@
	call	rbx

; 1371 : 	glad_glTexCoord4s = (PFNGLTEXCOORD4SPROC)load("glTexCoord4s");

	lea	rcx, OFFSET FLAT:??_C@_0N@CJOJLEKC@glTexCoord4s@
	call	rbx

; 1372 : 	glad_glTexCoord4sv = (PFNGLTEXCOORD4SVPROC)load("glTexCoord4sv");

	lea	rcx, OFFSET FLAT:??_C@_0O@EBJEPFAA@glTexCoord4sv@
	call	rbx

; 1373 : 	glad_glVertex2d = (PFNGLVERTEX2DPROC)load("glVertex2d");

	lea	rcx, OFFSET FLAT:??_C@_0L@INGMNOLD@glVertex2d@
	call	rbx

; 1374 : 	glad_glVertex2dv = (PFNGLVERTEX2DVPROC)load("glVertex2dv");

	lea	rcx, OFFSET FLAT:??_C@_0M@CLIAFAJI@glVertex2dv@
	call	rbx

; 1375 : 	glad_glVertex2f = (PFNGLVERTEX2FPROC)load("glVertex2f");

	lea	rcx, OFFSET FLAT:??_C@_0L@LPFKLMDB@glVertex2f@
	call	rbx

; 1376 : 	glad_glVertex2fv = (PFNGLVERTEX2FVPROC)load("glVertex2fv");

	lea	rcx, OFFSET FLAT:??_C@_0M@CIAEIEPG@glVertex2fv@
	call	rbx

; 1377 : 	glad_glVertex2i = (PFNGLVERTEX2IPROC)load("glVertex2i");

	lea	rcx, OFFSET FLAT:??_C@_0L@DIMCKAPO@glVertex2i@
	call	rbx

; 1378 : 	glad_glVertex2iv = (PFNGLVERTEX2IVPROC)load("glVertex2iv");

	lea	rcx, OFFSET FLAT:??_C@_0M@CDFIMDML@glVertex2iv@
	call	rbx

; 1379 : 	glad_glVertex2s = (PFNGLVERTEX2SPROC)load("glVertex2s");

	lea	rcx, OFFSET FLAT:??_C@_0L@IIOPFKCF@glVertex2s@
	call	rbx

; 1380 : 	glad_glVertex2sv = (PFNGLVERTEX2SVPROC)load("glVertex2sv");

	lea	rcx, OFFSET FLAT:??_C@_0M@DCOJOFGN@glVertex2sv@
	call	rbx

; 1381 : 	glad_glVertex3d = (PFNGLVERTEX3DPROC)load("glVertex3d");

	lea	rcx, OFFSET FLAT:??_C@_0L@IMKOLEIE@glVertex3d@
	call	rbx

; 1382 : 	glad_glVertex3dv = (PFNGLVERTEX3DVPROC)load("glVertex3dv");

	lea	rcx, OFFSET FLAT:??_C@_0M@JDDMDHPN@glVertex3dv@
	call	rbx

; 1383 : 	glad_glVertex3f = (PFNGLVERTEX3FPROC)load("glVertex3f");

	lea	rcx, OFFSET FLAT:??_C@_0L@LOJINGAG@glVertex3f@
	call	rbx

; 1384 : 	glad_glVertex3fv = (PFNGLVERTEX3FVPROC)load("glVertex3fv");

	lea	rcx, OFFSET FLAT:??_C@_0M@JALIODJD@glVertex3fv@
	call	rbx

; 1385 : 	glad_glVertex3i = (PFNGLVERTEX3IPROC)load("glVertex3i");

	lea	rcx, OFFSET FLAT:??_C@_0L@DJAAMKMJ@glVertex3i@
	call	rbx

; 1386 : 	glad_glVertex3iv = (PFNGLVERTEX3IVPROC)load("glVertex3iv");

	lea	rcx, OFFSET FLAT:??_C@_0M@JLOEKEKO@glVertex3iv@
	call	rbx

; 1387 : 	glad_glVertex3s = (PFNGLVERTEX3SPROC)load("glVertex3s");

	lea	rcx, OFFSET FLAT:??_C@_0L@IJCNDABC@glVertex3s@
	call	rbx

; 1388 : 	glad_glVertex3sv = (PFNGLVERTEX3SVPROC)load("glVertex3sv");

	lea	rcx, OFFSET FLAT:??_C@_0M@IKFFICAI@glVertex3sv@
	call	rbx

; 1389 : 	glad_glVertex4d = (PFNGLVERTEX4DPROC)load("glVertex4d");

	lea	rcx, OFFSET FLAT:??_C@_0L@IJOBKCAB@glVertex4d@
	call	rbx

; 1390 : 	glad_glVertex4dv = (PFNGLVERTEX4DVPROC)load("glVertex4dv");

	lea	rcx, OFFSET FLAT:??_C@_0M@OOLAPEE@glVertex4dv@
	call	rbx

; 1391 : 	glad_glVertex4f = (PFNGLVERTEX4FPROC)load("glVertex4f");

	lea	rcx, OFFSET FLAT:??_C@_0L@LLNHMAID@glVertex4f@
	call	rbx

; 1392 : 	glad_glVertex4fv = (PFNGLVERTEX4FVPROC)load("glVertex4fv");

	lea	rcx, OFFSET FLAT:??_C@_0M@NGPNLCK@glVertex4fv@
	call	rbx

; 1393 : 	glad_glVertex4i = (PFNGLVERTEX4IPROC)load("glVertex4i");

	lea	rcx, OFFSET FLAT:??_C@_0L@DMEPNMEM@glVertex4i@
	call	rbx

; 1394 : 	glad_glVertex4iv = (PFNGLVERTEX4IVPROC)load("glVertex4iv");

	lea	rcx, OFFSET FLAT:??_C@_0M@GDDJMBH@glVertex4iv@
	call	rbx

; 1395 : 	glad_glVertex4s = (PFNGLVERTEX4SPROC)load("glVertex4s");

	lea	rcx, OFFSET FLAT:??_C@_0L@IMGCCGJH@glVertex4s@
	call	rbx

; 1396 : 	glad_glVertex4sv = (PFNGLVERTEX4SVPROC)load("glVertex4sv");

	lea	rcx, OFFSET FLAT:??_C@_0M@BHICLKLB@glVertex4sv@
	call	rbx

; 1397 : 	glad_glClipPlane = (PFNGLCLIPPLANEPROC)load("glClipPlane");

	lea	rcx, OFFSET FLAT:??_C@_0M@OHCNGGFF@glClipPlane@
	call	rbx

; 1398 : 	glad_glColorMaterial = (PFNGLCOLORMATERIALPROC)load("glColorMaterial");

	lea	rcx, OFFSET FLAT:??_C@_0BA@OOEHEGPC@glColorMaterial@
	call	rbx

; 1399 : 	glad_glFogf = (PFNGLFOGFPROC)load("glFogf");

	lea	rcx, OFFSET FLAT:??_C@_06JJHNMGPD@glFogf@
	call	rbx

; 1400 : 	glad_glFogfv = (PFNGLFOGFVPROC)load("glFogfv");

	lea	rcx, OFFSET FLAT:??_C@_07FNEIAABA@glFogfv@
	call	rbx

; 1401 : 	glad_glFogi = (PFNGLFOGIPROC)load("glFogi");

	lea	rcx, OFFSET FLAT:??_C@_06BOOFNKDM@glFogi@
	call	rbx

; 1402 : 	glad_glFogiv = (PFNGLFOGIVPROC)load("glFogiv");

	lea	rcx, OFFSET FLAT:??_C@_07FGBEEHCN@glFogiv@
	call	rbx

; 1403 : 	glad_glLightf = (PFNGLLIGHTFPROC)load("glLightf");

	lea	rcx, OFFSET FLAT:??_C@_08LPDPILEL@glLightf@
	call	rbx

; 1404 : 	glad_glLightfv = (PFNGLLIGHTFVPROC)load("glLightfv");

	lea	rcx, OFFSET FLAT:??_C@_09JINEHJOD@glLightfv@
	call	rbx

; 1405 : 	glad_glLighti = (PFNGLLIGHTIPROC)load("glLighti");

	lea	rcx, OFFSET FLAT:??_C@_08DIKHJHIE@glLighti@
	call	rbx

; 1406 : 	glad_glLightiv = (PFNGLLIGHTIVPROC)load("glLightiv");

	lea	rcx, OFFSET FLAT:??_C@_09JDIIDONO@glLightiv@
	call	rbx

; 1407 : 	glad_glLightModelf = (PFNGLLIGHTMODELFPROC)load("glLightModelf");

	lea	rcx, OFFSET FLAT:??_C@_0O@HPCJLAII@glLightModelf@
	call	rbx

; 1408 : 	glad_glLightModelfv = (PFNGLLIGHTMODELFVPROC)load("glLightModelfv");

	lea	rcx, OFFSET FLAT:??_C@_0P@JKHJPMNC@glLightModelfv@
	call	rbx

; 1409 : 	glad_glLightModeli = (PFNGLLIGHTMODELIPROC)load("glLightModeli");

	lea	rcx, OFFSET FLAT:??_C@_0O@PILBKMEH@glLightModeli@
	call	rbx

; 1410 : 	glad_glLightModeliv = (PFNGLLIGHTMODELIVPROC)load("glLightModeliv");

	lea	rcx, OFFSET FLAT:??_C@_0P@JBCFLLOP@glLightModeliv@
	call	rbx

; 1411 : 	glad_glLineStipple = (PFNGLLINESTIPPLEPROC)load("glLineStipple");

	lea	rcx, OFFSET FLAT:??_C@_0O@LDOINBOK@glLineStipple@
	call	rbx

; 1412 : 	glad_glMaterialf = (PFNGLMATERIALFPROC)load("glMaterialf");

	lea	rcx, OFFSET FLAT:??_C@_0M@HANOIKMC@glMaterialf@
	call	rbx

; 1413 : 	glad_glMaterialfv = (PFNGLMATERIALFVPROC)load("glMaterialfv");

	lea	rcx, OFFSET FLAT:??_C@_0N@MHPKDGG@glMaterialfv@
	call	rbx

; 1414 : 	glad_glMateriali = (PFNGLMATERIALIPROC)load("glMateriali");

	lea	rcx, OFFSET FLAT:??_C@_0M@PHEGJGAN@glMateriali@
	call	rbx

; 1415 : 	glad_glMaterialiv = (PFNGLMATERIALIVPROC)load("glMaterialiv");

	lea	rcx, OFFSET FLAT:??_C@_0N@HCDOEFL@glMaterialiv@
	call	rbx

; 1416 : 	glad_glPolygonStipple = (PFNGLPOLYGONSTIPPLEPROC)load("glPolygonStipple");

	lea	rcx, OFFSET FLAT:??_C@_0BB@GIADEJGP@glPolygonStipple@
	call	rbx

; 1417 : 	glad_glShadeModel = (PFNGLSHADEMODELPROC)load("glShadeModel");

	lea	rcx, OFFSET FLAT:??_C@_0N@NALMFHKN@glShadeModel@
	call	rbx

; 1418 : 	glad_glTexEnvf = (PFNGLTEXENVFPROC)load("glTexEnvf");

	lea	rcx, OFFSET FLAT:??_C@_09FCLLGECI@glTexEnvf@
	call	rbx

; 1419 : 	glad_glTexEnvfv = (PFNGLTEXENVFVPROC)load("glTexEnvfv");

	lea	rcx, OFFSET FLAT:??_C@_0L@EMICMNOO@glTexEnvfv@
	call	rbx

; 1420 : 	glad_glTexEnvi = (PFNGLTEXENVIPROC)load("glTexEnvi");

	lea	rcx, OFFSET FLAT:??_C@_09NFCDHIOH@glTexEnvi@
	call	rbx

; 1421 : 	glad_glTexEnviv = (PFNGLTEXENVIVPROC)load("glTexEnviv");

	lea	rcx, OFFSET FLAT:??_C@_0L@EHNOIKND@glTexEnviv@
	call	rbx

; 1422 : 	glad_glTexGend = (PFNGLTEXGENDPROC)load("glTexGend");

	lea	rcx, OFFSET FLAT:??_C@_09NPHJCAAD@glTexGend@
	call	rbx

; 1423 : 	glad_glTexGendv = (PFNGLTEXGENDVPROC)load("glTexGendv");

	lea	rcx, OFFSET FLAT:??_C@_0L@OALDPGOK@glTexGendv@
	call	rbx

; 1424 : 	glad_glTexGenf = (PFNGLTEXGENFPROC)load("glTexGenf");

	lea	rcx, OFFSET FLAT:??_C@_09ONEPECIB@glTexGenf@
	call	rbx

; 1425 : 	glad_glTexGenfv = (PFNGLTEXGENFVPROC)load("glTexGenfv");

	lea	rcx, OFFSET FLAT:??_C@_0L@ODDHCCIE@glTexGenfv@
	call	rbx

; 1426 : 	glad_glTexGeni = (PFNGLTEXGENIPROC)load("glTexGeni");

	lea	rcx, OFFSET FLAT:??_C@_09GKNHFOEO@glTexGeni@
	call	rbx

; 1427 : 	glad_glTexGeniv = (PFNGLTEXGENIVPROC)load("glTexGeniv");

	lea	rcx, OFFSET FLAT:??_C@_0L@OIGLGFLJ@glTexGeniv@
	call	rbx

; 1428 : 	glad_glFeedbackBuffer = (PFNGLFEEDBACKBUFFERPROC)load("glFeedbackBuffer");

	lea	rcx, OFFSET FLAT:??_C@_0BB@COFAIKCN@glFeedbackBuffer@
	call	rbx

; 1429 : 	glad_glSelectBuffer = (PFNGLSELECTBUFFERPROC)load("glSelectBuffer");

	lea	rcx, OFFSET FLAT:??_C@_0P@KACPMBCN@glSelectBuffer@
	call	rbx

; 1430 : 	glad_glRenderMode = (PFNGLRENDERMODEPROC)load("glRenderMode");

	lea	rcx, OFFSET FLAT:??_C@_0N@HCFJFDGP@glRenderMode@
	call	rbx

; 1431 : 	glad_glInitNames = (PFNGLINITNAMESPROC)load("glInitNames");

	lea	rcx, OFFSET FLAT:??_C@_0M@LBOBLINN@glInitNames@
	call	rbx

; 1432 : 	glad_glLoadName = (PFNGLLOADNAMEPROC)load("glLoadName");

	lea	rcx, OFFSET FLAT:??_C@_0L@JFFJNAJA@glLoadName@
	call	rbx

; 1433 : 	glad_glPassThrough = (PFNGLPASSTHROUGHPROC)load("glPassThrough");

	lea	rcx, OFFSET FLAT:??_C@_0O@KCIMMNEH@glPassThrough@
	call	rbx

; 1434 : 	glad_glPopName = (PFNGLPOPNAMEPROC)load("glPopName");

	lea	rcx, OFFSET FLAT:??_C@_09IKDPIJOE@glPopName@
	call	rbx

; 1435 : 	glad_glPushName = (PFNGLPUSHNAMEPROC)load("glPushName");

	lea	rcx, OFFSET FLAT:??_C@_0L@LFFFABIK@glPushName@
	call	rbx

; 1436 : 	glad_glClearAccum = (PFNGLCLEARACCUMPROC)load("glClearAccum");

	lea	rcx, OFFSET FLAT:??_C@_0N@OKAMEJMG@glClearAccum@
	call	rbx

; 1437 : 	glad_glClearIndex = (PFNGLCLEARINDEXPROC)load("glClearIndex");

	lea	rcx, OFFSET FLAT:??_C@_0N@EIILHCMH@glClearIndex@
	call	rbx

; 1438 : 	glad_glIndexMask = (PFNGLINDEXMASKPROC)load("glIndexMask");

	lea	rcx, OFFSET FLAT:??_C@_0M@ONDJOEOA@glIndexMask@
	call	rbx

; 1439 : 	glad_glAccum = (PFNGLACCUMPROC)load("glAccum");

	lea	rcx, OFFSET FLAT:??_C@_07LNIJJMEN@glAccum@
	call	rbx

; 1440 : 	glad_glPopAttrib = (PFNGLPOPATTRIBPROC)load("glPopAttrib");

	lea	rcx, OFFSET FLAT:??_C@_0M@LLNGAHMN@glPopAttrib@
	call	rbx

; 1441 : 	glad_glPushAttrib = (PFNGLPUSHATTRIBPROC)load("glPushAttrib");

	lea	rcx, OFFSET FLAT:??_C@_0N@KDMLHFJM@glPushAttrib@
	call	rbx

; 1442 : 	glad_glMap1d = (PFNGLMAP1DPROC)load("glMap1d");

	lea	rcx, OFFSET FLAT:??_C@_07FEHGGJHC@glMap1d@
	call	rbx

; 1443 : 	glad_glMap1f = (PFNGLMAP1FPROC)load("glMap1f");

	lea	rcx, OFFSET FLAT:??_C@_07GGEAALPA@glMap1f@
	call	rbx

; 1444 : 	glad_glMap2d = (PFNGLMAP2DPROC)load("glMap2d");

	lea	rcx, OFFSET FLAT:??_C@_07FGDANHCL@glMap2d@
	call	rbx

; 1445 : 	glad_glMap2f = (PFNGLMAP2FPROC)load("glMap2f");

	lea	rcx, OFFSET FLAT:??_C@_07GEAGLFKJ@glMap2f@
	call	rbx

; 1446 : 	glad_glMapGrid1d = (PFNGLMAPGRID1DPROC)load("glMapGrid1d");

	lea	rcx, OFFSET FLAT:??_C@_0M@MNDKIDNO@glMapGrid1d@
	call	rbx

; 1447 : 	glad_glMapGrid1f = (PFNGLMAPGRID1FPROC)load("glMapGrid1f");

	lea	rcx, OFFSET FLAT:??_C@_0M@PPAMOBFM@glMapGrid1f@
	call	rbx

; 1448 : 	glad_glMapGrid2d = (PFNGLMAPGRID2DPROC)load("glMapGrid2d");

	lea	rcx, OFFSET FLAT:??_C@_0M@MPHMDNIH@glMapGrid2d@
	call	rbx

; 1449 : 	glad_glMapGrid2f = (PFNGLMAPGRID2FPROC)load("glMapGrid2f");

	lea	rcx, OFFSET FLAT:??_C@_0M@PNEKFPAF@glMapGrid2f@
	call	rbx

; 1450 : 	glad_glEvalCoord1d = (PFNGLEVALCOORD1DPROC)load("glEvalCoord1d");

	lea	rcx, OFFSET FLAT:??_C@_0O@FJBIDDKI@glEvalCoord1d@
	call	rbx

; 1451 : 	glad_glEvalCoord1dv = (PFNGLEVALCOORD1DVPROC)load("glEvalCoord1dv");

	lea	rcx, OFFSET FLAT:??_C@_0P@KBDBONJJ@glEvalCoord1dv@
	call	rbx

; 1452 : 	glad_glEvalCoord1f = (PFNGLEVALCOORD1FPROC)load("glEvalCoord1f");

	lea	rcx, OFFSET FLAT:??_C@_0O@GLCOFBCK@glEvalCoord1f@
	call	rbx

; 1453 : 	glad_glEvalCoord1fv = (PFNGLEVALCOORD1FVPROC)load("glEvalCoord1fv");

	lea	rcx, OFFSET FLAT:??_C@_0P@KCLFDJPH@glEvalCoord1fv@
	call	rbx

; 1454 : 	glad_glEvalCoord2d = (PFNGLEVALCOORD2DPROC)load("glEvalCoord2d");

	lea	rcx, OFFSET FLAT:??_C@_0O@FLFOINPB@glEvalCoord2d@
	call	rbx

; 1455 : 	glad_glEvalCoord2dv = (PFNGLEVALCOORD2DVPROC)load("glEvalCoord2dv");

	lea	rcx, OFFSET FLAT:??_C@_0P@LDIEECHH@glEvalCoord2dv@
	call	rbx

; 1456 : 	glad_glEvalCoord2f = (PFNGLEVALCOORD2FPROC)load("glEvalCoord2f");

	lea	rcx, OFFSET FLAT:??_C@_0O@GJGIOPHD@glEvalCoord2f@
	call	rbx

; 1457 : 	glad_glEvalCoord2fv = (PFNGLEVALCOORD2FVPROC)load("glEvalCoord2fv");

	lea	rcx, OFFSET FLAT:??_C@_0P@LAAAJGBJ@glEvalCoord2fv@
	call	rbx

; 1458 : 	glad_glEvalMesh1 = (PFNGLEVALMESH1PROC)load("glEvalMesh1");

	lea	rcx, OFFSET FLAT:??_C@_0M@DCFEDLDA@glEvalMesh1@
	call	rbx

; 1459 : 	glad_glEvalPoint1 = (PFNGLEVALPOINT1PROC)load("glEvalPoint1");

	lea	rcx, OFFSET FLAT:??_C@_0N@DOEOCCJJ@glEvalPoint1@
	call	rbx

; 1460 : 	glad_glEvalMesh2 = (PFNGLEVALMESH2PROC)load("glEvalMesh2");

	lea	rcx, OFFSET FLAT:??_C@_0M@BJHJGIPD@glEvalMesh2@
	call	rbx

; 1461 : 	glad_glEvalPoint2 = (PFNGLEVALPOINT2PROC)load("glEvalPoint2");

	lea	rcx, OFFSET FLAT:??_C@_0N@BFGDHBFK@glEvalPoint2@
	call	rbx

; 1462 : 	glad_glAlphaFunc = (PFNGLALPHAFUNCPROC)load("glAlphaFunc");

	lea	rcx, OFFSET FLAT:??_C@_0M@BJGLMKCC@glAlphaFunc@
	call	rbx

; 1463 : 	glad_glPixelZoom = (PFNGLPIXELZOOMPROC)load("glPixelZoom");

	lea	rcx, OFFSET FLAT:??_C@_0M@JAMJIGNB@glPixelZoom@
	call	rbx

; 1464 : 	glad_glPixelTransferf = (PFNGLPIXELTRANSFERFPROC)load("glPixelTransferf");

	lea	rcx, OFFSET FLAT:??_C@_0BB@HFCIPEN@glPixelTransferf@
	call	rbx

; 1465 : 	glad_glPixelTransferi = (PFNGLPIXELTRANSFERIPROC)load("glPixelTransferi");

	lea	rcx, OFFSET FLAT:??_C@_0BB@IAMKJDIC@glPixelTransferi@
	call	rbx

; 1466 : 	glad_glPixelMapfv = (PFNGLPIXELMAPFVPROC)load("glPixelMapfv");

	lea	rcx, OFFSET FLAT:??_C@_0N@CNONNBNO@glPixelMapfv@
	call	rbx

; 1467 : 	glad_glPixelMapuiv = (PFNGLPIXELMAPUIVPROC)load("glPixelMapuiv");

	lea	rcx, OFFSET FLAT:??_C@_0O@ENPFNAEO@glPixelMapuiv@
	call	rbx

; 1468 : 	glad_glPixelMapusv = (PFNGLPIXELMAPUSVPROC)load("glPixelMapusv");

	lea	rcx, OFFSET FLAT:??_C@_0O@FMEEPGOI@glPixelMapusv@
	call	rbx

; 1469 : 	glad_glCopyPixels = (PFNGLCOPYPIXELSPROC)load("glCopyPixels");

	lea	rcx, OFFSET FLAT:??_C@_0N@OACCOOE@glCopyPixels@
	call	rbx

; 1470 : 	glad_glDrawPixels = (PFNGLDRAWPIXELSPROC)load("glDrawPixels");

	lea	rcx, OFFSET FLAT:??_C@_0N@FLFIHFDP@glDrawPixels@
	call	rbx

; 1471 : 	glad_glGetClipPlane = (PFNGLGETCLIPPLANEPROC)load("glGetClipPlane");

	lea	rcx, OFFSET FLAT:??_C@_0P@MMMNLMC@glGetClipPlane@
	call	rbx

; 1472 : 	glad_glGetLightfv = (PFNGLGETLIGHTFVPROC)load("glGetLightfv");

	lea	rcx, OFFSET FLAT:??_C@_0N@MGGMJGKA@glGetLightfv@
	call	rbx

; 1473 : 	glad_glGetLightiv = (PFNGLGETLIGHTIVPROC)load("glGetLightiv");

	lea	rcx, OFFSET FLAT:??_C@_0N@MNDANBJN@glGetLightiv@
	call	rbx

; 1474 : 	glad_glGetMapdv = (PFNGLGETMAPDVPROC)load("glGetMapdv");

	lea	rcx, OFFSET FLAT:??_C@_0L@FGIDEHCA@glGetMapdv@
	call	rbx

; 1475 : 	glad_glGetMapfv = (PFNGLGETMAPFVPROC)load("glGetMapfv");

	lea	rcx, OFFSET FLAT:??_C@_0L@FFAHJDEO@glGetMapfv@
	call	rbx

; 1476 : 	glad_glGetMapiv = (PFNGLGETMAPIVPROC)load("glGetMapiv");

	lea	rcx, OFFSET FLAT:??_C@_0L@FOFLNEHD@glGetMapiv@
	call	rbx

; 1477 : 	glad_glGetMaterialfv = (PFNGLGETMATERIALFVPROC)load("glGetMaterialfv");

	lea	rcx, OFFSET FLAT:??_C@_0BA@GCPPEEDM@glGetMaterialfv@
	call	rbx

; 1478 : 	glad_glGetMaterialiv = (PFNGLGETMATERIALIVPROC)load("glGetMaterialiv");

	lea	rcx, OFFSET FLAT:??_C@_0BA@GJKDADAB@glGetMaterialiv@
	call	rbx

; 1479 : 	glad_glGetPixelMapfv = (PFNGLGETPIXELMAPFVPROC)load("glGetPixelMapfv");

	lea	rcx, OFFSET FLAT:??_C@_0BA@EDGNDGIE@glGetPixelMapfv@
	call	rbx

; 1480 : 	glad_glGetPixelMapuiv = (PFNGLGETPIXELMAPUIVPROC)load("glGetPixelMapuiv");

	lea	rcx, OFFSET FLAT:??_C@_0BB@MGCFOIED@glGetPixelMapuiv@
	call	rbx

; 1481 : 	glad_glGetPixelMapusv = (PFNGLGETPIXELMAPUSVPROC)load("glGetPixelMapusv");

	lea	rcx, OFFSET FLAT:??_C@_0BB@NHJEMOOF@glGetPixelMapusv@
	call	rbx

; 1482 : 	glad_glGetPolygonStipple = (PFNGLGETPOLYGONSTIPPLEPROC)load("glGetPolygonStipple");

	lea	rcx, OFFSET FLAT:??_C@_0BE@PBJHLEJI@glGetPolygonStipple@
	call	rbx

; 1483 : 	glad_glGetTexEnvfv = (PFNGLGETTEXENVFVPROC)load("glGetTexEnvfv");

	lea	rcx, OFFSET FLAT:??_C@_0O@KDAJGFCL@glGetTexEnvfv@
	call	rbx

; 1484 : 	glad_glGetTexEnviv = (PFNGLGETTEXENVIVPROC)load("glGetTexEnviv");

	lea	rcx, OFFSET FLAT:??_C@_0O@KIFFCCBG@glGetTexEnviv@
	call	rbx

; 1485 : 	glad_glGetTexGendv = (PFNGLGETTEXGENDVPROC)load("glGetTexGendv");

	lea	rcx, OFFSET FLAT:??_C@_0O@PDIFOCP@glGetTexGendv@
	call	rbx

; 1486 : 	glad_glGetTexGenfv = (PFNGLGETTEXGENFVPROC)load("glGetTexGenfv");

	lea	rcx, OFFSET FLAT:??_C@_0O@MLMIKEB@glGetTexGenfv@
	call	rbx

; 1487 : 	glad_glGetTexGeniv = (PFNGLGETTEXGENIVPROC)load("glGetTexGeniv");

	lea	rcx, OFFSET FLAT:??_C@_0O@HOAMNHM@glGetTexGeniv@
	call	rbx

; 1488 : 	glad_glIsList = (PFNGLISLISTPROC)load("glIsList");

	lea	rcx, OFFSET FLAT:??_C@_08DMFMJKDH@glIsList@
	call	rbx

; 1489 : 	glad_glFrustum = (PFNGLFRUSTUMPROC)load("glFrustum");

	lea	rcx, OFFSET FLAT:??_C@_09ICLFHOKP@glFrustum@
	call	rbx

; 1490 : 	glad_glLoadIdentity = (PFNGLLOADIDENTITYPROC)load("glLoadIdentity");

	lea	rcx, OFFSET FLAT:??_C@_0P@EJAFHEPO@glLoadIdentity@
	call	rbx

; 1491 : 	glad_glLoadMatrixf = (PFNGLLOADMATRIXFPROC)load("glLoadMatrixf");

	lea	rcx, OFFSET FLAT:??_C@_0O@DJGBMGEI@glLoadMatrixf@
	call	rbx

; 1492 : 	glad_glLoadMatrixd = (PFNGLLOADMATRIXDPROC)load("glLoadMatrixd");

	lea	rcx, OFFSET FLAT:??_C@_0O@LFHKEMK@glLoadMatrixd@
	call	rbx

; 1493 : 	glad_glMatrixMode = (PFNGLMATRIXMODEPROC)load("glMatrixMode");

	lea	rcx, OFFSET FLAT:??_C@_0N@KDLNHKEJ@glMatrixMode@
	call	rbx

; 1494 : 	glad_glMultMatrixf = (PFNGLMULTMATRIXFPROC)load("glMultMatrixf");

	lea	rcx, OFFSET FLAT:??_C@_0O@LHKDNPKJ@glMultMatrixf@
	call	rbx

; 1495 : 	glad_glMultMatrixd = (PFNGLMULTMATRIXDPROC)load("glMultMatrixd");

	lea	rcx, OFFSET FLAT:??_C@_0O@IFJFLNCL@glMultMatrixd@
	call	rbx

; 1496 : 	glad_glOrtho = (PFNGLORTHOPROC)load("glOrtho");

	lea	rcx, OFFSET FLAT:??_C@_07DBAFHOII@glOrtho@
	call	rbx

; 1497 : 	glad_glPopMatrix = (PFNGLPOPMATRIXPROC)load("glPopMatrix");

	lea	rcx, OFFSET FLAT:??_C@_0M@JPEAAEEK@glPopMatrix@
	call	rbx

; 1498 : 	glad_glPushMatrix = (PFNGLPUSHMATRIXPROC)load("glPushMatrix");

	lea	rcx, OFFSET FLAT:??_C@_0N@IHFNHGBL@glPushMatrix@
	call	rbx

; 1499 : 	glad_glRotated = (PFNGLROTATEDPROC)load("glRotated");

	lea	rcx, OFFSET FLAT:??_C@_09GANFLDAO@glRotated@
	call	rbx

; 1500 : 	glad_glRotatef = (PFNGLROTATEFPROC)load("glRotatef");

	lea	rcx, OFFSET FLAT:??_C@_09FCODNBIM@glRotatef@
	call	rbx

; 1501 : 	glad_glScaled = (PFNGLSCALEDPROC)load("glScaled");

	lea	rcx, OFFSET FLAT:??_C@_08KAMCINDI@glScaled@
	call	rbx

; 1502 : 	glad_glScalef = (PFNGLSCALEFPROC)load("glScalef");

	lea	rcx, OFFSET FLAT:??_C@_08JCPEOPLK@glScalef@
	call	rbx

; 1503 : 	glad_glTranslated = (PFNGLTRANSLATEDPROC)load("glTranslated");

	lea	rcx, OFFSET FLAT:??_C@_0N@LHMFFDFG@glTranslated@
	call	rbx

; 1504 : 	glad_glTranslatef = (PFNGLTRANSLATEFPROC)load("glTranslatef");

	lea	rcx, OFFSET FLAT:??_C@_0N@IFPDDBNE@glTranslatef@
	mov	rax, rbx

; 1505 : }

	add	rsp, 32					; 00000020H
	pop	rbx

; 1504 : 	glad_glTranslatef = (PFNGLTRANSLATEFPROC)load("glTranslatef");

	rex_jmp	rax
$LN1@load_GL_VE:

; 1505 : }

	add	rsp, 32					; 00000020H
	pop	rbx
	ret	0
load_GL_VERSION_1_0 ENDP
_TEXT	ENDS
; Function compile flags: /Ogtpy
; File C:\Radiophobia\Radiophobia-main\glad.c
;	COMDAT load_GL_VERSION_1_1
_TEXT	SEGMENT
load$dead$ = 48
load_GL_VERSION_1_1 PROC				; COMDAT

; 1506 : static void load_GL_VERSION_1_1(GLADloadproc load) {

	sub	rsp, 40					; 00000028H

; 1507 : 	if(!GLAD_GL_VERSION_1_1) return;

	cmp	DWORD PTR GLAD_GL_VERSION_1_1, 0
	je	$LN1@load_GL_VE

; 1508 : 	glad_glDrawArrays = (PFNGLDRAWARRAYSPROC)load("glDrawArrays");

	lea	rcx, OFFSET FLAT:??_C@_0N@CMNPPOHA@glDrawArrays@
	call	get_proc

; 1509 : 	glad_glDrawElements = (PFNGLDRAWELEMENTSPROC)load("glDrawElements");

	lea	rcx, OFFSET FLAT:??_C@_0P@MENFIFGE@glDrawElements@
	call	get_proc

; 1510 : 	glad_glGetPointerv = (PFNGLGETPOINTERVPROC)load("glGetPointerv");

	lea	rcx, OFFSET FLAT:??_C@_0O@LADEDGJO@glGetPointerv@
	mov	QWORD PTR glad_glDrawElements, rax
	call	get_proc

; 1511 : 	glad_glPolygonOffset = (PFNGLPOLYGONOFFSETPROC)load("glPolygonOffset");

	lea	rcx, OFFSET FLAT:??_C@_0BA@FFBJGNC@glPolygonOffset@
	call	get_proc

; 1512 : 	glad_glCopyTexImage1D = (PFNGLCOPYTEXIMAGE1DPROC)load("glCopyTexImage1D");

	lea	rcx, OFFSET FLAT:??_C@_0BB@MEEDBHPL@glCopyTexImage1D@
	call	get_proc

; 1513 : 	glad_glCopyTexImage2D = (PFNGLCOPYTEXIMAGE2DPROC)load("glCopyTexImage2D");

	lea	rcx, OFFSET FLAT:??_C@_0BB@MGAFKJKC@glCopyTexImage2D@
	call	get_proc

; 1514 : 	glad_glCopyTexSubImage1D = (PFNGLCOPYTEXSUBIMAGE1DPROC)load("glCopyTexSubImage1D");

	lea	rcx, OFFSET FLAT:??_C@_0BE@PKNCAIGI@glCopyTexSubImage1D@
	call	get_proc

; 1515 : 	glad_glCopyTexSubImage2D = (PFNGLCOPYTEXSUBIMAGE2DPROC)load("glCopyTexSubImage2D");

	lea	rcx, OFFSET FLAT:??_C@_0BE@PIJELGDB@glCopyTexSubImage2D@
	call	get_proc

; 1516 : 	glad_glTexSubImage1D = (PFNGLTEXSUBIMAGE1DPROC)load("glTexSubImage1D");

	lea	rcx, OFFSET FLAT:??_C@_0BA@NFOOCKJD@glTexSubImage1D@
	call	get_proc

; 1517 : 	glad_glTexSubImage2D = (PFNGLTEXSUBIMAGE2DPROC)load("glTexSubImage2D");

	lea	rcx, OFFSET FLAT:??_C@_0BA@NHKIJEMK@glTexSubImage2D@
	call	get_proc

; 1518 : 	glad_glBindTexture = (PFNGLBINDTEXTUREPROC)load("glBindTexture");

	lea	rcx, OFFSET FLAT:??_C@_0O@JKKCIBGC@glBindTexture@
	call	get_proc

; 1519 : 	glad_glDeleteTextures = (PFNGLDELETETEXTURESPROC)load("glDeleteTextures");

	lea	rcx, OFFSET FLAT:??_C@_0BB@KMPLFJIC@glDeleteTextures@
	mov	QWORD PTR glad_glBindTexture, rax
	call	get_proc

; 1520 : 	glad_glGenTextures = (PFNGLGENTEXTURESPROC)load("glGenTextures");

	lea	rcx, OFFSET FLAT:??_C@_0O@LLMANLNK@glGenTextures@
	mov	QWORD PTR glad_glDeleteTextures, rax
	call	get_proc

; 1521 : 	glad_glIsTexture = (PFNGLISTEXTUREPROC)load("glIsTexture");

	lea	rcx, OFFSET FLAT:??_C@_0M@NJHAEPDN@glIsTexture@
	mov	QWORD PTR glad_glGenTextures, rax
	call	get_proc

; 1522 : 	glad_glArrayElement = (PFNGLARRAYELEMENTPROC)load("glArrayElement");

	lea	rcx, OFFSET FLAT:??_C@_0P@CKCIJELG@glArrayElement@
	call	get_proc

; 1523 : 	glad_glColorPointer = (PFNGLCOLORPOINTERPROC)load("glColorPointer");

	lea	rcx, OFFSET FLAT:??_C@_0P@DPKEGLKI@glColorPointer@
	call	get_proc

; 1524 : 	glad_glDisableClientState = (PFNGLDISABLECLIENTSTATEPROC)load("glDisableClientState");

	lea	rcx, OFFSET FLAT:??_C@_0BF@LJDHBNBP@glDisableClientState@
	call	get_proc

; 1525 : 	glad_glEdgeFlagPointer = (PFNGLEDGEFLAGPOINTERPROC)load("glEdgeFlagPointer");

	lea	rcx, OFFSET FLAT:??_C@_0BC@LILGCNN@glEdgeFlagPointer@
	call	get_proc

; 1526 : 	glad_glEnableClientState = (PFNGLENABLECLIENTSTATEPROC)load("glEnableClientState");

	lea	rcx, OFFSET FLAT:??_C@_0BE@KECPKGNE@glEnableClientState@
	call	get_proc

; 1527 : 	glad_glIndexPointer = (PFNGLINDEXPOINTERPROC)load("glIndexPointer");

	lea	rcx, OFFSET FLAT:??_C@_0P@KGJBLKPD@glIndexPointer@
	call	get_proc

; 1528 : 	glad_glInterleavedArrays = (PFNGLINTERLEAVEDARRAYSPROC)load("glInterleavedArrays");

	lea	rcx, OFFSET FLAT:??_C@_0BE@EDEDCKLI@glInterleavedArrays@
	call	get_proc

; 1529 : 	glad_glNormalPointer = (PFNGLNORMALPOINTERPROC)load("glNormalPointer");

	lea	rcx, OFFSET FLAT:??_C@_0BA@DCLMCEOP@glNormalPointer@
	call	get_proc

; 1530 : 	glad_glTexCoordPointer = (PFNGLTEXCOORDPOINTERPROC)load("glTexCoordPointer");

	lea	rcx, OFFSET FLAT:??_C@_0BC@DAOMILMO@glTexCoordPointer@
	call	get_proc

; 1531 : 	glad_glVertexPointer = (PFNGLVERTEXPOINTERPROC)load("glVertexPointer");

	lea	rcx, OFFSET FLAT:??_C@_0BA@HAHECJNK@glVertexPointer@
	call	get_proc

; 1532 : 	glad_glAreTexturesResident = (PFNGLARETEXTURESRESIDENTPROC)load("glAreTexturesResident");

	lea	rcx, OFFSET FLAT:??_C@_0BG@DHOKJLEP@glAreTexturesResident@
	call	get_proc

; 1533 : 	glad_glPrioritizeTextures = (PFNGLPRIORITIZETEXTURESPROC)load("glPrioritizeTextures");

	lea	rcx, OFFSET FLAT:??_C@_0BF@FFCGNNIA@glPrioritizeTextures@
	call	get_proc

; 1534 : 	glad_glIndexub = (PFNGLINDEXUBPROC)load("glIndexub");

	lea	rcx, OFFSET FLAT:??_C@_09BBIPIKNC@glIndexub@
	call	get_proc

; 1535 : 	glad_glIndexubv = (PFNGLINDEXUBVPROC)load("glIndexubv");

	lea	rcx, OFFSET FLAT:??_C@_0L@BBKJOCAC@glIndexubv@
	call	get_proc

; 1536 : 	glad_glPopClientAttrib = (PFNGLPOPCLIENTATTRIBPROC)load("glPopClientAttrib");

	lea	rcx, OFFSET FLAT:??_C@_0BC@GOOJKIDH@glPopClientAttrib@
	call	get_proc

; 1537 : 	glad_glPushClientAttrib = (PFNGLPUSHCLIENTATTRIBPROC)load("glPushClientAttrib");

	lea	rcx, OFFSET FLAT:??_C@_0BD@JKGPLNEA@glPushClientAttrib@

; 1538 : }

	add	rsp, 40					; 00000028H

; 1537 : 	glad_glPushClientAttrib = (PFNGLPUSHCLIENTATTRIBPROC)load("glPushClientAttrib");

	jmp	get_proc
$LN1@load_GL_VE:

; 1538 : }

	add	rsp, 40					; 00000028H
	ret	0
load_GL_VERSION_1_1 ENDP
_TEXT	ENDS
; Function compile flags: /Ogtpy
; File C:\Radiophobia\Radiophobia-main\glad.c
;	COMDAT load_GL_VERSION_1_2
_TEXT	SEGMENT
load$dead$ = 48
load_GL_VERSION_1_2 PROC				; COMDAT

; 1539 : static void load_GL_VERSION_1_2(GLADloadproc load) {

	sub	rsp, 40					; 00000028H

; 1540 : 	if(!GLAD_GL_VERSION_1_2) return;

	cmp	DWORD PTR GLAD_GL_VERSION_1_2, 0
	je	SHORT $LN1@load_GL_VE

; 1541 : 	glad_glDrawRangeElements = (PFNGLDRAWRANGEELEMENTSPROC)load("glDrawRangeElements");

	lea	rcx, OFFSET FLAT:??_C@_0BE@IHNAGJGJ@glDrawRangeElements@
	call	get_proc

; 1542 : 	glad_glTexImage3D = (PFNGLTEXIMAGE3DPROC)load("glTexImage3D");

	lea	rcx, OFFSET FLAT:??_C@_0N@JAEIBBBF@glTexImage3D@
	call	get_proc

; 1543 : 	glad_glTexSubImage3D = (PFNGLTEXSUBIMAGE3DPROC)load("glTexSubImage3D");

	lea	rcx, OFFSET FLAT:??_C@_0BA@NGGKPOPN@glTexSubImage3D@
	call	get_proc

; 1544 : 	glad_glCopyTexSubImage3D = (PFNGLCOPYTEXSUBIMAGE3DPROC)load("glCopyTexSubImage3D");

	lea	rcx, OFFSET FLAT:??_C@_0BE@PJFGNMAG@glCopyTexSubImage3D@

; 1545 : }

	add	rsp, 40					; 00000028H

; 1544 : 	glad_glCopyTexSubImage3D = (PFNGLCOPYTEXSUBIMAGE3DPROC)load("glCopyTexSubImage3D");

	jmp	get_proc
$LN1@load_GL_VE:

; 1545 : }

	add	rsp, 40					; 00000028H
	ret	0
load_GL_VERSION_1_2 ENDP
_TEXT	ENDS
; Function compile flags: /Ogtpy
; File C:\Radiophobia\Radiophobia-main\glad.c
;	COMDAT load_GL_VERSION_1_3
_TEXT	SEGMENT
load$dead$ = 48
load_GL_VERSION_1_3 PROC				; COMDAT

; 1546 : static void load_GL_VERSION_1_3(GLADloadproc load) {

	sub	rsp, 40					; 00000028H

; 1547 : 	if(!GLAD_GL_VERSION_1_3) return;

	cmp	DWORD PTR GLAD_GL_VERSION_1_3, 0
	je	$LN1@load_GL_VE

; 1548 : 	glad_glActiveTexture = (PFNGLACTIVETEXTUREPROC)load("glActiveTexture");

	lea	rcx, OFFSET FLAT:??_C@_0BA@KOBBIKOF@glActiveTexture@
	call	get_proc

; 1549 : 	glad_glSampleCoverage = (PFNGLSAMPLECOVERAGEPROC)load("glSampleCoverage");

	lea	rcx, OFFSET FLAT:??_C@_0BB@BJGIPMOA@glSampleCoverage@
	mov	QWORD PTR glad_glActiveTexture, rax
	call	get_proc

; 1550 : 	glad_glCompressedTexImage3D = (PFNGLCOMPRESSEDTEXIMAGE3DPROC)load("glCompressedTexImage3D");

	lea	rcx, OFFSET FLAT:??_C@_0BH@GGHNMAGP@glCompressedTexImage3D@
	call	get_proc

; 1551 : 	glad_glCompressedTexImage2D = (PFNGLCOMPRESSEDTEXIMAGE2DPROC)load("glCompressedTexImage2D");

	lea	rcx, OFFSET FLAT:??_C@_0BH@GHLPKKFI@glCompressedTexImage2D@
	call	get_proc

; 1552 : 	glad_glCompressedTexImage1D = (PFNGLCOMPRESSEDTEXIMAGE1DPROC)load("glCompressedTexImage1D");

	lea	rcx, OFFSET FLAT:??_C@_0BH@GFPJBEAB@glCompressedTexImage1D@
	call	get_proc

; 1553 : 	glad_glCompressedTexSubImage3D = (PFNGLCOMPRESSEDTEXSUBIMAGE3DPROC)load("glCompressedTexSubImage3D");

	lea	rcx, OFFSET FLAT:??_C@_0BK@EBJMCDPA@glCompressedTexSubImage3D@
	call	get_proc

; 1554 : 	glad_glCompressedTexSubImage2D = (PFNGLCOMPRESSEDTEXSUBIMAGE2DPROC)load("glCompressedTexSubImage2D");

	lea	rcx, OFFSET FLAT:??_C@_0BK@EAFOEJMH@glCompressedTexSubImage2D@
	call	get_proc

; 1555 : 	glad_glCompressedTexSubImage1D = (PFNGLCOMPRESSEDTEXSUBIMAGE1DPROC)load("glCompressedTexSubImage1D");

	lea	rcx, OFFSET FLAT:??_C@_0BK@ECBIPHJO@glCompressedTexSubImage1D@
	call	get_proc

; 1556 : 	glad_glGetCompressedTexImage = (PFNGLGETCOMPRESSEDTEXIMAGEPROC)load("glGetCompressedTexImage");

	lea	rcx, OFFSET FLAT:??_C@_0BI@MPANLPPL@glGetCompressedTexImage@
	call	get_proc

; 1557 : 	glad_glClientActiveTexture = (PFNGLCLIENTACTIVETEXTUREPROC)load("glClientActiveTexture");

	lea	rcx, OFFSET FLAT:??_C@_0BG@EGKOMLFO@glClientActiveTexture@
	call	get_proc

; 1558 : 	glad_glMultiTexCoord1d = (PFNGLMULTITEXCOORD1DPROC)load("glMultiTexCoord1d");

	lea	rcx, OFFSET FLAT:??_C@_0BC@IHHPPFPP@glMultiTexCoord1d@
	call	get_proc

; 1559 : 	glad_glMultiTexCoord1dv = (PFNGLMULTITEXCOORD1DVPROC)load("glMultiTexCoord1dv");

	lea	rcx, OFFSET FLAT:??_C@_0BD@FEOAEOAI@glMultiTexCoord1dv@
	call	get_proc

; 1560 : 	glad_glMultiTexCoord1f = (PFNGLMULTITEXCOORD1FPROC)load("glMultiTexCoord1f");

	lea	rcx, OFFSET FLAT:??_C@_0BC@LFEJJHHN@glMultiTexCoord1f@
	call	get_proc

; 1561 : 	glad_glMultiTexCoord1fv = (PFNGLMULTITEXCOORD1FVPROC)load("glMultiTexCoord1fv");

	lea	rcx, OFFSET FLAT:??_C@_0BD@FHGEJKGG@glMultiTexCoord1fv@
	call	get_proc

; 1562 : 	glad_glMultiTexCoord1i = (PFNGLMULTITEXCOORD1IPROC)load("glMultiTexCoord1i");

	lea	rcx, OFFSET FLAT:??_C@_0BC@DCNBILLC@glMultiTexCoord1i@
	call	get_proc

; 1563 : 	glad_glMultiTexCoord1iv = (PFNGLMULTITEXCOORD1IVPROC)load("glMultiTexCoord1iv");

	lea	rcx, OFFSET FLAT:??_C@_0BD@FMDINNFL@glMultiTexCoord1iv@
	call	get_proc

; 1564 : 	glad_glMultiTexCoord1s = (PFNGLMULTITEXCOORD1SPROC)load("glMultiTexCoord1s");

	lea	rcx, OFFSET FLAT:??_C@_0BC@ICPMHBGJ@glMultiTexCoord1s@
	call	get_proc

; 1565 : 	glad_glMultiTexCoord1sv = (PFNGLMULTITEXCOORD1SVPROC)load("glMultiTexCoord1sv");

	lea	rcx, OFFSET FLAT:??_C@_0BD@ENIJPLPN@glMultiTexCoord1sv@
	call	get_proc

; 1566 : 	glad_glMultiTexCoord2d = (PFNGLMULTITEXCOORD2DPROC)load("glMultiTexCoord2d");

	lea	rcx, OFFSET FLAT:??_C@_0BC@IFDJELKG@glMultiTexCoord2d@
	call	get_proc

; 1567 : 	glad_glMultiTexCoord2dv = (PFNGLMULTITEXCOORD2DVPROC)load("glMultiTexCoord2dv");

	lea	rcx, OFFSET FLAT:??_C@_0BD@EGFFOBOG@glMultiTexCoord2dv@
	call	get_proc

; 1568 : 	glad_glMultiTexCoord2f = (PFNGLMULTITEXCOORD2FPROC)load("glMultiTexCoord2f");

	lea	rcx, OFFSET FLAT:??_C@_0BC@LHAPCJCE@glMultiTexCoord2f@
	call	get_proc

; 1569 : 	glad_glMultiTexCoord2fv = (PFNGLMULTITEXCOORD2FVPROC)load("glMultiTexCoord2fv");

	lea	rcx, OFFSET FLAT:??_C@_0BD@EFNBDFII@glMultiTexCoord2fv@
	call	get_proc

; 1570 : 	glad_glMultiTexCoord2i = (PFNGLMULTITEXCOORD2IPROC)load("glMultiTexCoord2i");

	lea	rcx, OFFSET FLAT:??_C@_0BC@DAJHDFOL@glMultiTexCoord2i@
	call	get_proc

; 1571 : 	glad_glMultiTexCoord2iv = (PFNGLMULTITEXCOORD2IVPROC)load("glMultiTexCoord2iv");

	lea	rcx, OFFSET FLAT:??_C@_0BD@EOINHCLF@glMultiTexCoord2iv@
	call	get_proc

; 1572 : 	glad_glMultiTexCoord2s = (PFNGLMULTITEXCOORD2SPROC)load("glMultiTexCoord2s");

	lea	rcx, OFFSET FLAT:??_C@_0BC@IALKMPDA@glMultiTexCoord2s@
	call	get_proc

; 1573 : 	glad_glMultiTexCoord2sv = (PFNGLMULTITEXCOORD2SVPROC)load("glMultiTexCoord2sv");

	lea	rcx, OFFSET FLAT:??_C@_0BD@FPDMFEBD@glMultiTexCoord2sv@
	call	get_proc

; 1574 : 	glad_glMultiTexCoord3d = (PFNGLMULTITEXCOORD3DPROC)load("glMultiTexCoord3d");

	lea	rcx, OFFSET FLAT:??_C@_0BC@IEPLCBJB@glMultiTexCoord3d@
	call	get_proc

; 1575 : 	glad_glMultiTexCoord3dv = (PFNGLMULTITEXCOORD3DVPROC)load("glMultiTexCoord3dv");

	lea	rcx, OFFSET FLAT:??_C@_0BD@POOJIGID@glMultiTexCoord3dv@
	call	get_proc

; 1576 : 	glad_glMultiTexCoord3f = (PFNGLMULTITEXCOORD3FPROC)load("glMultiTexCoord3f");

	lea	rcx, OFFSET FLAT:??_C@_0BC@LGMNEDBD@glMultiTexCoord3f@
	call	get_proc

; 1577 : 	glad_glMultiTexCoord3fv = (PFNGLMULTITEXCOORD3FVPROC)load("glMultiTexCoord3fv");

	lea	rcx, OFFSET FLAT:??_C@_0BD@PNGNFCON@glMultiTexCoord3fv@
	call	get_proc

; 1578 : 	glad_glMultiTexCoord3i = (PFNGLMULTITEXCOORD3IPROC)load("glMultiTexCoord3i");

	lea	rcx, OFFSET FLAT:??_C@_0BC@DBFFFPNM@glMultiTexCoord3i@
	call	get_proc

; 1579 : 	glad_glMultiTexCoord3iv = (PFNGLMULTITEXCOORD3IVPROC)load("glMultiTexCoord3iv");

	lea	rcx, OFFSET FLAT:??_C@_0BD@PGDBBFNA@glMultiTexCoord3iv@
	call	get_proc

; 1580 : 	glad_glMultiTexCoord3s = (PFNGLMULTITEXCOORD3SPROC)load("glMultiTexCoord3s");

	lea	rcx, OFFSET FLAT:??_C@_0BC@IBHIKFAH@glMultiTexCoord3s@
	call	get_proc

; 1581 : 	glad_glMultiTexCoord3sv = (PFNGLMULTITEXCOORD3SVPROC)load("glMultiTexCoord3sv");

	lea	rcx, OFFSET FLAT:??_C@_0BD@OHIADDHG@glMultiTexCoord3sv@
	call	get_proc

; 1582 : 	glad_glMultiTexCoord4d = (PFNGLMULTITEXCOORD4DPROC)load("glMultiTexCoord4d");

	lea	rcx, OFFSET FLAT:??_C@_0BC@IBLEDHBE@glMultiTexCoord4d@
	call	get_proc

; 1583 : 	glad_glMultiTexCoord4dv = (PFNGLMULTITEXCOORD4DVPROC)load("glMultiTexCoord4dv");

	lea	rcx, OFFSET FLAT:??_C@_0BD@GDDOLODK@glMultiTexCoord4dv@
	call	get_proc

; 1584 : 	glad_glMultiTexCoord4f = (PFNGLMULTITEXCOORD4FPROC)load("glMultiTexCoord4f");

	lea	rcx, OFFSET FLAT:??_C@_0BC@LDICFFJG@glMultiTexCoord4f@
	call	get_proc

; 1585 : 	glad_glMultiTexCoord4fv = (PFNGLMULTITEXCOORD4FVPROC)load("glMultiTexCoord4fv");

	lea	rcx, OFFSET FLAT:??_C@_0BD@GALKGKFE@glMultiTexCoord4fv@
	call	get_proc

; 1586 : 	glad_glMultiTexCoord4i = (PFNGLMULTITEXCOORD4IPROC)load("glMultiTexCoord4i");

	lea	rcx, OFFSET FLAT:??_C@_0BC@DEBKEJFJ@glMultiTexCoord4i@
	call	get_proc

; 1587 : 	glad_glMultiTexCoord4iv = (PFNGLMULTITEXCOORD4IVPROC)load("glMultiTexCoord4iv");

	lea	rcx, OFFSET FLAT:??_C@_0BD@GLOGCNGJ@glMultiTexCoord4iv@
	call	get_proc

; 1588 : 	glad_glMultiTexCoord4s = (PFNGLMULTITEXCOORD4SPROC)load("glMultiTexCoord4s");

	lea	rcx, OFFSET FLAT:??_C@_0BC@IEDHLDIC@glMultiTexCoord4s@
	call	get_proc

; 1589 : 	glad_glMultiTexCoord4sv = (PFNGLMULTITEXCOORD4SVPROC)load("glMultiTexCoord4sv");

	lea	rcx, OFFSET FLAT:??_C@_0BD@HKFHALMP@glMultiTexCoord4sv@
	call	get_proc

; 1590 : 	glad_glLoadTransposeMatrixf = (PFNGLLOADTRANSPOSEMATRIXFPROC)load("glLoadTransposeMatrixf");

	lea	rcx, OFFSET FLAT:??_C@_0BH@OJNLGHA@glLoadTransposeMatrixf@
	call	get_proc

; 1591 : 	glad_glLoadTransposeMatrixd = (PFNGLLOADTRANSPOSEMATRIXDPROC)load("glLoadTransposeMatrixd");

	lea	rcx, OFFSET FLAT:??_C@_0BH@DMKLNEPC@glLoadTransposeMatrixd@
	call	get_proc

; 1592 : 	glad_glMultTransposeMatrixf = (PFNGLMULTTRANSPOSEMATRIXFPROC)load("glMultTransposeMatrixf");

	lea	rcx, OFFSET FLAT:??_C@_0BH@DPBMPCNC@glMultTransposeMatrixf@
	call	get_proc

; 1593 : 	glad_glMultTransposeMatrixd = (PFNGLMULTTRANSPOSEMATRIXDPROC)load("glMultTransposeMatrixd");

	lea	rcx, OFFSET FLAT:??_C@_0BH@NCKJAFA@glMultTransposeMatrixd@

; 1594 : }

	add	rsp, 40					; 00000028H

; 1593 : 	glad_glMultTransposeMatrixd = (PFNGLMULTTRANSPOSEMATRIXDPROC)load("glMultTransposeMatrixd");

	jmp	get_proc
$LN1@load_GL_VE:

; 1594 : }

	add	rsp, 40					; 00000028H
	ret	0
load_GL_VERSION_1_3 ENDP
_TEXT	ENDS
; Function compile flags: /Ogtpy
; File C:\Radiophobia\Radiophobia-main\glad.c
;	COMDAT load_GL_VERSION_1_4
_TEXT	SEGMENT
load$dead$ = 48
load_GL_VERSION_1_4 PROC				; COMDAT

; 1595 : static void load_GL_VERSION_1_4(GLADloadproc load) {

	sub	rsp, 40					; 00000028H

; 1596 : 	if(!GLAD_GL_VERSION_1_4) return;

	cmp	DWORD PTR GLAD_GL_VERSION_1_4, 0
	je	$LN1@load_GL_VE

; 1597 : 	glad_glBlendFuncSeparate = (PFNGLBLENDFUNCSEPARATEPROC)load("glBlendFuncSeparate");

	lea	rcx, OFFSET FLAT:??_C@_0BE@LLLCIIOO@glBlendFuncSeparate@
	call	get_proc

; 1598 : 	glad_glMultiDrawArrays = (PFNGLMULTIDRAWARRAYSPROC)load("glMultiDrawArrays");

	lea	rcx, OFFSET FLAT:??_C@_0BC@IBABPJFA@glMultiDrawArrays@
	call	get_proc

; 1599 : 	glad_glMultiDrawElements = (PFNGLMULTIDRAWELEMENTSPROC)load("glMultiDrawElements");

	lea	rcx, OFFSET FLAT:??_C@_0BE@MPDFJJLL@glMultiDrawElements@
	call	get_proc

; 1600 : 	glad_glPointParameterf = (PFNGLPOINTPARAMETERFPROC)load("glPointParameterf");

	lea	rcx, OFFSET FLAT:??_C@_0BC@FGOOEDO@glPointParameterf@
	call	get_proc

; 1601 : 	glad_glPointParameterfv = (PFNGLPOINTPARAMETERFVPROC)load("glPointParameterfv");

	lea	rcx, OFFSET FLAT:??_C@_0BD@LIABKNDP@glPointParameterfv@
	call	get_proc

; 1602 : 	glad_glPointParameteri = (PFNGLPOINTPARAMETERIPROC)load("glPointParameteri");

	lea	rcx, OFFSET FLAT:??_C@_0BC@ICPGPIPB@glPointParameteri@
	call	get_proc

; 1603 : 	glad_glPointParameteriv = (PFNGLPOINTPARAMETERIVPROC)load("glPointParameteriv");

	lea	rcx, OFFSET FLAT:??_C@_0BD@LDFNOKAC@glPointParameteriv@
	call	get_proc

; 1604 : 	glad_glFogCoordf = (PFNGLFOGCOORDFPROC)load("glFogCoordf");

	lea	rcx, OFFSET FLAT:??_C@_0M@GCBCNNOF@glFogCoordf@
	call	get_proc

; 1605 : 	glad_glFogCoordfv = (PFNGLFOGCOORDFVPROC)load("glFogCoordfv");

	lea	rcx, OFFSET FLAT:??_C@_0N@KJGHNKFK@glFogCoordfv@
	call	get_proc

; 1606 : 	glad_glFogCoordd = (PFNGLFOGCOORDDPROC)load("glFogCoordd");

	lea	rcx, OFFSET FLAT:??_C@_0M@FACELPGH@glFogCoordd@
	call	get_proc

; 1607 : 	glad_glFogCoorddv = (PFNGLFOGCOORDDVPROC)load("glFogCoorddv");

	lea	rcx, OFFSET FLAT:??_C@_0N@KKODAODE@glFogCoorddv@
	call	get_proc

; 1608 : 	glad_glFogCoordPointer = (PFNGLFOGCOORDPOINTERPROC)load("glFogCoordPointer");

	lea	rcx, OFFSET FLAT:??_C@_0BC@GECGFLP@glFogCoordPointer@
	call	get_proc

; 1609 : 	glad_glSecondaryColor3b = (PFNGLSECONDARYCOLOR3BPROC)load("glSecondaryColor3b");

	lea	rcx, OFFSET FLAT:??_C@_0BD@MCCHHBGK@glSecondaryColor3b@
	call	get_proc

; 1610 : 	glad_glSecondaryColor3bv = (PFNGLSECONDARYCOLOR3BVPROC)load("glSecondaryColor3bv");

	lea	rcx, OFFSET FLAT:??_C@_0BE@NEMAHBEH@glSecondaryColor3bv@
	call	get_proc

; 1611 : 	glad_glSecondaryColor3d = (PFNGLSECONDARYCOLOR3DPROC)load("glSecondaryColor3d");

	lea	rcx, OFFSET FLAT:??_C@_0BD@JEHNNGOM@glSecondaryColor3d@
	call	get_proc

; 1612 : 	glad_glSecondaryColor3dv = (PFNGLSECONDARYCOLOR3DVPROC)load("glSecondaryColor3dv");

	lea	rcx, OFFSET FLAT:??_C@_0BE@NAENANPF@glSecondaryColor3dv@
	call	get_proc

; 1613 : 	glad_glSecondaryColor3f = (PFNGLSECONDARYCOLOR3FPROC)load("glSecondaryColor3f");

	lea	rcx, OFFSET FLAT:??_C@_0BD@KGELLEGO@glSecondaryColor3f@
	call	get_proc

; 1614 : 	glad_glSecondaryColor3fv = (PFNGLSECONDARYCOLOR3FVPROC)load("glSecondaryColor3fv");

	lea	rcx, OFFSET FLAT:??_C@_0BE@NDMJNJJL@glSecondaryColor3fv@
	call	get_proc

; 1615 : 	glad_glSecondaryColor3i = (PFNGLSECONDARYCOLOR3IPROC)load("glSecondaryColor3i");

	lea	rcx, OFFSET FLAT:??_C@_0BD@CBNDKIKB@glSecondaryColor3i@
	call	get_proc

; 1616 : 	glad_glSecondaryColor3iv = (PFNGLSECONDARYCOLOR3IVPROC)load("glSecondaryColor3iv");

	lea	rcx, OFFSET FLAT:??_C@_0BE@NIJFJOKG@glSecondaryColor3iv@
	call	get_proc

; 1617 : 	glad_glSecondaryColor3s = (PFNGLSECONDARYCOLOR3SPROC)load("glSecondaryColor3s");

	lea	rcx, OFFSET FLAT:??_C@_0BD@JBPOFCHK@glSecondaryColor3s@
	call	get_proc

; 1618 : 	glad_glSecondaryColor3sv = (PFNGLSECONDARYCOLOR3SVPROC)load("glSecondaryColor3sv");

	lea	rcx, OFFSET FLAT:??_C@_0BE@MJCELIAA@glSecondaryColor3sv@
	call	get_proc

; 1619 : 	glad_glSecondaryColor3ub = (PFNGLSECONDARYCOLOR3UBPROC)load("glSecondaryColor3ub");

	lea	rcx, OFFSET FLAT:??_C@_0BE@ODAHBDOH@glSecondaryColor3ub@
	call	get_proc

; 1620 : 	glad_glSecondaryColor3ubv = (PFNGLSECONDARYCOLOR3UBVPROC)load("glSecondaryColor3ubv");

	lea	rcx, OFFSET FLAT:??_C@_0BF@EHOIKOLI@glSecondaryColor3ubv@
	call	get_proc

; 1621 : 	glad_glSecondaryColor3ui = (PFNGLSECONDARYCOLOR3UIPROC)load("glSecondaryColor3ui");

	lea	rcx, OFFSET FLAT:??_C@_0BE@PDMKCM@glSecondaryColor3ui@
	call	get_proc

; 1622 : 	glad_glSecondaryColor3uiv = (PFNGLSECONDARYCOLOR3UIVPROC)load("glSecondaryColor3uiv");

	lea	rcx, OFFSET FLAT:??_C@_0BF@ELLNEBFJ@glSecondaryColor3uiv@
	call	get_proc

; 1623 : 	glad_glSecondaryColor3us = (PFNGLSECONDARYCOLOR3USPROC)load("glSecondaryColor3us");

	lea	rcx, OFFSET FLAT:??_C@_0BE@LANODAPH@glSecondaryColor3us@
	call	get_proc

; 1624 : 	glad_glSecondaryColor3usv = (PFNGLSECONDARYCOLOR3USVPROC)load("glSecondaryColor3usv");

	lea	rcx, OFFSET FLAT:??_C@_0BF@FKAMGHPP@glSecondaryColor3usv@
	call	get_proc

; 1625 : 	glad_glSecondaryColorPointer = (PFNGLSECONDARYCOLORPOINTERPROC)load("glSecondaryColorPointer");

	lea	rcx, OFFSET FLAT:??_C@_0BI@EFMNDJOO@glSecondaryColorPointer@
	call	get_proc

; 1626 : 	glad_glWindowPos2d = (PFNGLWINDOWPOS2DPROC)load("glWindowPos2d");

	lea	rcx, OFFSET FLAT:??_C@_0O@JGNKBLNH@glWindowPos2d@
	call	get_proc

; 1627 : 	glad_glWindowPos2dv = (PFNGLWINDOWPOS2DVPROC)load("glWindowPos2dv");

	lea	rcx, OFFSET FLAT:??_C@_0P@GBEEEDBM@glWindowPos2dv@
	call	get_proc

; 1628 : 	glad_glWindowPos2f = (PFNGLWINDOWPOS2FPROC)load("glWindowPos2f");

	lea	rcx, OFFSET FLAT:??_C@_0O@KEOMHJFF@glWindowPos2f@
	call	get_proc

; 1629 : 	glad_glWindowPos2fv = (PFNGLWINDOWPOS2FVPROC)load("glWindowPos2fv");

	lea	rcx, OFFSET FLAT:??_C@_0P@GCMAJHHC@glWindowPos2fv@
	call	get_proc

; 1630 : 	glad_glWindowPos2i = (PFNGLWINDOWPOS2IPROC)load("glWindowPos2i");

	lea	rcx, OFFSET FLAT:??_C@_0O@CDHEGFJK@glWindowPos2i@
	call	get_proc

; 1631 : 	glad_glWindowPos2iv = (PFNGLWINDOWPOS2IVPROC)load("glWindowPos2iv");

	lea	rcx, OFFSET FLAT:??_C@_0P@GJJMNAEP@glWindowPos2iv@
	call	get_proc

; 1632 : 	glad_glWindowPos2s = (PFNGLWINDOWPOS2SPROC)load("glWindowPos2s");

	lea	rcx, OFFSET FLAT:??_C@_0O@JDFJJPEB@glWindowPos2s@
	call	get_proc

; 1633 : 	glad_glWindowPos2sv = (PFNGLWINDOWPOS2SVPROC)load("glWindowPos2sv");

	lea	rcx, OFFSET FLAT:??_C@_0P@HICNPGOJ@glWindowPos2sv@
	call	get_proc

; 1634 : 	glad_glWindowPos3d = (PFNGLWINDOWPOS3DPROC)load("glWindowPos3d");

	lea	rcx, OFFSET FLAT:??_C@_0O@JHBIHBOA@glWindowPos3d@
	call	get_proc

; 1635 : 	glad_glWindowPos3dv = (PFNGLWINDOWPOS3DVPROC)load("glWindowPos3dv");

	lea	rcx, OFFSET FLAT:??_C@_0P@NJPICEHJ@glWindowPos3dv@
	call	get_proc

; 1636 : 	glad_glWindowPos3f = (PFNGLWINDOWPOS3FPROC)load("glWindowPos3f");

	lea	rcx, OFFSET FLAT:??_C@_0O@KFCOBDGC@glWindowPos3f@
	call	get_proc

; 1637 : 	glad_glWindowPos3fv = (PFNGLWINDOWPOS3FVPROC)load("glWindowPos3fv");

	lea	rcx, OFFSET FLAT:??_C@_0P@NKHMPABH@glWindowPos3fv@
	call	get_proc

; 1638 : 	glad_glWindowPos3i = (PFNGLWINDOWPOS3IPROC)load("glWindowPos3i");

	lea	rcx, OFFSET FLAT:??_C@_0O@CCLGAPKN@glWindowPos3i@
	call	get_proc

; 1639 : 	glad_glWindowPos3iv = (PFNGLWINDOWPOS3IVPROC)load("glWindowPos3iv");

	lea	rcx, OFFSET FLAT:??_C@_0P@NBCALHCK@glWindowPos3iv@
	call	get_proc

; 1640 : 	glad_glWindowPos3s = (PFNGLWINDOWPOS3SPROC)load("glWindowPos3s");

	lea	rcx, OFFSET FLAT:??_C@_0O@JCJLPFHG@glWindowPos3s@
	call	get_proc

; 1641 : 	glad_glWindowPos3sv = (PFNGLWINDOWPOS3SVPROC)load("glWindowPos3sv");

	lea	rcx, OFFSET FLAT:??_C@_0P@MAJBJBIM@glWindowPos3sv@
	call	get_proc

; 1642 : 	glad_glBlendColor = (PFNGLBLENDCOLORPROC)load("glBlendColor");

	lea	rcx, OFFSET FLAT:??_C@_0N@PKBMFJDK@glBlendColor@
	call	get_proc

; 1643 : 	glad_glBlendEquation = (PFNGLBLENDEQUATIONPROC)load("glBlendEquation");

	lea	rcx, OFFSET FLAT:??_C@_0BA@PFHILPAN@glBlendEquation@

; 1644 : }

	add	rsp, 40					; 00000028H

; 1643 : 	glad_glBlendEquation = (PFNGLBLENDEQUATIONPROC)load("glBlendEquation");

	jmp	get_proc
$LN1@load_GL_VE:

; 1644 : }

	add	rsp, 40					; 00000028H
	ret	0
load_GL_VERSION_1_4 ENDP
_TEXT	ENDS
; Function compile flags: /Ogtpy
; File C:\Radiophobia\Radiophobia-main\glad.c
;	COMDAT load_GL_VERSION_1_5
_TEXT	SEGMENT
load$dead$ = 48
load_GL_VERSION_1_5 PROC				; COMDAT

; 1645 : static void load_GL_VERSION_1_5(GLADloadproc load) {

	sub	rsp, 40					; 00000028H

; 1646 : 	if(!GLAD_GL_VERSION_1_5) return;

	cmp	DWORD PTR GLAD_GL_VERSION_1_5, 0
	je	$LN1@load_GL_VE

; 1647 : 	glad_glGenQueries = (PFNGLGENQUERIESPROC)load("glGenQueries");

	lea	rcx, OFFSET FLAT:??_C@_0N@CJIGHHJ@glGenQueries@
	call	get_proc

; 1648 : 	glad_glDeleteQueries = (PFNGLDELETEQUERIESPROC)load("glDeleteQueries");

	lea	rcx, OFFSET FLAT:??_C@_0BA@IOKEHMOH@glDeleteQueries@
	call	get_proc

; 1649 : 	glad_glIsQuery = (PFNGLISQUERYPROC)load("glIsQuery");

	lea	rcx, OFFSET FLAT:??_C@_09CNNLCEBN@glIsQuery@
	call	get_proc

; 1650 : 	glad_glBeginQuery = (PFNGLBEGINQUERYPROC)load("glBeginQuery");

	lea	rcx, OFFSET FLAT:??_C@_0N@GIAGIGPA@glBeginQuery@
	call	get_proc

; 1651 : 	glad_glEndQuery = (PFNGLENDQUERYPROC)load("glEndQuery");

	lea	rcx, OFFSET FLAT:??_C@_0L@FLEBHIDM@glEndQuery@
	call	get_proc

; 1652 : 	glad_glGetQueryiv = (PFNGLGETQUERYIVPROC)load("glGetQueryiv");

	lea	rcx, OFFSET FLAT:??_C@_0N@BPACPFCI@glGetQueryiv@
	call	get_proc

; 1653 : 	glad_glGetQueryObjectiv = (PFNGLGETQUERYOBJECTIVPROC)load("glGetQueryObjectiv");

	lea	rcx, OFFSET FLAT:??_C@_0BD@KMBBCJID@glGetQueryObjectiv@
	call	get_proc

; 1654 : 	glad_glGetQueryObjectuiv = (PFNGLGETQUERYOBJECTUIVPROC)load("glGetQueryObjectuiv");

	lea	rcx, OFFSET FLAT:??_C@_0BE@MNBBKJ@glGetQueryObjectuiv@
	call	get_proc

; 1655 : 	glad_glBindBuffer = (PFNGLBINDBUFFERPROC)load("glBindBuffer");

	lea	rcx, OFFSET FLAT:??_C@_0N@BONEPPLO@glBindBuffer@
	call	get_proc

; 1656 : 	glad_glDeleteBuffers = (PFNGLDELETEBUFFERSPROC)load("glDeleteBuffers");

	lea	rcx, OFFSET FLAT:??_C@_0BA@DMNLADIO@glDeleteBuffers@
	mov	QWORD PTR glad_glBindBuffer, rax
	call	get_proc

; 1657 : 	glad_glGenBuffers = (PFNGLGENBUFFERSPROC)load("glGenBuffers");

	lea	rcx, OFFSET FLAT:??_C@_0N@LAOHBIBA@glGenBuffers@
	mov	QWORD PTR glad_glDeleteBuffers, rax
	call	get_proc

; 1658 : 	glad_glIsBuffer = (PFNGLISBUFFERPROC)load("glIsBuffer");

	lea	rcx, OFFSET FLAT:??_C@_0L@KFPDMKNG@glIsBuffer@
	mov	QWORD PTR glad_glGenBuffers, rax
	call	get_proc

; 1659 : 	glad_glBufferData = (PFNGLBUFFERDATAPROC)load("glBufferData");

	lea	rcx, OFFSET FLAT:??_C@_0N@JHHJMABP@glBufferData@
	call	get_proc

; 1660 : 	glad_glBufferSubData = (PFNGLBUFFERSUBDATAPROC)load("glBufferSubData");

	lea	rcx, OFFSET FLAT:??_C@_0BA@GAJMDBBN@glBufferSubData@
	mov	QWORD PTR glad_glBufferData, rax
	call	get_proc

; 1661 : 	glad_glGetBufferSubData = (PFNGLGETBUFFERSUBDATAPROC)load("glGetBufferSubData");

	lea	rcx, OFFSET FLAT:??_C@_0BD@PNDAHMBO@glGetBufferSubData@
	call	get_proc

; 1662 : 	glad_glMapBuffer = (PFNGLMAPBUFFERPROC)load("glMapBuffer");

	lea	rcx, OFFSET FLAT:??_C@_0M@NNHDPACA@glMapBuffer@
	call	get_proc

; 1663 : 	glad_glUnmapBuffer = (PFNGLUNMAPBUFFERPROC)load("glUnmapBuffer");

	lea	rcx, OFFSET FLAT:??_C@_0O@OFGHBLEO@glUnmapBuffer@
	call	get_proc

; 1664 : 	glad_glGetBufferParameteriv = (PFNGLGETBUFFERPARAMETERIVPROC)load("glGetBufferParameteriv");

	lea	rcx, OFFSET FLAT:??_C@_0BH@BMIEIFJP@glGetBufferParameteriv@
	call	get_proc

; 1665 : 	glad_glGetBufferPointerv = (PFNGLGETBUFFERPOINTERVPROC)load("glGetBufferPointerv");

	lea	rcx, OFFSET FLAT:??_C@_0BE@KNJEIFMC@glGetBufferPointerv@

; 1666 : }

	add	rsp, 40					; 00000028H

; 1665 : 	glad_glGetBufferPointerv = (PFNGLGETBUFFERPOINTERVPROC)load("glGetBufferPointerv");

	jmp	get_proc
$LN1@load_GL_VE:

; 1666 : }

	add	rsp, 40					; 00000028H
	ret	0
load_GL_VERSION_1_5 ENDP
_TEXT	ENDS
; Function compile flags: /Ogtpy
; File C:\Radiophobia\Radiophobia-main\glad.c
;	COMDAT load_GL_VERSION_2_0
_TEXT	SEGMENT
load$dead$ = 48
load_GL_VERSION_2_0 PROC				; COMDAT

; 1667 : static void load_GL_VERSION_2_0(GLADloadproc load) {

	sub	rsp, 40					; 00000028H

; 1668 : 	if(!GLAD_GL_VERSION_2_0) return;

	cmp	DWORD PTR GLAD_GL_VERSION_2_0, 0
	je	$LN1@load_GL_VE

; 1669 : 	glad_glBlendEquationSeparate = (PFNGLBLENDEQUATIONSEPARATEPROC)load("glBlendEquationSeparate");

	lea	rcx, OFFSET FLAT:??_C@_0BI@JNHDNJAG@glBlendEquationSeparate@
	call	get_proc

; 1670 : 	glad_glDrawBuffers = (PFNGLDRAWBUFFERSPROC)load("glDrawBuffers");

	lea	rcx, OFFSET FLAT:??_C@_0O@COHJKDBH@glDrawBuffers@
	call	get_proc

; 1671 : 	glad_glStencilOpSeparate = (PFNGLSTENCILOPSEPARATEPROC)load("glStencilOpSeparate");

	lea	rcx, OFFSET FLAT:??_C@_0BE@GAPLDNGF@glStencilOpSeparate@
	mov	QWORD PTR glad_glDrawBuffers, rax
	call	get_proc

; 1672 : 	glad_glStencilFuncSeparate = (PFNGLSTENCILFUNCSEPARATEPROC)load("glStencilFuncSeparate");

	lea	rcx, OFFSET FLAT:??_C@_0BG@FCMNCEIA@glStencilFuncSeparate@
	call	get_proc

; 1673 : 	glad_glStencilMaskSeparate = (PFNGLSTENCILMASKSEPARATEPROC)load("glStencilMaskSeparate");

	lea	rcx, OFFSET FLAT:??_C@_0BG@MMKPIEJI@glStencilMaskSeparate@
	call	get_proc

; 1674 : 	glad_glAttachShader = (PFNGLATTACHSHADERPROC)load("glAttachShader");

	lea	rcx, OFFSET FLAT:??_C@_0P@LDMLEABL@glAttachShader@
	call	get_proc

; 1675 : 	glad_glBindAttribLocation = (PFNGLBINDATTRIBLOCATIONPROC)load("glBindAttribLocation");

	lea	rcx, OFFSET FLAT:??_C@_0BF@MHKEFIHM@glBindAttribLocation@
	mov	QWORD PTR glad_glAttachShader, rax
	call	get_proc

; 1676 : 	glad_glCompileShader = (PFNGLCOMPILESHADERPROC)load("glCompileShader");

	lea	rcx, OFFSET FLAT:??_C@_0BA@DGIEGONF@glCompileShader@
	call	get_proc

; 1677 : 	glad_glCreateProgram = (PFNGLCREATEPROGRAMPROC)load("glCreateProgram");

	lea	rcx, OFFSET FLAT:??_C@_0BA@FLKLHNKP@glCreateProgram@
	mov	QWORD PTR glad_glCompileShader, rax
	call	get_proc

; 1678 : 	glad_glCreateShader = (PFNGLCREATESHADERPROC)load("glCreateShader");

	lea	rcx, OFFSET FLAT:??_C@_0P@HGHBNC@glCreateShader@
	mov	QWORD PTR glad_glCreateProgram, rax
	call	get_proc

; 1679 : 	glad_glDeleteProgram = (PFNGLDELETEPROGRAMPROC)load("glDeleteProgram");

	lea	rcx, OFFSET FLAT:??_C@_0BA@NKGCDOPO@glDeleteProgram@
	mov	QWORD PTR glad_glCreateShader, rax
	call	get_proc

; 1680 : 	glad_glDeleteShader = (PFNGLDELETESHADERPROC)load("glDeleteShader");

	lea	rcx, OFFSET FLAT:??_C@_0P@HHCDONAG@glDeleteShader@
	call	get_proc

; 1681 : 	glad_glDetachShader = (PFNGLDETACHSHADERPROC)load("glDetachShader");

	lea	rcx, OFFSET FLAT:??_C@_0P@DJFJFCJL@glDetachShader@
	mov	QWORD PTR glad_glDeleteShader, rax
	call	get_proc

; 1682 : 	glad_glDisableVertexAttribArray = (PFNGLDISABLEVERTEXATTRIBARRAYPROC)load("glDisableVertexAttribArray");

	lea	rcx, OFFSET FLAT:??_C@_0BL@NKHLOFFF@glDisableVertexAttribArray@
	call	get_proc

; 1683 : 	glad_glEnableVertexAttribArray = (PFNGLENABLEVERTEXATTRIBARRAYPROC)load("glEnableVertexAttribArray");

	lea	rcx, OFFSET FLAT:??_C@_0BK@EHBAHNHE@glEnableVertexAttribArray@
	call	get_proc

; 1684 : 	glad_glGetActiveAttrib = (PFNGLGETACTIVEATTRIBPROC)load("glGetActiveAttrib");

	lea	rcx, OFFSET FLAT:??_C@_0BC@MBALAOHF@glGetActiveAttrib@
	mov	QWORD PTR glad_glEnableVertexAttribArray, rax
	call	get_proc

; 1685 : 	glad_glGetActiveUniform = (PFNGLGETACTIVEUNIFORMPROC)load("glGetActiveUniform");

	lea	rcx, OFFSET FLAT:??_C@_0BD@NIMHLLKN@glGetActiveUniform@
	call	get_proc

; 1686 : 	glad_glGetAttachedShaders = (PFNGLGETATTACHEDSHADERSPROC)load("glGetAttachedShaders");

	lea	rcx, OFFSET FLAT:??_C@_0BF@GHMDGFEM@glGetAttachedShaders@
	call	get_proc

; 1687 : 	glad_glGetAttribLocation = (PFNGLGETATTRIBLOCATIONPROC)load("glGetAttribLocation");

	lea	rcx, OFFSET FLAT:??_C@_0BE@BEPGJDMM@glGetAttribLocation@
	call	get_proc

; 1688 : 	glad_glGetProgramiv = (PFNGLGETPROGRAMIVPROC)load("glGetProgramiv");

	lea	rcx, OFFSET FLAT:??_C@_0P@FMMDFLCO@glGetProgramiv@
	call	get_proc

; 1689 : 	glad_glGetProgramInfoLog = (PFNGLGETPROGRAMINFOLOGPROC)load("glGetProgramInfoLog");

	lea	rcx, OFFSET FLAT:??_C@_0BE@DHGHAJFL@glGetProgramInfoLog@
	mov	QWORD PTR glad_glGetProgramiv, rax
	call	get_proc

; 1690 : 	glad_glGetShaderiv = (PFNGLGETSHADERIVPROC)load("glGetShaderiv");

	lea	rcx, OFFSET FLAT:??_C@_0O@JBDFPDMG@glGetShaderiv@
	mov	QWORD PTR glad_glGetProgramInfoLog, rax
	call	get_proc

; 1691 : 	glad_glGetShaderInfoLog = (PFNGLGETSHADERINFOLOGPROC)load("glGetShaderInfoLog");

	lea	rcx, OFFSET FLAT:??_C@_0BD@GIABBCMO@glGetShaderInfoLog@
	mov	QWORD PTR glad_glGetShaderiv, rax
	call	get_proc

; 1692 : 	glad_glGetShaderSource = (PFNGLGETSHADERSOURCEPROC)load("glGetShaderSource");

	lea	rcx, OFFSET FLAT:??_C@_0BC@ELEIFJEL@glGetShaderSource@
	mov	QWORD PTR glad_glGetShaderInfoLog, rax
	call	get_proc

; 1693 : 	glad_glGetUniformLocation = (PFNGLGETUNIFORMLOCATIONPROC)load("glGetUniformLocation");

	lea	rcx, OFFSET FLAT:??_C@_0BF@KIOPGICP@glGetUniformLocation@
	call	get_proc

; 1694 : 	glad_glGetUniformfv = (PFNGLGETUNIFORMFVPROC)load("glGetUniformfv");

	lea	rcx, OFFSET FLAT:??_C@_0P@DFCJIBG@glGetUniformfv@
	mov	QWORD PTR glad_glGetUniformLocation, rax
	call	get_proc

; 1695 : 	glad_glGetUniformiv = (PFNGLGETUNIFORMIVPROC)load("glGetUniformiv");

	lea	rcx, OFFSET FLAT:??_C@_0P@IAONPCL@glGetUniformiv@
	call	get_proc

; 1696 : 	glad_glGetVertexAttribdv = (PFNGLGETVERTEXATTRIBDVPROC)load("glGetVertexAttribdv");

	lea	rcx, OFFSET FLAT:??_C@_0BE@HDPMJMIN@glGetVertexAttribdv@
	call	get_proc

; 1697 : 	glad_glGetVertexAttribfv = (PFNGLGETVERTEXATTRIBFVPROC)load("glGetVertexAttribfv");

	lea	rcx, OFFSET FLAT:??_C@_0BE@HAHIEIOD@glGetVertexAttribfv@
	call	get_proc

; 1698 : 	glad_glGetVertexAttribiv = (PFNGLGETVERTEXATTRIBIVPROC)load("glGetVertexAttribiv");

	lea	rcx, OFFSET FLAT:??_C@_0BE@HLCEAPNO@glGetVertexAttribiv@
	call	get_proc

; 1699 : 	glad_glGetVertexAttribPointerv = (PFNGLGETVERTEXATTRIBPOINTERVPROC)load("glGetVertexAttribPointerv");

	lea	rcx, OFFSET FLAT:??_C@_0BK@DOJMENLD@glGetVertexAttribPointerv@
	call	get_proc

; 1700 : 	glad_glIsProgram = (PFNGLISPROGRAMPROC)load("glIsProgram");

	lea	rcx, OFFSET FLAT:??_C@_0M@INLOJDGO@glIsProgram@
	call	get_proc

; 1701 : 	glad_glIsShader = (PFNGLISSHADERPROC)load("glIsShader");

	lea	rcx, OFFSET FLAT:??_C@_0L@MDDLFIHC@glIsShader@
	call	get_proc

; 1702 : 	glad_glLinkProgram = (PFNGLLINKPROGRAMPROC)load("glLinkProgram");

	lea	rcx, OFFSET FLAT:??_C@_0O@PIOEEBPO@glLinkProgram@
	call	get_proc
	mov	QWORD PTR glad_glLinkProgram, rax

; 1703 : 	glad_glShaderSource = (PFNGLSHADERSOURCEPROC)load("glShaderSource");

	lea	rcx, OFFSET FLAT:??_C@_0P@DFHCPFMO@glShaderSource@
	call	get_proc

; 1704 : 	glad_glUseProgram = (PFNGLUSEPROGRAMPROC)load("glUseProgram");

	lea	rcx, OFFSET FLAT:??_C@_0N@ICBDHBI@glUseProgram@
	mov	QWORD PTR glad_glShaderSource, rax
	call	get_proc

; 1705 : 	glad_glUniform1f = (PFNGLUNIFORM1FPROC)load("glUniform1f");

	lea	rcx, OFFSET FLAT:??_C@_0M@MLICAPOF@glUniform1f@
	mov	QWORD PTR glad_glUseProgram, rax
	call	get_proc

; 1706 : 	glad_glUniform2f = (PFNGLUNIFORM2FPROC)load("glUniform2f");

	lea	rcx, OFFSET FLAT:??_C@_0M@MJMELBLM@glUniform2f@
	mov	QWORD PTR glad_glUniform1f, rax
	call	get_proc

; 1707 : 	glad_glUniform3f = (PFNGLUNIFORM3FPROC)load("glUniform3f");

	lea	rcx, OFFSET FLAT:??_C@_0M@MIAGNLIL@glUniform3f@
	mov	QWORD PTR glad_glUniform2f, rax
	call	get_proc

; 1708 : 	glad_glUniform4f = (PFNGLUNIFORM4FPROC)load("glUniform4f");

	lea	rcx, OFFSET FLAT:??_C@_0M@MNEJMNAO@glUniform4f@
	mov	QWORD PTR glad_glUniform3f, rax
	call	get_proc

; 1709 : 	glad_glUniform1i = (PFNGLUNIFORM1IPROC)load("glUniform1i");

	lea	rcx, OFFSET FLAT:??_C@_0M@EMBKBDCK@glUniform1i@
	mov	QWORD PTR glad_glUniform4f, rax
	call	get_proc

; 1710 : 	glad_glUniform2i = (PFNGLUNIFORM2IPROC)load("glUniform2i");

	lea	rcx, OFFSET FLAT:??_C@_0M@EOFMKNHD@glUniform2i@
	mov	QWORD PTR glad_glUniform1i, rax
	call	get_proc

; 1711 : 	glad_glUniform3i = (PFNGLUNIFORM3IPROC)load("glUniform3i");

	lea	rcx, OFFSET FLAT:??_C@_0M@EPJOMHEE@glUniform3i@
	call	get_proc

; 1712 : 	glad_glUniform4i = (PFNGLUNIFORM4IPROC)load("glUniform4i");

	lea	rcx, OFFSET FLAT:??_C@_0M@EKNBNBMB@glUniform4i@
	call	get_proc

; 1713 : 	glad_glUniform1fv = (PFNGLUNIFORM1FVPROC)load("glUniform1fv");

	lea	rcx, OFFSET FLAT:??_C@_0N@KJMOEKII@glUniform1fv@
	call	get_proc

; 1714 : 	glad_glUniform2fv = (PFNGLUNIFORM2FVPROC)load("glUniform2fv");

	lea	rcx, OFFSET FLAT:??_C@_0N@LLHLOFGG@glUniform2fv@
	mov	QWORD PTR glad_glUniform1fv, rax
	call	get_proc

; 1715 : 	glad_glUniform3fv = (PFNGLUNIFORM3FVPROC)load("glUniform3fv");

	lea	rcx, OFFSET FLAT:??_C@_0N@DMHICAD@glUniform3fv@
	mov	QWORD PTR glad_glUniform2fv, rax
	call	get_proc

; 1716 : 	glad_glUniform4fv = (PFNGLUNIFORM4FVPROC)load("glUniform4fv");

	lea	rcx, OFFSET FLAT:??_C@_0N@JOBALKLK@glUniform4fv@
	call	get_proc

; 1717 : 	glad_glUniform1iv = (PFNGLUNIFORM1IVPROC)load("glUniform1iv");

	lea	rcx, OFFSET FLAT:??_C@_0N@KCJCANLF@glUniform1iv@
	mov	QWORD PTR glad_glUniform4fv, rax
	call	get_proc

; 1718 : 	glad_glUniform2iv = (PFNGLUNIFORM2IVPROC)load("glUniform2iv");

	lea	rcx, OFFSET FLAT:??_C@_0N@LACHKCFL@glUniform2iv@
	call	get_proc

; 1719 : 	glad_glUniform3iv = (PFNGLUNIFORM3IVPROC)load("glUniform3iv");

	lea	rcx, OFFSET FLAT:??_C@_0N@IJLMFDO@glUniform3iv@
	call	get_proc

; 1720 : 	glad_glUniform4iv = (PFNGLUNIFORM4IVPROC)load("glUniform4iv");

	lea	rcx, OFFSET FLAT:??_C@_0N@JFEMPNIH@glUniform4iv@
	call	get_proc

; 1721 : 	glad_glUniformMatrix2fv = (PFNGLUNIFORMMATRIX2FVPROC)load("glUniformMatrix2fv");

	lea	rcx, OFFSET FLAT:??_C@_0BD@JIBJELHD@glUniformMatrix2fv@
	call	get_proc

; 1722 : 	glad_glUniformMatrix3fv = (PFNGLUNIFORMMATRIX3FVPROC)load("glUniformMatrix3fv");

	lea	rcx, OFFSET FLAT:??_C@_0BD@CAKFCMBG@glUniformMatrix3fv@
	call	get_proc

; 1723 : 	glad_glUniformMatrix4fv = (PFNGLUNIFORMMATRIX4FVPROC)load("glUniformMatrix4fv");

	lea	rcx, OFFSET FLAT:??_C@_0BD@LNHCBEKP@glUniformMatrix4fv@
	call	get_proc

; 1724 : 	glad_glValidateProgram = (PFNGLVALIDATEPROGRAMPROC)load("glValidateProgram");

	lea	rcx, OFFSET FLAT:??_C@_0BC@MAPGDLJK@glValidateProgram@
	mov	QWORD PTR glad_glUniformMatrix4fv, rax
	call	get_proc

; 1725 : 	glad_glVertexAttrib1d = (PFNGLVERTEXATTRIB1DPROC)load("glVertexAttrib1d");

	lea	rcx, OFFSET FLAT:??_C@_0BB@PIOLPNPC@glVertexAttrib1d@
	call	get_proc

; 1726 : 	glad_glVertexAttrib1dv = (PFNGLVERTEXATTRIB1DVPROC)load("glVertexAttrib1dv");

	lea	rcx, OFFSET FLAT:??_C@_0BC@CKCOKGLN@glVertexAttrib1dv@
	call	get_proc

; 1727 : 	glad_glVertexAttrib1f = (PFNGLVERTEXATTRIB1FPROC)load("glVertexAttrib1f");

	lea	rcx, OFFSET FLAT:??_C@_0BB@MKNNJPHA@glVertexAttrib1f@
	call	get_proc

; 1728 : 	glad_glVertexAttrib1fv = (PFNGLVERTEXATTRIB1FVPROC)load("glVertexAttrib1fv");

	lea	rcx, OFFSET FLAT:??_C@_0BC@CJKKHCND@glVertexAttrib1fv@
	call	get_proc

; 1729 : 	glad_glVertexAttrib1s = (PFNGLVERTEXATTRIB1SPROC)load("glVertexAttrib1s");

	lea	rcx, OFFSET FLAT:??_C@_0BB@PNGIHJGE@glVertexAttrib1s@
	call	get_proc

; 1730 : 	glad_glVertexAttrib1sv = (PFNGLVERTEXATTRIB1SVPROC)load("glVertexAttrib1sv");

	lea	rcx, OFFSET FLAT:??_C@_0BC@DDEHBDEI@glVertexAttrib1sv@
	call	get_proc

; 1731 : 	glad_glVertexAttrib2d = (PFNGLVERTEXATTRIB2DPROC)load("glVertexAttrib2d");

	lea	rcx, OFFSET FLAT:??_C@_0BB@PKKNEDKL@glVertexAttrib2d@
	call	get_proc

; 1732 : 	glad_glVertexAttrib2dv = (PFNGLVERTEXATTRIB2DVPROC)load("glVertexAttrib2dv");

	lea	rcx, OFFSET FLAT:??_C@_0BC@DIJLAJFD@glVertexAttrib2dv@
	call	get_proc

; 1733 : 	glad_glVertexAttrib2f = (PFNGLVERTEXATTRIB2FPROC)load("glVertexAttrib2f");

	lea	rcx, OFFSET FLAT:??_C@_0BB@MIJLCBCJ@glVertexAttrib2f@
	call	get_proc

; 1734 : 	glad_glVertexAttrib2fv = (PFNGLVERTEXATTRIB2FVPROC)load("glVertexAttrib2fv");

	lea	rcx, OFFSET FLAT:??_C@_0BC@DLBPNNDN@glVertexAttrib2fv@
	call	get_proc

; 1735 : 	glad_glVertexAttrib2s = (PFNGLVERTEXATTRIB2SPROC)load("glVertexAttrib2s");

	lea	rcx, OFFSET FLAT:??_C@_0BB@PPCOMHDN@glVertexAttrib2s@
	call	get_proc

; 1736 : 	glad_glVertexAttrib2sv = (PFNGLVERTEXATTRIB2SVPROC)load("glVertexAttrib2sv");

	lea	rcx, OFFSET FLAT:??_C@_0BC@CBPCLMKG@glVertexAttrib2sv@
	call	get_proc

; 1737 : 	glad_glVertexAttrib3d = (PFNGLVERTEXATTRIB3DPROC)load("glVertexAttrib3d");

	lea	rcx, OFFSET FLAT:??_C@_0BB@PLGPCJJM@glVertexAttrib3d@
	call	get_proc

; 1738 : 	glad_glVertexAttrib3dv = (PFNGLVERTEXATTRIB3DVPROC)load("glVertexAttrib3dv");

	lea	rcx, OFFSET FLAT:??_C@_0BC@IACHGODG@glVertexAttrib3dv@
	call	get_proc

; 1739 : 	glad_glVertexAttrib3f = (PFNGLVERTEXATTRIB3FPROC)load("glVertexAttrib3f");

	lea	rcx, OFFSET FLAT:??_C@_0BB@MJFJELBO@glVertexAttrib3f@
	call	get_proc

; 1740 : 	glad_glVertexAttrib3fv = (PFNGLVERTEXATTRIB3FVPROC)load("glVertexAttrib3fv");

	lea	rcx, OFFSET FLAT:??_C@_0BC@IDKDLKFI@glVertexAttrib3fv@
	call	get_proc

; 1741 : 	glad_glVertexAttrib3s = (PFNGLVERTEXATTRIB3SPROC)load("glVertexAttrib3s");

	lea	rcx, OFFSET FLAT:??_C@_0BB@POOMKNAK@glVertexAttrib3s@
	call	get_proc

; 1742 : 	glad_glVertexAttrib3sv = (PFNGLVERTEXATTRIB3SVPROC)load("glVertexAttrib3sv");

	lea	rcx, OFFSET FLAT:??_C@_0BC@JJEONLMD@glVertexAttrib3sv@
	call	get_proc

; 1743 : 	glad_glVertexAttrib4Nbv = (PFNGLVERTEXATTRIB4NBVPROC)load("glVertexAttrib4Nbv");

	lea	rcx, OFFSET FLAT:??_C@_0BD@NANPPEGB@glVertexAttrib4Nbv@
	call	get_proc

; 1744 : 	glad_glVertexAttrib4Niv = (PFNGLVERTEXATTRIB4NIVPROC)load("glVertexAttrib4Niv");

	lea	rcx, OFFSET FLAT:??_C@_0BD@NMIKBLIA@glVertexAttrib4Niv@
	call	get_proc

; 1745 : 	glad_glVertexAttrib4Nsv = (PFNGLVERTEXATTRIB4NSVPROC)load("glVertexAttrib4Nsv");

	lea	rcx, OFFSET FLAT:??_C@_0BD@MNDLDNCG@glVertexAttrib4Nsv@
	call	get_proc

; 1746 : 	glad_glVertexAttrib4Nub = (PFNGLVERTEXATTRIB4NUBPROC)load("glVertexAttrib4Nub");

	lea	rcx, OFFSET FLAT:??_C@_0BD@OHBIJGMB@glVertexAttrib4Nub@
	call	get_proc

; 1747 : 	glad_glVertexAttrib4Nubv = (PFNGLVERTEXATTRIB4NUBVPROC)load("glVertexAttrib4Nubv");

	lea	rcx, OFFSET FLAT:??_C@_0BE@JFOBDEMA@glVertexAttrib4Nubv@
	call	get_proc

; 1748 : 	glad_glVertexAttrib4Nuiv = (PFNGLVERTEXATTRIB4NUIVPROC)load("glVertexAttrib4Nuiv");

	lea	rcx, OFFSET FLAT:??_C@_0BE@JJLENLCB@glVertexAttrib4Nuiv@
	call	get_proc

; 1749 : 	glad_glVertexAttrib4Nusv = (PFNGLVERTEXATTRIB4NUSVPROC)load("glVertexAttrib4Nusv");

	lea	rcx, OFFSET FLAT:??_C@_0BE@IIAFPNIH@glVertexAttrib4Nusv@
	call	get_proc

; 1750 : 	glad_glVertexAttrib4bv = (PFNGLVERTEXATTRIB4BVPROC)load("glVertexAttrib4bv");

	lea	rcx, OFFSET FLAT:??_C@_0BC@BJHNCKDN@glVertexAttrib4bv@
	call	get_proc

; 1751 : 	glad_glVertexAttrib4d = (PFNGLVERTEXATTRIB4DPROC)load("glVertexAttrib4d");

	lea	rcx, OFFSET FLAT:??_C@_0BB@POCADPBJ@glVertexAttrib4d@
	call	get_proc

; 1752 : 	glad_glVertexAttrib4dv = (PFNGLVERTEXATTRIB4DVPROC)load("glVertexAttrib4dv");

	lea	rcx, OFFSET FLAT:??_C@_0BC@BNPAFGIP@glVertexAttrib4dv@
	call	get_proc

; 1753 : 	glad_glVertexAttrib4f = (PFNGLVERTEXATTRIB4FPROC)load("glVertexAttrib4f");

	lea	rcx, OFFSET FLAT:??_C@_0BB@MMBGFNJL@glVertexAttrib4f@
	call	get_proc

; 1754 : 	glad_glVertexAttrib4fv = (PFNGLVERTEXATTRIB4FVPROC)load("glVertexAttrib4fv");

	lea	rcx, OFFSET FLAT:??_C@_0BC@BOHEICOB@glVertexAttrib4fv@
	call	get_proc

; 1755 : 	glad_glVertexAttrib4iv = (PFNGLVERTEXATTRIB4IVPROC)load("glVertexAttrib4iv");

	lea	rcx, OFFSET FLAT:??_C@_0BC@BFCIMFNM@glVertexAttrib4iv@
	call	get_proc

; 1756 : 	glad_glVertexAttrib4s = (PFNGLVERTEXATTRIB4SPROC)load("glVertexAttrib4s");

	lea	rcx, OFFSET FLAT:??_C@_0BB@PLKDLLIP@glVertexAttrib4s@
	call	get_proc

; 1757 : 	glad_glVertexAttrib4sv = (PFNGLVERTEXATTRIB4SVPROC)load("glVertexAttrib4sv");

	lea	rcx, OFFSET FLAT:??_C@_0BC@EJJODHK@glVertexAttrib4sv@
	call	get_proc

; 1758 : 	glad_glVertexAttrib4ubv = (PFNGLVERTEXATTRIB4UBVPROC)load("glVertexAttrib4ubv");

	lea	rcx, OFFSET FLAT:??_C@_0BD@PHPFILMB@glVertexAttrib4ubv@
	call	get_proc

; 1759 : 	glad_glVertexAttrib4uiv = (PFNGLVERTEXATTRIB4UIVPROC)load("glVertexAttrib4uiv");

	lea	rcx, OFFSET FLAT:??_C@_0BD@PLKAGECA@glVertexAttrib4uiv@
	call	get_proc

; 1760 : 	glad_glVertexAttrib4usv = (PFNGLVERTEXATTRIB4USVPROC)load("glVertexAttrib4usv");

	lea	rcx, OFFSET FLAT:??_C@_0BD@OKBBECIG@glVertexAttrib4usv@
	call	get_proc

; 1761 : 	glad_glVertexAttribPointer = (PFNGLVERTEXATTRIBPOINTERPROC)load("glVertexAttribPointer");

	lea	rcx, OFFSET FLAT:??_C@_0BG@JPNNNPKG@glVertexAttribPointer@
	call	get_proc
	mov	QWORD PTR glad_glVertexAttribPointer, rax
$LN1@load_GL_VE:

; 1762 : }

	add	rsp, 40					; 00000028H
	ret	0
load_GL_VERSION_2_0 ENDP
_TEXT	ENDS
; Function compile flags: /Ogtpy
; File C:\Radiophobia\Radiophobia-main\glad.c
;	COMDAT load_GL_VERSION_2_1
_TEXT	SEGMENT
load$dead$ = 48
load_GL_VERSION_2_1 PROC				; COMDAT

; 1763 : static void load_GL_VERSION_2_1(GLADloadproc load) {

	sub	rsp, 40					; 00000028H

; 1764 : 	if(!GLAD_GL_VERSION_2_1) return;

	cmp	DWORD PTR GLAD_GL_VERSION_2_1, 0
	je	SHORT $LN1@load_GL_VE

; 1765 : 	glad_glUniformMatrix2x3fv = (PFNGLUNIFORMMATRIX2X3FVPROC)load("glUniformMatrix2x3fv");

	lea	rcx, OFFSET FLAT:??_C@_0BF@KDDJMCDK@glUniformMatrix2x3fv@
	call	get_proc

; 1766 : 	glad_glUniformMatrix3x2fv = (PFNGLUNIFORMMATRIX3X2FVPROC)load("glUniformMatrix3x2fv");

	lea	rcx, OFFSET FLAT:??_C@_0BF@NANJHGPK@glUniformMatrix3x2fv@
	call	get_proc

; 1767 : 	glad_glUniformMatrix2x4fv = (PFNGLUNIFORMMATRIX2X4FVPROC)load("glUniformMatrix2x4fv");

	lea	rcx, OFFSET FLAT:??_C@_0BF@DOOOPKID@glUniformMatrix2x4fv@
	call	get_proc

; 1768 : 	glad_glUniformMatrix4x2fv = (PFNGLUNIFORMMATRIX4X2FVPROC)load("glUniformMatrix4x2fv");

	lea	rcx, OFFSET FLAT:??_C@_0BF@MNNMEGEC@glUniformMatrix4x2fv@
	call	get_proc

; 1769 : 	glad_glUniformMatrix3x4fv = (PFNGLUNIFORMMATRIX3X4FVPROC)load("glUniformMatrix3x4fv");

	lea	rcx, OFFSET FLAT:??_C@_0BF@PFLCCJCG@glUniformMatrix3x4fv@
	call	get_proc

; 1770 : 	glad_glUniformMatrix4x3fv = (PFNGLUNIFORMMATRIX4X3FVPROC)load("glUniformMatrix4x3fv");

	lea	rcx, OFFSET FLAT:??_C@_0BF@HFGACBCH@glUniformMatrix4x3fv@

; 1771 : }

	add	rsp, 40					; 00000028H

; 1770 : 	glad_glUniformMatrix4x3fv = (PFNGLUNIFORMMATRIX4X3FVPROC)load("glUniformMatrix4x3fv");

	jmp	get_proc
$LN1@load_GL_VE:

; 1771 : }

	add	rsp, 40					; 00000028H
	ret	0
load_GL_VERSION_2_1 ENDP
_TEXT	ENDS
; Function compile flags: /Ogtpy
; File C:\Radiophobia\Radiophobia-main\glad.c
;	COMDAT load_GL_VERSION_3_0
_TEXT	SEGMENT
load$dead$ = 48
load_GL_VERSION_3_0 PROC				; COMDAT

; 1772 : static void load_GL_VERSION_3_0(GLADloadproc load) {

	sub	rsp, 40					; 00000028H

; 1773 : 	if(!GLAD_GL_VERSION_3_0) return;

	cmp	DWORD PTR GLAD_GL_VERSION_3_0, 0
	je	$LN1@load_GL_VE

; 1774 : 	glad_glColorMaski = (PFNGLCOLORMASKIPROC)load("glColorMaski");

	lea	rcx, OFFSET FLAT:??_C@_0N@JHNNNJFG@glColorMaski@
	call	get_proc

; 1775 : 	glad_glGetBooleani_v = (PFNGLGETBOOLEANI_VPROC)load("glGetBooleani_v");

	lea	rcx, OFFSET FLAT:??_C@_0BA@OAKNOBP@glGetBooleani_v@
	call	get_proc

; 1776 : 	glad_glGetIntegeri_v = (PFNGLGETINTEGERI_VPROC)load("glGetIntegeri_v");

	lea	rcx, OFFSET FLAT:??_C@_0BA@FKCNNMFO@glGetIntegeri_v@
	call	get_proc

; 1777 : 	glad_glEnablei = (PFNGLENABLEIPROC)load("glEnablei");

	lea	rcx, OFFSET FLAT:??_C@_09IEGEGIEN@glEnablei@
	call	get_proc

; 1778 : 	glad_glDisablei = (PFNGLDISABLEIPROC)load("glDisablei");

	lea	rcx, OFFSET FLAT:??_C@_0L@BMJPGDDH@glDisablei@
	call	get_proc

; 1779 : 	glad_glIsEnabledi = (PFNGLISENABLEDIPROC)load("glIsEnabledi");

	lea	rcx, OFFSET FLAT:??_C@_0N@IMGKGOKN@glIsEnabledi@
	call	get_proc

; 1780 : 	glad_glBeginTransformFeedback = (PFNGLBEGINTRANSFORMFEEDBACKPROC)load("glBeginTransformFeedback");

	lea	rcx, OFFSET FLAT:??_C@_0BJ@FHJKOECC@glBeginTransformFeedback@
	call	get_proc

; 1781 : 	glad_glEndTransformFeedback = (PFNGLENDTRANSFORMFEEDBACKPROC)load("glEndTransformFeedback");

	lea	rcx, OFFSET FLAT:??_C@_0BH@LCFLNNBH@glEndTransformFeedback@
	call	get_proc

; 1782 : 	glad_glBindBufferRange = (PFNGLBINDBUFFERRANGEPROC)load("glBindBufferRange");

	lea	rcx, OFFSET FLAT:??_C@_0BC@EEMMCHMB@glBindBufferRange@
	call	get_proc

; 1783 : 	glad_glBindBufferBase = (PFNGLBINDBUFFERBASEPROC)load("glBindBufferBase");

	lea	rcx, OFFSET FLAT:??_C@_0BB@LDPKOCJI@glBindBufferBase@
	call	get_proc

; 1784 : 	glad_glTransformFeedbackVaryings = (PFNGLTRANSFORMFEEDBACKVARYINGSPROC)load("glTransformFeedbackVaryings");

	lea	rcx, OFFSET FLAT:??_C@_0BM@IJFAKBEF@glTransformFeedbackVaryings@
	call	get_proc

; 1785 : 	glad_glGetTransformFeedbackVarying = (PFNGLGETTRANSFORMFEEDBACKVARYINGPROC)load("glGetTransformFeedbackVarying");

	lea	rcx, OFFSET FLAT:??_C@_0BO@ODFLPNG@glGetTransformFeedbackVarying@
	call	get_proc

; 1786 : 	glad_glClampColor = (PFNGLCLAMPCOLORPROC)load("glClampColor");

	lea	rcx, OFFSET FLAT:??_C@_0N@HLGAGIMI@glClampColor@
	call	get_proc

; 1787 : 	glad_glBeginConditionalRender = (PFNGLBEGINCONDITIONALRENDERPROC)load("glBeginConditionalRender");

	lea	rcx, OFFSET FLAT:??_C@_0BJ@EHEPIEPF@glBeginConditionalRender@
	call	get_proc

; 1788 : 	glad_glEndConditionalRender = (PFNGLENDCONDITIONALRENDERPROC)load("glEndConditionalRender");

	lea	rcx, OFFSET FLAT:??_C@_0BH@KCIOLNMA@glEndConditionalRender@
	call	get_proc

; 1789 : 	glad_glVertexAttribIPointer = (PFNGLVERTEXATTRIBIPOINTERPROC)load("glVertexAttribIPointer");

	lea	rcx, OFFSET FLAT:??_C@_0BH@NLOEHKCD@glVertexAttribIPointer@
	call	get_proc

; 1790 : 	glad_glGetVertexAttribIiv = (PFNGLGETVERTEXATTRIBIIVPROC)load("glGetVertexAttribIiv");

	lea	rcx, OFFSET FLAT:??_C@_0BF@KPDNEONP@glGetVertexAttribIiv@
	mov	QWORD PTR glad_glVertexAttribIPointer, rax
	call	get_proc

; 1791 : 	glad_glGetVertexAttribIuiv = (PFNGLGETVERTEXATTRIBIUIVPROC)load("glGetVertexAttribIuiv");

	lea	rcx, OFFSET FLAT:??_C@_0BG@GCBDCABB@glGetVertexAttribIuiv@
	call	get_proc

; 1792 : 	glad_glVertexAttribI1i = (PFNGLVERTEXATTRIBI1IPROC)load("glVertexAttribI1i");

	lea	rcx, OFFSET FLAT:??_C@_0BC@CDIIMMAL@glVertexAttribI1i@
	call	get_proc

; 1793 : 	glad_glVertexAttribI2i = (PFNGLVERTEXATTRIBI2IPROC)load("glVertexAttribI2i");

	lea	rcx, OFFSET FLAT:??_C@_0BC@CBMOHCFC@glVertexAttribI2i@
	call	get_proc

; 1794 : 	glad_glVertexAttribI3i = (PFNGLVERTEXATTRIBI3IPROC)load("glVertexAttribI3i");

	lea	rcx, OFFSET FLAT:??_C@_0BC@CAAMBIGF@glVertexAttribI3i@
	call	get_proc

; 1795 : 	glad_glVertexAttribI4i = (PFNGLVERTEXATTRIBI4IPROC)load("glVertexAttribI4i");

	lea	rcx, OFFSET FLAT:??_C@_0BC@CFEDAOOA@glVertexAttribI4i@
	call	get_proc

; 1796 : 	glad_glVertexAttribI1ui = (PFNGLVERTEXATTRIBI1UIPROC)load("glVertexAttribI1ui");

	lea	rcx, OFFSET FLAT:??_C@_0BD@DGPCNLLO@glVertexAttribI1ui@
	call	get_proc

; 1797 : 	glad_glVertexAttribI2ui = (PFNGLVERTEXATTRIBI2UIPROC)load("glVertexAttribI2ui");

	lea	rcx, OFFSET FLAT:??_C@_0BD@CEEHHEFA@glVertexAttribI2ui@
	call	get_proc

; 1798 : 	glad_glVertexAttribI3ui = (PFNGLVERTEXATTRIBI3UIPROC)load("glVertexAttribI3ui");

	lea	rcx, OFFSET FLAT:??_C@_0BD@JMPLBDDF@glVertexAttribI3ui@
	call	get_proc

; 1799 : 	glad_glVertexAttribI4ui = (PFNGLVERTEXATTRIBI4UIPROC)load("glVertexAttribI4ui");

	lea	rcx, OFFSET FLAT:??_C@_0BD@BCMCLIM@glVertexAttribI4ui@
	call	get_proc

; 1800 : 	glad_glVertexAttribI1iv = (PFNGLVERTEXATTRIBI1IVPROC)load("glVertexAttribI1iv");

	lea	rcx, OFFSET FLAT:??_C@_0BD@OOJEIPDE@glVertexAttribI1iv@
	call	get_proc

; 1801 : 	glad_glVertexAttribI2iv = (PFNGLVERTEXATTRIBI2IVPROC)load("glVertexAttribI2iv");

	lea	rcx, OFFSET FLAT:??_C@_0BD@PMCBCANK@glVertexAttribI2iv@
	call	get_proc

; 1802 : 	glad_glVertexAttribI3iv = (PFNGLVERTEXATTRIBI3IVPROC)load("glVertexAttribI3iv");

	lea	rcx, OFFSET FLAT:??_C@_0BD@EEJNEHLP@glVertexAttribI3iv@
	call	get_proc

; 1803 : 	glad_glVertexAttribI4iv = (PFNGLVERTEXATTRIBI4IVPROC)load("glVertexAttribI4iv");

	lea	rcx, OFFSET FLAT:??_C@_0BD@NJEKHPAG@glVertexAttribI4iv@
	call	get_proc

; 1804 : 	glad_glVertexAttribI1uiv = (PFNGLVERTEXATTRIBI1UIVPROC)load("glVertexAttribI1uiv");

	lea	rcx, OFFSET FLAT:??_C@_0BE@FFIKLCCA@glVertexAttribI1uiv@
	call	get_proc

; 1805 : 	glad_glVertexAttribI2uiv = (PFNGLVERTEXATTRIBI2UIVPROC)load("glVertexAttribI2uiv");

	lea	rcx, OFFSET FLAT:??_C@_0BE@BCCKMIPA@glVertexAttribI2uiv@
	call	get_proc

; 1806 : 	glad_glVertexAttribI3uiv = (PFNGLVERTEXATTRIBI3UIVPROC)load("glVertexAttribI3uiv");

	lea	rcx, OFFSET FLAT:??_C@_0BE@CPEKOBEA@glVertexAttribI3uiv@
	call	get_proc

; 1807 : 	glad_glVertexAttribI4uiv = (PFNGLVERTEXATTRIBI4UIVPROC)load("glVertexAttribI4uiv");

	lea	rcx, OFFSET FLAT:??_C@_0BE@JNGKDNFA@glVertexAttribI4uiv@
	call	get_proc

; 1808 : 	glad_glVertexAttribI4bv = (PFNGLVERTEXATTRIBI4BVPROC)load("glVertexAttribI4bv");

	lea	rcx, OFFSET FLAT:??_C@_0BD@NFBPJAOH@glVertexAttribI4bv@
	call	get_proc

; 1809 : 	glad_glVertexAttribI4sv = (PFNGLVERTEXATTRIBI4SVPROC)load("glVertexAttribI4sv");

	lea	rcx, OFFSET FLAT:??_C@_0BD@MIPLFJKA@glVertexAttribI4sv@
	call	get_proc

; 1810 : 	glad_glVertexAttribI4ubv = (PFNGLVERTEXATTRIBI4UBVPROC)load("glVertexAttribI4ubv");

	lea	rcx, OFFSET FLAT:??_C@_0BE@JBDPNCLB@glVertexAttribI4ubv@
	call	get_proc

; 1811 : 	glad_glVertexAttribI4usv = (PFNGLVERTEXATTRIBI4USVPROC)load("glVertexAttribI4usv");

	lea	rcx, OFFSET FLAT:??_C@_0BE@IMNLBLPG@glVertexAttribI4usv@
	call	get_proc

; 1812 : 	glad_glGetUniformuiv = (PFNGLGETUNIFORMUIVPROC)load("glGetUniformuiv");

	lea	rcx, OFFSET FLAT:??_C@_0BA@NIGECFIF@glGetUniformuiv@
	call	get_proc

; 1813 : 	glad_glBindFragDataLocation = (PFNGLBINDFRAGDATALOCATIONPROC)load("glBindFragDataLocation");

	lea	rcx, OFFSET FLAT:??_C@_0BH@DLJLAGBA@glBindFragDataLocation@
	call	get_proc

; 1814 : 	glad_glGetFragDataLocation = (PFNGLGETFRAGDATALOCATIONPROC)load("glGetFragDataLocation");

	lea	rcx, OFFSET FLAT:??_C@_0BG@NDOIGAMC@glGetFragDataLocation@
	call	get_proc

; 1815 : 	glad_glUniform1ui = (PFNGLUNIFORM1UIPROC)load("glUniform1ui");

	lea	rcx, OFFSET FLAT:??_C@_0N@HKPEFJDP@glUniform1ui@
	call	get_proc

; 1816 : 	glad_glUniform2ui = (PFNGLUNIFORM2UIPROC)load("glUniform2ui");

	lea	rcx, OFFSET FLAT:??_C@_0N@GIEBPGNB@glUniform2ui@
	call	get_proc

; 1817 : 	glad_glUniform3ui = (PFNGLUNIFORM3UIPROC)load("glUniform3ui");

	lea	rcx, OFFSET FLAT:??_C@_0N@NAPNJBLE@glUniform3ui@
	call	get_proc

; 1818 : 	glad_glUniform4ui = (PFNGLUNIFORM4UIPROC)load("glUniform4ui");

	lea	rcx, OFFSET FLAT:??_C@_0N@ENCKKJAN@glUniform4ui@
	call	get_proc

; 1819 : 	glad_glUniform1uiv = (PFNGLUNIFORM1UIVPROC)load("glUniform1uiv");

	lea	rcx, OFFSET FLAT:??_C@_0O@MPHJAHBE@glUniform1uiv@
	call	get_proc

; 1820 : 	glad_glUniform2uiv = (PFNGLUNIFORM2UIVPROC)load("glUniform2uiv");

	lea	rcx, OFFSET FLAT:??_C@_0O@IINJHNME@glUniform2uiv@
	mov	QWORD PTR glad_glUniform1uiv, rax
	call	get_proc

; 1821 : 	glad_glUniform3uiv = (PFNGLUNIFORM3UIVPROC)load("glUniform3uiv");

	lea	rcx, OFFSET FLAT:??_C@_0O@LFLJFEHE@glUniform3uiv@
	call	get_proc

; 1822 : 	glad_glUniform4uiv = (PFNGLUNIFORM4UIVPROC)load("glUniform4uiv");

	lea	rcx, OFFSET FLAT:??_C@_0O@HJJIIGE@glUniform4uiv@
	call	get_proc

; 1823 : 	glad_glTexParameterIiv = (PFNGLTEXPARAMETERIIVPROC)load("glTexParameterIiv");

	lea	rcx, OFFSET FLAT:??_C@_0BC@MAFJKEHB@glTexParameterIiv@
	call	get_proc

; 1824 : 	glad_glTexParameterIuiv = (PFNGLTEXPARAMETERIUIVPROC)load("glTexParameterIuiv");

	lea	rcx, OFFSET FLAT:??_C@_0BD@FDBCMKBE@glTexParameterIuiv@
	call	get_proc

; 1825 : 	glad_glGetTexParameterIiv = (PFNGLGETTEXPARAMETERIIVPROC)load("glGetTexParameterIiv");

	lea	rcx, OFFSET FLAT:??_C@_0BF@ODBJFHDD@glGetTexParameterIiv@
	call	get_proc

; 1826 : 	glad_glGetTexParameterIuiv = (PFNGLGETTEXPARAMETERIUIVPROC)load("glGetTexParameterIuiv");

	lea	rcx, OFFSET FLAT:??_C@_0BG@MLODKKFL@glGetTexParameterIuiv@
	call	get_proc

; 1827 : 	glad_glClearBufferiv = (PFNGLCLEARBUFFERIVPROC)load("glClearBufferiv");

	lea	rcx, OFFSET FLAT:??_C@_0BA@CGCJAEIN@glClearBufferiv@
	call	get_proc

; 1828 : 	glad_glClearBufferuiv = (PFNGLCLEARBUFFERUIVPROC)load("glClearBufferuiv");

	lea	rcx, OFFSET FLAT:??_C@_0BB@OHPPAEID@glClearBufferuiv@
	call	get_proc

; 1829 : 	glad_glClearBufferfv = (PFNGLCLEARBUFFERFVPROC)load("glClearBufferfv");

	lea	rcx, OFFSET FLAT:??_C@_0BA@CNHFEDLA@glClearBufferfv@
	call	get_proc

; 1830 : 	glad_glClearBufferfi = (PFNGLCLEARBUFFERFIPROC)load("glClearBufferfi");

	lea	rcx, OFFSET FLAT:??_C@_0BA@OACPENCO@glClearBufferfi@
	call	get_proc

; 1831 : 	glad_glGetStringi = (PFNGLGETSTRINGIPROC)load("glGetStringi");

	lea	rcx, OFFSET FLAT:??_C@_0N@PILJCBOD@glGetStringi@
	call	get_proc

; 1832 : 	glad_glIsRenderbuffer = (PFNGLISRENDERBUFFERPROC)load("glIsRenderbuffer");

	lea	rcx, OFFSET FLAT:??_C@_0BB@DGGHKKOH@glIsRenderbuffer@
	mov	QWORD PTR glad_glGetStringi, rax
	call	get_proc

; 1833 : 	glad_glBindRenderbuffer = (PFNGLBINDRENDERBUFFERPROC)load("glBindRenderbuffer");

	lea	rcx, OFFSET FLAT:??_C@_0BD@EPOPJGFA@glBindRenderbuffer@
	call	get_proc

; 1834 : 	glad_glDeleteRenderbuffers = (PFNGLDELETERENDERBUFFERSPROC)load("glDeleteRenderbuffers");

	lea	rcx, OFFSET FLAT:??_C@_0BG@KKOKEJDE@glDeleteRenderbuffers@
	mov	QWORD PTR glad_glBindRenderbuffer, rax
	call	get_proc

; 1835 : 	glad_glGenRenderbuffers = (PFNGLGENRENDERBUFFERSPROC)load("glGenRenderbuffers");

	lea	rcx, OFFSET FLAT:??_C@_0BD@MIGEDNGJ@glGenRenderbuffers@
	mov	QWORD PTR glad_glDeleteRenderbuffers, rax
	call	get_proc

; 1836 : 	glad_glRenderbufferStorage = (PFNGLRENDERBUFFERSTORAGEPROC)load("glRenderbufferStorage");

	lea	rcx, OFFSET FLAT:??_C@_0BG@EOIILGMJ@glRenderbufferStorage@
	mov	QWORD PTR glad_glGenRenderbuffers, rax
	call	get_proc

; 1837 : 	glad_glGetRenderbufferParameteriv = (PFNGLGETRENDERBUFFERPARAMETERIVPROC)load("glGetRenderbufferParameteriv");

	lea	rcx, OFFSET FLAT:??_C@_0BN@FGKAECKO@glGetRenderbufferParameteriv@
	mov	QWORD PTR glad_glRenderbufferStorage, rax
	call	get_proc

; 1838 : 	glad_glIsFramebuffer = (PFNGLISFRAMEBUFFERPROC)load("glIsFramebuffer");

	lea	rcx, OFFSET FLAT:??_C@_0BA@FGBIJCNH@glIsFramebuffer@
	call	get_proc

; 1839 : 	glad_glBindFramebuffer = (PFNGLBINDFRAMEBUFFERPROC)load("glBindFramebuffer");

	lea	rcx, OFFSET FLAT:??_C@_0BC@CJMIBNO@glBindFramebuffer@
	call	get_proc

; 1840 : 	glad_glDeleteFramebuffers = (PFNGLDELETEFRAMEBUFFERSPROC)load("glDeleteFramebuffers");

	lea	rcx, OFFSET FLAT:??_C@_0BF@DJNJENP@glDeleteFramebuffers@
	mov	QWORD PTR glad_glBindFramebuffer, rax
	call	get_proc

; 1841 : 	glad_glGenFramebuffers = (PFNGLGENFRAMEBUFFERSPROC)load("glGenFramebuffers");

	lea	rcx, OFFSET FLAT:??_C@_0BC@FAPEBGID@glGenFramebuffers@
	mov	QWORD PTR glad_glDeleteFramebuffers, rax
	call	get_proc

; 1842 : 	glad_glCheckFramebufferStatus = (PFNGLCHECKFRAMEBUFFERSTATUSPROC)load("glCheckFramebufferStatus");

	lea	rcx, OFFSET FLAT:??_C@_0BJ@GIOLHEAD@glCheckFramebufferStatus@
	mov	QWORD PTR glad_glGenFramebuffers, rax
	call	get_proc

; 1843 : 	glad_glFramebufferTexture1D = (PFNGLFRAMEBUFFERTEXTURE1DPROC)load("glFramebufferTexture1D");

	lea	rcx, OFFSET FLAT:??_C@_0BH@JAMDNNBM@glFramebufferTexture1D@
	mov	QWORD PTR glad_glCheckFramebufferStatus, rax
	call	get_proc

; 1844 : 	glad_glFramebufferTexture2D = (PFNGLFRAMEBUFFERTEXTURE2DPROC)load("glFramebufferTexture2D");

	lea	rcx, OFFSET FLAT:??_C@_0BH@JCIFGDEF@glFramebufferTexture2D@
	call	get_proc

; 1845 : 	glad_glFramebufferTexture3D = (PFNGLFRAMEBUFFERTEXTURE3DPROC)load("glFramebufferTexture3D");

	lea	rcx, OFFSET FLAT:??_C@_0BH@JDEHAJHC@glFramebufferTexture3D@
	mov	QWORD PTR glad_glFramebufferTexture2D, rax
	call	get_proc

; 1846 : 	glad_glFramebufferRenderbuffer = (PFNGLFRAMEBUFFERRENDERBUFFERPROC)load("glFramebufferRenderbuffer");

	lea	rcx, OFFSET FLAT:??_C@_0BK@OJDINAOA@glFramebufferRenderbuffer@
	call	get_proc

; 1847 : 	glad_glGetFramebufferAttachmentParameteriv = (PFNGLGETFRAMEBUFFERATTACHMENTPARAMETERIVPROC)load("glGetFramebufferAttachmentParameteriv");

	lea	rcx, OFFSET FLAT:??_C@_0CG@KLDGJEON@glGetFramebufferAttachmentParam@
	mov	QWORD PTR glad_glFramebufferRenderbuffer, rax
	call	get_proc

; 1848 : 	glad_glGenerateMipmap = (PFNGLGENERATEMIPMAPPROC)load("glGenerateMipmap");

	lea	rcx, OFFSET FLAT:??_C@_0BB@BHNIMGDM@glGenerateMipmap@
	call	get_proc

; 1849 : 	glad_glBlitFramebuffer = (PFNGLBLITFRAMEBUFFERPROC)load("glBlitFramebuffer");

	lea	rcx, OFFSET FLAT:??_C@_0BC@OANBDDEP@glBlitFramebuffer@
	mov	QWORD PTR glad_glGenerateMipmap, rax
	call	get_proc

; 1850 : 	glad_glRenderbufferStorageMultisample = (PFNGLRENDERBUFFERSTORAGEMULTISAMPLEPROC)load("glRenderbufferStorageMultisample");

	lea	rcx, OFFSET FLAT:??_C@_0CB@HNONLGJE@glRenderbufferStorageMultisampl@
	mov	QWORD PTR glad_glBlitFramebuffer, rax
	call	get_proc

; 1851 : 	glad_glFramebufferTextureLayer = (PFNGLFRAMEBUFFERTEXTURELAYERPROC)load("glFramebufferTextureLayer");

	lea	rcx, OFFSET FLAT:??_C@_0BK@NIHIDBBO@glFramebufferTextureLayer@
	call	get_proc

; 1852 : 	glad_glMapBufferRange = (PFNGLMAPBUFFERRANGEPROC)load("glMapBufferRange");

	lea	rcx, OFFSET FLAT:??_C@_0BB@EOHJGBIO@glMapBufferRange@
	call	get_proc

; 1853 : 	glad_glFlushMappedBufferRange = (PFNGLFLUSHMAPPEDBUFFERRANGEPROC)load("glFlushMappedBufferRange");

	lea	rcx, OFFSET FLAT:??_C@_0BJ@NCDMGHKF@glFlushMappedBufferRange@
	call	get_proc

; 1854 : 	glad_glBindVertexArray = (PFNGLBINDVERTEXARRAYPROC)load("glBindVertexArray");

	lea	rcx, OFFSET FLAT:??_C@_0BC@LHBAHFAN@glBindVertexArray@
	call	get_proc

; 1855 : 	glad_glDeleteVertexArrays = (PFNGLDELETEVERTEXARRAYSPROC)load("glDeleteVertexArrays");

	lea	rcx, OFFSET FLAT:??_C@_0BF@BMPCJLEF@glDeleteVertexArrays@
	mov	QWORD PTR glad_glBindVertexArray, rax
	call	get_proc

; 1856 : 	glad_glGenVertexArrays = (PFNGLGENVERTEXARRAYSPROC)load("glGenVertexArrays");

	lea	rcx, OFFSET FLAT:??_C@_0BC@EPJLBJBJ@glGenVertexArrays@
	mov	QWORD PTR glad_glDeleteVertexArrays, rax
	call	get_proc

; 1857 : 	glad_glIsVertexArray = (PFNGLISVERTEXARRAYPROC)load("glIsVertexArray");

	lea	rcx, OFFSET FLAT:??_C@_0BA@ODJEGGAE@glIsVertexArray@
	mov	QWORD PTR glad_glGenVertexArrays, rax

; 1858 : }

	add	rsp, 40					; 00000028H

; 1857 : 	glad_glIsVertexArray = (PFNGLISVERTEXARRAYPROC)load("glIsVertexArray");

	jmp	get_proc
$LN1@load_GL_VE:

; 1858 : }

	add	rsp, 40					; 00000028H
	ret	0
load_GL_VERSION_3_0 ENDP
_TEXT	ENDS
; Function compile flags: /Ogtpy
; File C:\Radiophobia\Radiophobia-main\glad.c
;	COMDAT load_GL_VERSION_3_1
_TEXT	SEGMENT
load$dead$ = 48
load_GL_VERSION_3_1 PROC				; COMDAT

; 1859 : static void load_GL_VERSION_3_1(GLADloadproc load) {

	sub	rsp, 40					; 00000028H

; 1860 : 	if(!GLAD_GL_VERSION_3_1) return;

	cmp	DWORD PTR GLAD_GL_VERSION_3_1, 0
	je	$LN1@load_GL_VE

; 1861 : 	glad_glDrawArraysInstanced = (PFNGLDRAWARRAYSINSTANCEDPROC)load("glDrawArraysInstanced");

	lea	rcx, OFFSET FLAT:??_C@_0BG@HIOFINAN@glDrawArraysInstanced@
	call	get_proc

; 1862 : 	glad_glDrawElementsInstanced = (PFNGLDRAWELEMENTSINSTANCEDPROC)load("glDrawElementsInstanced");

	lea	rcx, OFFSET FLAT:??_C@_0BI@CGJENFBH@glDrawElementsInstanced@
	call	get_proc

; 1863 : 	glad_glTexBuffer = (PFNGLTEXBUFFERPROC)load("glTexBuffer");

	lea	rcx, OFFSET FLAT:??_C@_0M@IIMBBALL@glTexBuffer@
	mov	QWORD PTR glad_glDrawElementsInstanced, rax
	call	get_proc

; 1864 : 	glad_glPrimitiveRestartIndex = (PFNGLPRIMITIVERESTARTINDEXPROC)load("glPrimitiveRestartIndex");

	lea	rcx, OFFSET FLAT:??_C@_0BI@LJDLNGAF@glPrimitiveRestartIndex@
	call	get_proc

; 1865 : 	glad_glCopyBufferSubData = (PFNGLCOPYBUFFERSUBDATAPROC)load("glCopyBufferSubData");

	lea	rcx, OFFSET FLAT:??_C@_0BE@EPKABDOG@glCopyBufferSubData@
	call	get_proc

; 1866 : 	glad_glGetUniformIndices = (PFNGLGETUNIFORMINDICESPROC)load("glGetUniformIndices");

	lea	rcx, OFFSET FLAT:??_C@_0BE@MDPMIDEE@glGetUniformIndices@
	call	get_proc

; 1867 : 	glad_glGetActiveUniformsiv = (PFNGLGETACTIVEUNIFORMSIVPROC)load("glGetActiveUniformsiv");

	lea	rcx, OFFSET FLAT:??_C@_0BG@JEHIMPCG@glGetActiveUniformsiv@
	call	get_proc

; 1868 : 	glad_glGetActiveUniformName = (PFNGLGETACTIVEUNIFORMNAMEPROC)load("glGetActiveUniformName");

	lea	rcx, OFFSET FLAT:??_C@_0BH@EGGFHKJJ@glGetActiveUniformName@
	call	get_proc

; 1869 : 	glad_glGetUniformBlockIndex = (PFNGLGETUNIFORMBLOCKINDEXPROC)load("glGetUniformBlockIndex");

	lea	rcx, OFFSET FLAT:??_C@_0BH@CBDIMHHE@glGetUniformBlockIndex@
	call	get_proc

; 1870 : 	glad_glGetActiveUniformBlockiv = (PFNGLGETACTIVEUNIFORMBLOCKIVPROC)load("glGetActiveUniformBlockiv");

	lea	rcx, OFFSET FLAT:??_C@_0BK@DMHOPJGL@glGetActiveUniformBlockiv@
	call	get_proc

; 1871 : 	glad_glGetActiveUniformBlockName = (PFNGLGETACTIVEUNIFORMBLOCKNAMEPROC)load("glGetActiveUniformBlockName");

	lea	rcx, OFFSET FLAT:??_C@_0BM@KEMCJPAJ@glGetActiveUniformBlockName@
	call	get_proc

; 1872 : 	glad_glUniformBlockBinding = (PFNGLUNIFORMBLOCKBINDINGPROC)load("glUniformBlockBinding");

	lea	rcx, OFFSET FLAT:??_C@_0BG@BOLEKKCP@glUniformBlockBinding@
	call	get_proc

; 1873 : 	glad_glBindBufferRange = (PFNGLBINDBUFFERRANGEPROC)load("glBindBufferRange");

	lea	rcx, OFFSET FLAT:??_C@_0BC@EEMMCHMB@glBindBufferRange@
	call	get_proc

; 1874 : 	glad_glBindBufferBase = (PFNGLBINDBUFFERBASEPROC)load("glBindBufferBase");

	lea	rcx, OFFSET FLAT:??_C@_0BB@LDPKOCJI@glBindBufferBase@
	call	get_proc

; 1875 : 	glad_glGetIntegeri_v = (PFNGLGETINTEGERI_VPROC)load("glGetIntegeri_v");

	lea	rcx, OFFSET FLAT:??_C@_0BA@FKCNNMFO@glGetIntegeri_v@

; 1876 : }

	add	rsp, 40					; 00000028H

; 1875 : 	glad_glGetIntegeri_v = (PFNGLGETINTEGERI_VPROC)load("glGetIntegeri_v");

	jmp	get_proc
$LN1@load_GL_VE:

; 1876 : }

	add	rsp, 40					; 00000028H
	ret	0
load_GL_VERSION_3_1 ENDP
_TEXT	ENDS
; Function compile flags: /Ogtpy
; File C:\Radiophobia\Radiophobia-main\glad.c
;	COMDAT load_GL_VERSION_3_2
_TEXT	SEGMENT
load$dead$ = 48
load_GL_VERSION_3_2 PROC				; COMDAT

; 1877 : static void load_GL_VERSION_3_2(GLADloadproc load) {

	sub	rsp, 40					; 00000028H

; 1878 : 	if(!GLAD_GL_VERSION_3_2) return;

	cmp	DWORD PTR GLAD_GL_VERSION_3_2, 0
	je	$LN1@load_GL_VE

; 1879 : 	glad_glDrawElementsBaseVertex = (PFNGLDRAWELEMENTSBASEVERTEXPROC)load("glDrawElementsBaseVertex");

	lea	rcx, OFFSET FLAT:??_C@_0BJ@LFMMIAHA@glDrawElementsBaseVertex@
	call	get_proc

; 1880 : 	glad_glDrawRangeElementsBaseVertex = (PFNGLDRAWRANGEELEMENTSBASEVERTEXPROC)load("glDrawRangeElementsBaseVertex");

	lea	rcx, OFFSET FLAT:??_C@_0BO@KBDDBILP@glDrawRangeElementsBaseVertex@
	call	get_proc

; 1881 : 	glad_glDrawElementsInstancedBaseVertex = (PFNGLDRAWELEMENTSINSTANCEDBASEVERTEXPROC)load("glDrawElementsInstancedBaseVertex");

	lea	rcx, OFFSET FLAT:??_C@_0CC@KLOIIKNA@glDrawElementsInstancedBaseVert@
	call	get_proc

; 1882 : 	glad_glMultiDrawElementsBaseVertex = (PFNGLMULTIDRAWELEMENTSBASEVERTEXPROC)load("glMultiDrawElementsBaseVertex");

	lea	rcx, OFFSET FLAT:??_C@_0BO@NAPFJEEK@glMultiDrawElementsBaseVertex@
	call	get_proc

; 1883 : 	glad_glProvokingVertex = (PFNGLPROVOKINGVERTEXPROC)load("glProvokingVertex");

	lea	rcx, OFFSET FLAT:??_C@_0BC@ECOAPEBI@glProvokingVertex@
	call	get_proc

; 1884 : 	glad_glFenceSync = (PFNGLFENCESYNCPROC)load("glFenceSync");

	lea	rcx, OFFSET FLAT:??_C@_0M@EFGFPFLP@glFenceSync@
	call	get_proc

; 1885 : 	glad_glIsSync = (PFNGLISSYNCPROC)load("glIsSync");

	lea	rcx, OFFSET FLAT:??_C@_08JPIIHJEO@glIsSync@
	call	get_proc

; 1886 : 	glad_glDeleteSync = (PFNGLDELETESYNCPROC)load("glDeleteSync");

	lea	rcx, OFFSET FLAT:??_C@_0N@PIFDNDFG@glDeleteSync@
	call	get_proc

; 1887 : 	glad_glClientWaitSync = (PFNGLCLIENTWAITSYNCPROC)load("glClientWaitSync");

	lea	rcx, OFFSET FLAT:??_C@_0BB@KDMPGJAC@glClientWaitSync@
	call	get_proc

; 1888 : 	glad_glWaitSync = (PFNGLWAITSYNCPROC)load("glWaitSync");

	lea	rcx, OFFSET FLAT:??_C@_0L@MHLOGHGO@glWaitSync@
	call	get_proc

; 1889 : 	glad_glGetInteger64v = (PFNGLGETINTEGER64VPROC)load("glGetInteger64v");

	lea	rcx, OFFSET FLAT:??_C@_0BA@INMBOHGL@glGetInteger64v@
	call	get_proc

; 1890 : 	glad_glGetSynciv = (PFNGLGETSYNCIVPROC)load("glGetSynciv");

	lea	rcx, OFFSET FLAT:??_C@_0M@MPEEOPIN@glGetSynciv@
	call	get_proc

; 1891 : 	glad_glGetInteger64i_v = (PFNGLGETINTEGER64I_VPROC)load("glGetInteger64i_v");

	lea	rcx, OFFSET FLAT:??_C@_0BC@KOJILIEC@glGetInteger64i_v@
	call	get_proc

; 1892 : 	glad_glGetBufferParameteri64v = (PFNGLGETBUFFERPARAMETERI64VPROC)load("glGetBufferParameteri64v");

	lea	rcx, OFFSET FLAT:??_C@_0BJ@KKBIDGPP@glGetBufferParameteri64v@
	call	get_proc

; 1893 : 	glad_glFramebufferTexture = (PFNGLFRAMEBUFFERTEXTUREPROC)load("glFramebufferTexture");

	lea	rcx, OFFSET FLAT:??_C@_0BF@ENLMLILA@glFramebufferTexture@
	call	get_proc

; 1894 : 	glad_glTexImage2DMultisample = (PFNGLTEXIMAGE2DMULTISAMPLEPROC)load("glTexImage2DMultisample");

	lea	rcx, OFFSET FLAT:??_C@_0BI@FHDFLFA@glTexImage2DMultisample@
	mov	QWORD PTR glad_glFramebufferTexture, rax
	call	get_proc

; 1895 : 	glad_glTexImage3DMultisample = (PFNGLTEXIMAGE3DMULTISAMPLEPROC)load("glTexImage3DMultisample");

	lea	rcx, OFFSET FLAT:??_C@_0BI@JIHMLKCG@glTexImage3DMultisample@
	call	get_proc

; 1896 : 	glad_glGetMultisamplefv = (PFNGLGETMULTISAMPLEFVPROC)load("glGetMultisamplefv");

	lea	rcx, OFFSET FLAT:??_C@_0BD@DHLIMGN@glGetMultisamplefv@
	call	get_proc

; 1897 : 	glad_glSampleMaski = (PFNGLSAMPLEMASKIPROC)load("glSampleMaski");

	lea	rcx, OFFSET FLAT:??_C@_0O@JNHBCHMB@glSampleMaski@

; 1898 : }

	add	rsp, 40					; 00000028H

; 1897 : 	glad_glSampleMaski = (PFNGLSAMPLEMASKIPROC)load("glSampleMaski");

	jmp	get_proc
$LN1@load_GL_VE:

; 1898 : }

	add	rsp, 40					; 00000028H
	ret	0
load_GL_VERSION_3_2 ENDP
_TEXT	ENDS
; Function compile flags: /Ogtpy
; File C:\Radiophobia\Radiophobia-main\glad.c
;	COMDAT load_GL_VERSION_3_3
_TEXT	SEGMENT
load$dead$ = 48
load_GL_VERSION_3_3 PROC				; COMDAT

; 1899 : static void load_GL_VERSION_3_3(GLADloadproc load) {

	sub	rsp, 40					; 00000028H

; 1900 : 	if(!GLAD_GL_VERSION_3_3) return;

	cmp	DWORD PTR GLAD_GL_VERSION_3_3, 0
	je	$LN1@load_GL_VE

; 1901 : 	glad_glBindFragDataLocationIndexed = (PFNGLBINDFRAGDATALOCATIONINDEXEDPROC)load("glBindFragDataLocationIndexed");

	lea	rcx, OFFSET FLAT:??_C@_0BO@POJBGCGG@glBindFragDataLocationIndexed@
	call	get_proc

; 1902 : 	glad_glGetFragDataIndex = (PFNGLGETFRAGDATAINDEXPROC)load("glGetFragDataIndex");

	lea	rcx, OFFSET FLAT:??_C@_0BD@COCJFEOH@glGetFragDataIndex@
	call	get_proc

; 1903 : 	glad_glGenSamplers = (PFNGLGENSAMPLERSPROC)load("glGenSamplers");

	lea	rcx, OFFSET FLAT:??_C@_0O@EMMLGGLG@glGenSamplers@
	call	get_proc

; 1904 : 	glad_glDeleteSamplers = (PFNGLDELETESAMPLERSPROC)load("glDeleteSamplers");

	lea	rcx, OFFSET FLAT:??_C@_0BB@FLPAOEOO@glDeleteSamplers@
	call	get_proc

; 1905 : 	glad_glIsSampler = (PFNGLISSAMPLERPROC)load("glIsSampler");

	lea	rcx, OFFSET FLAT:??_C@_0M@LAJKHOKJ@glIsSampler@
	call	get_proc

; 1906 : 	glad_glBindSampler = (PFNGLBINDSAMPLERPROC)load("glBindSampler");

	lea	rcx, OFFSET FLAT:??_C@_0O@PDEILAPG@glBindSampler@
	call	get_proc

; 1907 : 	glad_glSamplerParameteri = (PFNGLSAMPLERPARAMETERIPROC)load("glSamplerParameteri");

	lea	rcx, OFFSET FLAT:??_C@_0BE@KBCBMPJO@glSamplerParameteri@
	call	get_proc

; 1908 : 	glad_glSamplerParameteriv = (PFNGLSAMPLERPARAMETERIVPROC)load("glSamplerParameteriv");

	lea	rcx, OFFSET FLAT:??_C@_0BF@GOHDEBPM@glSamplerParameteriv@
	call	get_proc

; 1909 : 	glad_glSamplerParameterf = (PFNGLSAMPLERPARAMETERFPROC)load("glSamplerParameterf");

	lea	rcx, OFFSET FLAT:??_C@_0BE@CGLJNDFB@glSamplerParameterf@
	call	get_proc

; 1910 : 	glad_glSamplerParameterfv = (PFNGLSAMPLERPARAMETERFVPROC)load("glSamplerParameterfv");

	lea	rcx, OFFSET FLAT:??_C@_0BF@GFCPAGMB@glSamplerParameterfv@
	call	get_proc

; 1911 : 	glad_glSamplerParameterIiv = (PFNGLSAMPLERPARAMETERIIVPROC)load("glSamplerParameterIiv");

	lea	rcx, OFFSET FLAT:??_C@_0BG@HKEIFIHF@glSamplerParameterIiv@
	call	get_proc

; 1912 : 	glad_glSamplerParameterIuiv = (PFNGLSAMPLERPARAMETERIUIVPROC)load("glSamplerParameterIuiv");

	lea	rcx, OFFSET FLAT:??_C@_0BH@FEMFBPPB@glSamplerParameterIuiv@
	call	get_proc

; 1913 : 	glad_glGetSamplerParameteriv = (PFNGLGETSAMPLERPARAMETERIVPROC)load("glGetSamplerParameteriv");

	lea	rcx, OFFSET FLAT:??_C@_0BI@FECAOLJP@glGetSamplerParameteriv@
	call	get_proc

; 1914 : 	glad_glGetSamplerParameterIiv = (PFNGLGETSAMPLERPARAMETERIIVPROC)load("glGetSamplerParameterIiv");

	lea	rcx, OFFSET FLAT:??_C@_0BJ@KOMJDLDN@glGetSamplerParameterIiv@
	call	get_proc

; 1915 : 	glad_glGetSamplerParameterfv = (PFNGLGETSAMPLERPARAMETERFVPROC)load("glGetSamplerParameterfv");

	lea	rcx, OFFSET FLAT:??_C@_0BI@FPHMKMKC@glGetSamplerParameterfv@
	call	get_proc

; 1916 : 	glad_glGetSamplerParameterIuiv = (PFNGLGETSAMPLERPARAMETERIUIVPROC)load("glGetSamplerParameterIuiv");

	lea	rcx, OFFSET FLAT:??_C@_0BK@CMBGFHDA@glGetSamplerParameterIuiv@
	call	get_proc

; 1917 : 	glad_glQueryCounter = (PFNGLQUERYCOUNTERPROC)load("glQueryCounter");

	lea	rcx, OFFSET FLAT:??_C@_0P@KALICDIM@glQueryCounter@
	call	get_proc

; 1918 : 	glad_glGetQueryObjecti64v = (PFNGLGETQUERYOBJECTI64VPROC)load("glGetQueryObjecti64v");

	lea	rcx, OFFSET FLAT:??_C@_0BF@JDAPDEPE@glGetQueryObjecti64v@
	call	get_proc

; 1919 : 	glad_glGetQueryObjectui64v = (PFNGLGETQUERYOBJECTUI64VPROC)load("glGetQueryObjectui64v");

	lea	rcx, OFFSET FLAT:??_C@_0BG@NEGGOMJO@glGetQueryObjectui64v@
	call	get_proc

; 1920 : 	glad_glVertexAttribDivisor = (PFNGLVERTEXATTRIBDIVISORPROC)load("glVertexAttribDivisor");

	lea	rcx, OFFSET FLAT:??_C@_0BG@NEBMAEHM@glVertexAttribDivisor@
	call	get_proc

; 1921 : 	glad_glVertexAttribP1ui = (PFNGLVERTEXATTRIBP1UIPROC)load("glVertexAttribP1ui");

	lea	rcx, OFFSET FLAT:??_C@_0BD@FLACCOEN@glVertexAttribP1ui@
	call	get_proc

; 1922 : 	glad_glVertexAttribP1uiv = (PFNGLVERTEXATTRIBP1UIVPROC)load("glVertexAttribP1uiv");

	lea	rcx, OFFSET FLAT:??_C@_0BE@HBFDOBHD@glVertexAttribP1uiv@
	call	get_proc

; 1923 : 	glad_glVertexAttribP2ui = (PFNGLVERTEXATTRIBP2UIPROC)load("glVertexAttribP2ui");

	lea	rcx, OFFSET FLAT:??_C@_0BD@EJLHIBKD@glVertexAttribP2ui@
	call	get_proc

; 1924 : 	glad_glVertexAttribP2uiv = (PFNGLVERTEXATTRIBP2UIVPROC)load("glVertexAttribP2uiv");

	lea	rcx, OFFSET FLAT:??_C@_0BE@DGPDJLKD@glVertexAttribP2uiv@
	call	get_proc

; 1925 : 	glad_glVertexAttribP3ui = (PFNGLVERTEXATTRIBP3UIPROC)load("glVertexAttribP3ui");

	lea	rcx, OFFSET FLAT:??_C@_0BD@PBALOGMG@glVertexAttribP3ui@
	call	get_proc

; 1926 : 	glad_glVertexAttribP3uiv = (PFNGLVERTEXATTRIBP3UIVPROC)load("glVertexAttribP3uiv");

	lea	rcx, OFFSET FLAT:??_C@_0BE@LJDLCBD@glVertexAttribP3uiv@
	call	get_proc

; 1927 : 	glad_glVertexAttribP4ui = (PFNGLVERTEXATTRIBP4UIPROC)load("glVertexAttribP4ui");

	lea	rcx, OFFSET FLAT:??_C@_0BD@GMNMNOHP@glVertexAttribP4ui@
	call	get_proc

; 1928 : 	glad_glVertexAttribP4uiv = (PFNGLVERTEXATTRIBP4UIVPROC)load("glVertexAttribP4uiv");

	lea	rcx, OFFSET FLAT:??_C@_0BE@LJLDGOAD@glVertexAttribP4uiv@
	call	get_proc

; 1929 : 	glad_glVertexP2ui = (PFNGLVERTEXP2UIPROC)load("glVertexP2ui");

	lea	rcx, OFFSET FLAT:??_C@_0N@EFBCIBMC@glVertexP2ui@
	call	get_proc

; 1930 : 	glad_glVertexP2uiv = (PFNGLVERTEXP2UIVPROC)load("glVertexP2uiv");

	lea	rcx, OFFSET FLAT:??_C@_0O@MEKGPGN@glVertexP2uiv@
	call	get_proc

; 1931 : 	glad_glVertexP3ui = (PFNGLVERTEXP3UIPROC)load("glVertexP3ui");

	lea	rcx, OFFSET FLAT:??_C@_0N@PNKOOGKH@glVertexP3ui@
	call	get_proc

; 1932 : 	glad_glVertexP3uiv = (PFNGLVERTEXP3UIVPROC)load("glVertexP3uiv");

	lea	rcx, OFFSET FLAT:??_C@_0O@DBCKEGNN@glVertexP3uiv@
	call	get_proc

; 1933 : 	glad_glVertexP4ui = (PFNGLVERTEXP4UIPROC)load("glVertexP4ui");

	lea	rcx, OFFSET FLAT:??_C@_0N@GAHJNOBO@glVertexP4ui@
	call	get_proc

; 1934 : 	glad_glVertexP4uiv = (PFNGLVERTEXP4UIVPROC)load("glVertexP4uiv");

	lea	rcx, OFFSET FLAT:??_C@_0O@IDAKJKMN@glVertexP4uiv@
	call	get_proc

; 1935 : 	glad_glTexCoordP1ui = (PFNGLTEXCOORDP1UIPROC)load("glTexCoordP1ui");

	lea	rcx, OFFSET FLAT:??_C@_0P@OLJHLLHJ@glTexCoordP1ui@
	call	get_proc

; 1936 : 	glad_glTexCoordP1uiv = (PFNGLTEXCOORDP1UIVPROC)load("glTexCoordP1uiv");

	lea	rcx, OFFSET FLAT:??_C@_0BA@FAFHIAFD@glTexCoordP1uiv@
	call	get_proc

; 1937 : 	glad_glTexCoordP2ui = (PFNGLTEXCOORDP2UIPROC)load("glTexCoordP2ui");

	lea	rcx, OFFSET FLAT:??_C@_0P@PJCCBEJH@glTexCoordP2ui@
	call	get_proc

; 1938 : 	glad_glTexCoordP2uiv = (PFNGLTEXCOORDP2UIVPROC)load("glTexCoordP2uiv");

	lea	rcx, OFFSET FLAT:??_C@_0BA@BHPHPKID@glTexCoordP2uiv@
	call	get_proc

; 1939 : 	glad_glTexCoordP3ui = (PFNGLTEXCOORDP3UIPROC)load("glTexCoordP3ui");

	lea	rcx, OFFSET FLAT:??_C@_0P@EBJOHDPC@glTexCoordP3ui@
	call	get_proc

; 1940 : 	glad_glTexCoordP3uiv = (PFNGLTEXCOORDP3UIVPROC)load("glTexCoordP3uiv");

	lea	rcx, OFFSET FLAT:??_C@_0BA@CKJHNDDD@glTexCoordP3uiv@
	call	get_proc

; 1941 : 	glad_glTexCoordP4ui = (PFNGLTEXCOORDP4UIPROC)load("glTexCoordP4ui");

	lea	rcx, OFFSET FLAT:??_C@_0P@NMEJELEL@glTexCoordP4ui@
	call	get_proc

; 1942 : 	glad_glTexCoordP4uiv = (PFNGLTEXCOORDP4UIVPROC)load("glTexCoordP4uiv");

	lea	rcx, OFFSET FLAT:??_C@_0BA@JILHAPCD@glTexCoordP4uiv@
	call	get_proc

; 1943 : 	glad_glMultiTexCoordP1ui = (PFNGLMULTITEXCOORDP1UIPROC)load("glMultiTexCoordP1ui");

	lea	rcx, OFFSET FLAT:??_C@_0BE@OAHHKHKG@glMultiTexCoordP1ui@
	call	get_proc

; 1944 : 	glad_glMultiTexCoordP1uiv = (PFNGLMULTITEXCOORDP1UIVPROC)load("glMultiTexCoordP1uiv");

	lea	rcx, OFFSET FLAT:??_C@_0BF@EGDAKPAK@glMultiTexCoordP1uiv@
	call	get_proc

; 1945 : 	glad_glMultiTexCoordP2ui = (PFNGLMULTITEXCOORDP2UIPROC)load("glMultiTexCoordP2ui");

	lea	rcx, OFFSET FLAT:??_C@_0BE@PCMCAIEI@glMultiTexCoordP2ui@
	call	get_proc

; 1946 : 	glad_glMultiTexCoordP2uiv = (PFNGLMULTITEXCOORDP2UIVPROC)load("glMultiTexCoordP2uiv");

	lea	rcx, OFFSET FLAT:??_C@_0BF@BJANFNK@glMultiTexCoordP2uiv@
	call	get_proc

; 1947 : 	glad_glMultiTexCoordP3ui = (PFNGLMULTITEXCOORDP3UIPROC)load("glMultiTexCoordP3ui");

	lea	rcx, OFFSET FLAT:??_C@_0BE@EKHOGPCN@glMultiTexCoordP3ui@
	call	get_proc

; 1948 : 	glad_glMultiTexCoordP3uiv = (PFNGLMULTITEXCOORDP3UIVPROC)load("glMultiTexCoordP3uiv");

	lea	rcx, OFFSET FLAT:??_C@_0BF@DMPAPMGK@glMultiTexCoordP3uiv@
	call	get_proc

; 1949 : 	glad_glMultiTexCoordP4ui = (PFNGLMULTITEXCOORDP4UIPROC)load("glMultiTexCoordP4ui");

	lea	rcx, OFFSET FLAT:??_C@_0BE@NHKJFHJE@glMultiTexCoordP4ui@
	call	get_proc

; 1950 : 	glad_glMultiTexCoordP4uiv = (PFNGLMULTITEXCOORDP4UIVPROC)load("glMultiTexCoordP4uiv");

	lea	rcx, OFFSET FLAT:??_C@_0BF@IONACAHK@glMultiTexCoordP4uiv@
	call	get_proc

; 1951 : 	glad_glNormalP3ui = (PFNGLNORMALP3UIPROC)load("glNormalP3ui");

	lea	rcx, OFFSET FLAT:??_C@_0N@PBEFBNHO@glNormalP3ui@
	call	get_proc

; 1952 : 	glad_glNormalP3uiv = (PFNGLNORMALP3UIVPROC)load("glNormalP3uiv");

	lea	rcx, OFFSET FLAT:??_C@_0O@MOCJMHFG@glNormalP3uiv@
	call	get_proc

; 1953 : 	glad_glColorP3ui = (PFNGLCOLORP3UIPROC)load("glColorP3ui");

	lea	rcx, OFFSET FLAT:??_C@_0M@PEKBINNN@glColorP3ui@
	call	get_proc

; 1954 : 	glad_glColorP3uiv = (PFNGLCOLORP3UIVPROC)load("glColorP3uiv");

	lea	rcx, OFFSET FLAT:??_C@_0N@IBPDNBJE@glColorP3uiv@
	call	get_proc

; 1955 : 	glad_glColorP4ui = (PFNGLCOLORP4UIPROC)load("glColorP4ui");

	lea	rcx, OFFSET FLAT:??_C@_0M@GJHGLFGE@glColorP4ui@
	call	get_proc

; 1956 : 	glad_glColorP4uiv = (PFNGLCOLORP4UIVPROC)load("glColorP4uiv");

	lea	rcx, OFFSET FLAT:??_C@_0N@DDNDANIE@glColorP4uiv@
	call	get_proc

; 1957 : 	glad_glSecondaryColorP3ui = (PFNGLSECONDARYCOLORP3UIPROC)load("glSecondaryColorP3ui");

	lea	rcx, OFFSET FLAT:??_C@_0BF@PDDGBPKP@glSecondaryColorP3ui@
	call	get_proc

; 1958 : 	glad_glSecondaryColorP3uiv = (PFNGLSECONDARYCOLORP3UIVPROC)load("glSecondaryColorP3uiv");

	lea	rcx, OFFSET FLAT:??_C@_0BG@DPPPFGBG@glSecondaryColorP3uiv@

; 1959 : }

	add	rsp, 40					; 00000028H

; 1958 : 	glad_glSecondaryColorP3uiv = (PFNGLSECONDARYCOLORP3UIVPROC)load("glSecondaryColorP3uiv");

	jmp	get_proc
$LN1@load_GL_VE:

; 1959 : }

	add	rsp, 40					; 00000028H
	ret	0
load_GL_VERSION_3_3 ENDP
_TEXT	ENDS
; Function compile flags: /Ogtpy
; File C:\Radiophobia\Radiophobia-main\glad.c
;	COMDAT load_GL_VERSION_4_0
_TEXT	SEGMENT
load$dead$ = 48
load_GL_VERSION_4_0 PROC				; COMDAT

; 1960 : static void load_GL_VERSION_4_0(GLADloadproc load) {

	sub	rsp, 40					; 00000028H

; 1961 : 	if(!GLAD_GL_VERSION_4_0) return;

	cmp	DWORD PTR GLAD_GL_VERSION_4_0, 0
	je	$LN1@load_GL_VE

; 1962 : 	glad_glMinSampleShading = (PFNGLMINSAMPLESHADINGPROC)load("glMinSampleShading");

	lea	rcx, OFFSET FLAT:??_C@_0BD@EDGCEBP@glMinSampleShading@
	call	get_proc

; 1963 : 	glad_glBlendEquationi = (PFNGLBLENDEQUATIONIPROC)load("glBlendEquationi");

	lea	rcx, OFFSET FLAT:??_C@_0BB@MKHLNEOM@glBlendEquationi@
	call	get_proc

; 1964 : 	glad_glBlendEquationSeparatei = (PFNGLBLENDEQUATIONSEPARATEIPROC)load("glBlendEquationSeparatei");

	lea	rcx, OFFSET FLAT:??_C@_0BJ@FNMBAGAC@glBlendEquationSeparatei@
	call	get_proc

; 1965 : 	glad_glBlendFunci = (PFNGLBLENDFUNCIPROC)load("glBlendFunci");

	lea	rcx, OFFSET FLAT:??_C@_0N@IKKELNNP@glBlendFunci@
	call	get_proc

; 1966 : 	glad_glBlendFuncSeparatei = (PFNGLBLENDFUNCSEPARATEIPROC)load("glBlendFuncSeparatei");

	lea	rcx, OFFSET FLAT:??_C@_0BF@PDDGKNBJ@glBlendFuncSeparatei@
	call	get_proc

; 1967 : 	glad_glDrawArraysIndirect = (PFNGLDRAWARRAYSINDIRECTPROC)load("glDrawArraysIndirect");

	lea	rcx, OFFSET FLAT:??_C@_0BF@BGDCPAEP@glDrawArraysIndirect@
	call	get_proc

; 1968 : 	glad_glDrawElementsIndirect = (PFNGLDRAWELEMENTSINDIRECTPROC)load("glDrawElementsIndirect");

	lea	rcx, OFFSET FLAT:??_C@_0BH@LJJDOEDH@glDrawElementsIndirect@
	call	get_proc

; 1969 : 	glad_glUniform1d = (PFNGLUNIFORM1DPROC)load("glUniform1d");

	lea	rcx, OFFSET FLAT:??_C@_0M@PJLEGNGH@glUniform1d@
	call	get_proc

; 1970 : 	glad_glUniform2d = (PFNGLUNIFORM2DPROC)load("glUniform2d");

	lea	rcx, OFFSET FLAT:??_C@_0M@PLPCNDDO@glUniform2d@
	call	get_proc

; 1971 : 	glad_glUniform3d = (PFNGLUNIFORM3DPROC)load("glUniform3d");

	lea	rcx, OFFSET FLAT:??_C@_0M@PKDALJAJ@glUniform3d@
	call	get_proc

; 1972 : 	glad_glUniform4d = (PFNGLUNIFORM4DPROC)load("glUniform4d");

	lea	rcx, OFFSET FLAT:??_C@_0M@PPHPKPIM@glUniform4d@
	call	get_proc

; 1973 : 	glad_glUniform1dv = (PFNGLUNIFORM1DVPROC)load("glUniform1dv");

	lea	rcx, OFFSET FLAT:??_C@_0N@KKEKJOOG@glUniform1dv@
	call	get_proc

; 1974 : 	glad_glUniform2dv = (PFNGLUNIFORM2DVPROC)load("glUniform2dv");

	lea	rcx, OFFSET FLAT:??_C@_0N@LIPPDBAI@glUniform2dv@
	call	get_proc

; 1975 : 	glad_glUniform3dv = (PFNGLUNIFORM3DVPROC)load("glUniform3dv");

	lea	rcx, OFFSET FLAT:??_C@_0N@EDFGGN@glUniform3dv@
	call	get_proc

; 1976 : 	glad_glUniform4dv = (PFNGLUNIFORM4DVPROC)load("glUniform4dv");

	lea	rcx, OFFSET FLAT:??_C@_0N@JNJEGONE@glUniform4dv@
	call	get_proc

; 1977 : 	glad_glUniformMatrix2dv = (PFNGLUNIFORMMATRIX2DVPROC)load("glUniformMatrix2dv");

	lea	rcx, OFFSET FLAT:??_C@_0BD@JLJNJPBN@glUniformMatrix2dv@
	call	get_proc

; 1978 : 	glad_glUniformMatrix3dv = (PFNGLUNIFORMMATRIX3DVPROC)load("glUniformMatrix3dv");

	lea	rcx, OFFSET FLAT:??_C@_0BD@CDCBPIHI@glUniformMatrix3dv@
	call	get_proc

; 1979 : 	glad_glUniformMatrix4dv = (PFNGLUNIFORMMATRIX4DVPROC)load("glUniformMatrix4dv");

	lea	rcx, OFFSET FLAT:??_C@_0BD@LOPGMAMB@glUniformMatrix4dv@
	call	get_proc

; 1980 : 	glad_glUniformMatrix2x3dv = (PFNGLUNIFORMMATRIX2X3DVPROC)load("glUniformMatrix2x3dv");

	lea	rcx, OFFSET FLAT:??_C@_0BF@KALNBGFE@glUniformMatrix2x3dv@
	call	get_proc

; 1981 : 	glad_glUniformMatrix2x4dv = (PFNGLUNIFORMMATRIX2X4DVPROC)load("glUniformMatrix2x4dv");

	lea	rcx, OFFSET FLAT:??_C@_0BF@DNGKCOON@glUniformMatrix2x4dv@
	call	get_proc

; 1982 : 	glad_glUniformMatrix3x2dv = (PFNGLUNIFORMMATRIX3X2DVPROC)load("glUniformMatrix3x2dv");

	lea	rcx, OFFSET FLAT:??_C@_0BF@NDFNKCJE@glUniformMatrix3x2dv@
	call	get_proc

; 1983 : 	glad_glUniformMatrix3x4dv = (PFNGLUNIFORMMATRIX3X4DVPROC)load("glUniformMatrix3x4dv");

	lea	rcx, OFFSET FLAT:??_C@_0BF@PGDGPNEI@glUniformMatrix3x4dv@
	call	get_proc

; 1984 : 	glad_glUniformMatrix4x2dv = (PFNGLUNIFORMMATRIX4X2DVPROC)load("glUniformMatrix4x2dv");

	lea	rcx, OFFSET FLAT:??_C@_0BF@MOFIJCCM@glUniformMatrix4x2dv@
	call	get_proc

; 1985 : 	glad_glUniformMatrix4x3dv = (PFNGLUNIFORMMATRIX4X3DVPROC)load("glUniformMatrix4x3dv");

	lea	rcx, OFFSET FLAT:??_C@_0BF@HGOEPFEJ@glUniformMatrix4x3dv@
	call	get_proc

; 1986 : 	glad_glGetUniformdv = (PFNGLGETUNIFORMDVPROC)load("glGetUniformdv");

	lea	rcx, OFFSET FLAT:??_C@_0P@NGEMHI@glGetUniformdv@
	call	get_proc

; 1987 : 	glad_glGetSubroutineUniformLocation = (PFNGLGETSUBROUTINEUNIFORMLOCATIONPROC)load("glGetSubroutineUniformLocation");

	lea	rcx, OFFSET FLAT:??_C@_0BP@IBIPLDOA@glGetSubroutineUniformLocation@
	call	get_proc

; 1988 : 	glad_glGetSubroutineIndex = (PFNGLGETSUBROUTINEINDEXPROC)load("glGetSubroutineIndex");

	lea	rcx, OFFSET FLAT:??_C@_0BF@ONDIGCJG@glGetSubroutineIndex@
	call	get_proc

; 1989 : 	glad_glGetActiveSubroutineUniformiv = (PFNGLGETACTIVESUBROUTINEUNIFORMIVPROC)load("glGetActiveSubroutineUniformiv");

	lea	rcx, OFFSET FLAT:??_C@_0BP@FAPFAJFP@glGetActiveSubroutineUniformiv@
	call	get_proc

; 1990 : 	glad_glGetActiveSubroutineUniformName = (PFNGLGETACTIVESUBROUTINEUNIFORMNAMEPROC)load("glGetActiveSubroutineUniformName");

	lea	rcx, OFFSET FLAT:??_C@_0CB@KCFFPCGJ@glGetActiveSubroutineUniformNam@
	call	get_proc

; 1991 : 	glad_glGetActiveSubroutineName = (PFNGLGETACTIVESUBROUTINENAMEPROC)load("glGetActiveSubroutineName");

	lea	rcx, OFFSET FLAT:??_C@_0BK@JPHEACLL@glGetActiveSubroutineName@
	call	get_proc

; 1992 : 	glad_glUniformSubroutinesuiv = (PFNGLUNIFORMSUBROUTINESUIVPROC)load("glUniformSubroutinesuiv");

	lea	rcx, OFFSET FLAT:??_C@_0BI@CDPOBBHI@glUniformSubroutinesuiv@
	call	get_proc

; 1993 : 	glad_glGetUniformSubroutineuiv = (PFNGLGETUNIFORMSUBROUTINEUIVPROC)load("glGetUniformSubroutineuiv");

	lea	rcx, OFFSET FLAT:??_C@_0BK@BLMOFAGJ@glGetUniformSubroutineuiv@
	call	get_proc

; 1994 : 	glad_glGetProgramStageiv = (PFNGLGETPROGRAMSTAGEIVPROC)load("glGetProgramStageiv");

	lea	rcx, OFFSET FLAT:??_C@_0BE@LOKJCDFH@glGetProgramStageiv@
	call	get_proc

; 1995 : 	glad_glPatchParameteri = (PFNGLPATCHPARAMETERIPROC)load("glPatchParameteri");

	lea	rcx, OFFSET FLAT:??_C@_0BC@PAPDGMLA@glPatchParameteri@
	call	get_proc

; 1996 : 	glad_glPatchParameterfv = (PFNGLPATCHPARAMETERFVPROC)load("glPatchParameterfv");

	lea	rcx, OFFSET FLAT:??_C@_0BD@LJKINJKN@glPatchParameterfv@
	call	get_proc

; 1997 : 	glad_glBindTransformFeedback = (PFNGLBINDTRANSFORMFEEDBACKPROC)load("glBindTransformFeedback");

	lea	rcx, OFFSET FLAT:??_C@_0BI@BPJKLMIG@glBindTransformFeedback@
	call	get_proc

; 1998 : 	glad_glDeleteTransformFeedbacks = (PFNGLDELETETRANSFORMFEEDBACKSPROC)load("glDeleteTransformFeedbacks");

	lea	rcx, OFFSET FLAT:??_C@_0BL@DIGEBFBK@glDeleteTransformFeedbacks@
	call	get_proc

; 1999 : 	glad_glGenTransformFeedbacks = (PFNGLGENTRANSFORMFEEDBACKSPROC)load("glGenTransformFeedbacks");

	lea	rcx, OFFSET FLAT:??_C@_0BI@KANKBGAE@glGenTransformFeedbacks@
	call	get_proc

; 2000 : 	glad_glIsTransformFeedback = (PFNGLISTRANSFORMFEEDBACKPROC)load("glIsTransformFeedback");

	lea	rcx, OFFSET FLAT:??_C@_0BG@BGFLKHBM@glIsTransformFeedback@
	call	get_proc

; 2001 : 	glad_glPauseTransformFeedback = (PFNGLPAUSETRANSFORMFEEDBACKPROC)load("glPauseTransformFeedback");

	lea	rcx, OFFSET FLAT:??_C@_0BJ@FFNLKBCB@glPauseTransformFeedback@
	call	get_proc

; 2002 : 	glad_glResumeTransformFeedback = (PFNGLRESUMETRANSFORMFEEDBACKPROC)load("glResumeTransformFeedback");

	lea	rcx, OFFSET FLAT:??_C@_0BK@JMHONFHF@glResumeTransformFeedback@
	call	get_proc

; 2003 : 	glad_glDrawTransformFeedback = (PFNGLDRAWTRANSFORMFEEDBACKPROC)load("glDrawTransformFeedback");

	lea	rcx, OFFSET FLAT:??_C@_0BI@LEOILCPN@glDrawTransformFeedback@
	call	get_proc

; 2004 : 	glad_glDrawTransformFeedbackStream = (PFNGLDRAWTRANSFORMFEEDBACKSTREAMPROC)load("glDrawTransformFeedbackStream");

	lea	rcx, OFFSET FLAT:??_C@_0BO@IGLFNCDG@glDrawTransformFeedbackStream@
	call	get_proc

; 2005 : 	glad_glBeginQueryIndexed = (PFNGLBEGINQUERYINDEXEDPROC)load("glBeginQueryIndexed");

	lea	rcx, OFFSET FLAT:??_C@_0BE@BDKPJDEE@glBeginQueryIndexed@
	call	get_proc

; 2006 : 	glad_glEndQueryIndexed = (PFNGLENDQUERYINDEXEDPROC)load("glEndQueryIndexed");

	lea	rcx, OFFSET FLAT:??_C@_0BC@DPMHMNME@glEndQueryIndexed@
	call	get_proc

; 2007 : 	glad_glGetQueryIndexediv = (PFNGLGETQUERYINDEXEDIVPROC)load("glGetQueryIndexediv");

	lea	rcx, OFFSET FLAT:??_C@_0BE@CCFJPMFI@glGetQueryIndexediv@

; 2008 : }

	add	rsp, 40					; 00000028H

; 2007 : 	glad_glGetQueryIndexediv = (PFNGLGETQUERYINDEXEDIVPROC)load("glGetQueryIndexediv");

	jmp	get_proc
$LN1@load_GL_VE:

; 2008 : }

	add	rsp, 40					; 00000028H
	ret	0
load_GL_VERSION_4_0 ENDP
_TEXT	ENDS
; Function compile flags: /Ogtpy
; File C:\Radiophobia\Radiophobia-main\glad.c
;	COMDAT load_GL_VERSION_4_1
_TEXT	SEGMENT
load$dead$ = 48
load_GL_VERSION_4_1 PROC				; COMDAT

; 2009 : static void load_GL_VERSION_4_1(GLADloadproc load) {

	sub	rsp, 40					; 00000028H

; 2010 : 	if(!GLAD_GL_VERSION_4_1) return;

	cmp	DWORD PTR GLAD_GL_VERSION_4_1, 0
	je	$LN1@load_GL_VE

; 2011 : 	glad_glReleaseShaderCompiler = (PFNGLRELEASESHADERCOMPILERPROC)load("glReleaseShaderCompiler");

	lea	rcx, OFFSET FLAT:??_C@_0BI@HGKABJPJ@glReleaseShaderCompiler@
	call	get_proc

; 2012 : 	glad_glShaderBinary = (PFNGLSHADERBINARYPROC)load("glShaderBinary");

	lea	rcx, OFFSET FLAT:??_C@_0P@IMINELFB@glShaderBinary@
	call	get_proc

; 2013 : 	glad_glGetShaderPrecisionFormat = (PFNGLGETSHADERPRECISIONFORMATPROC)load("glGetShaderPrecisionFormat");

	lea	rcx, OFFSET FLAT:??_C@_0BL@MLAOOHPD@glGetShaderPrecisionFormat@
	call	get_proc

; 2014 : 	glad_glDepthRangef = (PFNGLDEPTHRANGEFPROC)load("glDepthRangef");

	lea	rcx, OFFSET FLAT:??_C@_0O@JDFJDNND@glDepthRangef@
	call	get_proc

; 2015 : 	glad_glClearDepthf = (PFNGLCLEARDEPTHFPROC)load("glClearDepthf");

	lea	rcx, OFFSET FLAT:??_C@_0O@FMBMCDIL@glClearDepthf@
	call	get_proc

; 2016 : 	glad_glGetProgramBinary = (PFNGLGETPROGRAMBINARYPROC)load("glGetProgramBinary");

	lea	rcx, OFFSET FLAT:??_C@_0BD@JBCEHKON@glGetProgramBinary@
	call	get_proc

; 2017 : 	glad_glProgramBinary = (PFNGLPROGRAMBINARYPROC)load("glProgramBinary");

	lea	rcx, OFFSET FLAT:??_C@_0BA@MIIDHOO@glProgramBinary@
	call	get_proc

; 2018 : 	glad_glProgramParameteri = (PFNGLPROGRAMPARAMETERIPROC)load("glProgramParameteri");

	lea	rcx, OFFSET FLAT:??_C@_0BE@EELDBEME@glProgramParameteri@
	call	get_proc

; 2019 : 	glad_glUseProgramStages = (PFNGLUSEPROGRAMSTAGESPROC)load("glUseProgramStages");

	lea	rcx, OFFSET FLAT:??_C@_0BD@CADKHDMH@glUseProgramStages@
	call	get_proc

; 2020 : 	glad_glActiveShaderProgram = (PFNGLACTIVESHADERPROGRAMPROC)load("glActiveShaderProgram");

	lea	rcx, OFFSET FLAT:??_C@_0BG@IAIOGMEB@glActiveShaderProgram@
	call	get_proc

; 2021 : 	glad_glCreateShaderProgramv = (PFNGLCREATESHADERPROGRAMVPROC)load("glCreateShaderProgramv");

	lea	rcx, OFFSET FLAT:??_C@_0BH@BOJGDFJN@glCreateShaderProgramv@
	call	get_proc

; 2022 : 	glad_glBindProgramPipeline = (PFNGLBINDPROGRAMPIPELINEPROC)load("glBindProgramPipeline");

	lea	rcx, OFFSET FLAT:??_C@_0BG@GLPOKNCG@glBindProgramPipeline@
	call	get_proc

; 2023 : 	glad_glDeleteProgramPipelines = (PFNGLDELETEPROGRAMPIPELINESPROC)load("glDeleteProgramPipelines");

	lea	rcx, OFFSET FLAT:??_C@_0BJ@CHBGABHE@glDeleteProgramPipelines@
	call	get_proc

; 2024 : 	glad_glGenProgramPipelines = (PFNGLGENPROGRAMPIPELINESPROC)load("glGenProgramPipelines");

	lea	rcx, OFFSET FLAT:??_C@_0BG@CCBKOCA@glGenProgramPipelines@
	call	get_proc

; 2025 : 	glad_glIsProgramPipeline = (PFNGLISPROGRAMPIPELINEPROC)load("glIsProgramPipeline");

	lea	rcx, OFFSET FLAT:??_C@_0BE@DLHPDHCH@glIsProgramPipeline@
	call	get_proc

; 2026 : 	glad_glGetProgramPipelineiv = (PFNGLGETPROGRAMPIPELINEIVPROC)load("glGetProgramPipelineiv");

	lea	rcx, OFFSET FLAT:??_C@_0BH@DNOPNJMO@glGetProgramPipelineiv@
	call	get_proc

; 2027 : 	glad_glProgramParameteri = (PFNGLPROGRAMPARAMETERIPROC)load("glProgramParameteri");

	lea	rcx, OFFSET FLAT:??_C@_0BE@EELDBEME@glProgramParameteri@
	call	get_proc

; 2028 : 	glad_glProgramUniform1i = (PFNGLPROGRAMUNIFORM1IPROC)load("glProgramUniform1i");

	lea	rcx, OFFSET FLAT:??_C@_0BD@COCLMGIM@glProgramUniform1i@
	call	get_proc

; 2029 : 	glad_glProgramUniform1iv = (PFNGLPROGRAMUNIFORM1IVPROC)load("glProgramUniform1iv");

	lea	rcx, OFFSET FLAT:??_C@_0BE@JNEFDKLN@glProgramUniform1iv@
	call	get_proc

; 2030 : 	glad_glProgramUniform1f = (PFNGLPROGRAMUNIFORM1FPROC)load("glProgramUniform1f");

	lea	rcx, OFFSET FLAT:??_C@_0BD@KJLDNKED@glProgramUniform1f@
	call	get_proc

; 2031 : 	glad_glProgramUniform1fv = (PFNGLPROGRAMUNIFORM1FVPROC)load("glProgramUniform1fv");

	lea	rcx, OFFSET FLAT:??_C@_0BE@JGBJHNIA@glProgramUniform1fv@
	call	get_proc

; 2032 : 	glad_glProgramUniform1d = (PFNGLPROGRAMUNIFORM1DPROC)load("glProgramUniform1d");

	lea	rcx, OFFSET FLAT:??_C@_0BD@JLIFLIMB@glProgramUniform1d@
	call	get_proc

; 2033 : 	glad_glProgramUniform1dv = (PFNGLPROGRAMUNIFORM1DVPROC)load("glProgramUniform1dv");

	lea	rcx, OFFSET FLAT:??_C@_0BE@JFJNKJOO@glProgramUniform1dv@
	call	get_proc

; 2034 : 	glad_glProgramUniform1ui = (PFNGLPROGRAMUNIFORM1UIPROC)load("glProgramUniform1ui");

	lea	rcx, OFFSET FLAT:??_C@_0BE@EFCDGODH@glProgramUniform1ui@
	call	get_proc

; 2035 : 	glad_glProgramUniform1uiv = (PFNGLPROGRAMUNIFORM1UIVPROC)load("glProgramUniform1uiv");

	lea	rcx, OFFSET FLAT:??_C@_0BF@MBJNFIBB@glProgramUniform1uiv@
	call	get_proc

; 2036 : 	glad_glProgramUniform2i = (PFNGLPROGRAMUNIFORM2IPROC)load("glProgramUniform2i");

	lea	rcx, OFFSET FLAT:??_C@_0BD@CMGNHINF@glProgramUniform2i@
	call	get_proc

; 2037 : 	glad_glProgramUniform2iv = (PFNGLPROGRAMUNIFORM2IVPROC)load("glProgramUniform2iv");

	lea	rcx, OFFSET FLAT:??_C@_0BE@IPPAJFFD@glProgramUniform2iv@
	call	get_proc

; 2038 : 	glad_glProgramUniform2f = (PFNGLPROGRAMUNIFORM2FPROC)load("glProgramUniform2f");

	lea	rcx, OFFSET FLAT:??_C@_0BD@KLPFGEBK@glProgramUniform2f@
	call	get_proc

; 2039 : 	glad_glProgramUniform2fv = (PFNGLPROGRAMUNIFORM2FVPROC)load("glProgramUniform2fv");

	lea	rcx, OFFSET FLAT:??_C@_0BE@IEKMNCGO@glProgramUniform2fv@
	call	get_proc

; 2040 : 	glad_glProgramUniform2d = (PFNGLPROGRAMUNIFORM2DPROC)load("glProgramUniform2d");

	lea	rcx, OFFSET FLAT:??_C@_0BD@JJMDAGJI@glProgramUniform2d@
	call	get_proc

; 2041 : 	glad_glProgramUniform2dv = (PFNGLPROGRAMUNIFORM2DVPROC)load("glProgramUniform2dv");

	lea	rcx, OFFSET FLAT:??_C@_0BE@IHCIAGAA@glProgramUniform2dv@
	call	get_proc

; 2042 : 	glad_glProgramUniform2ui = (PFNGLPROGRAMUNIFORM2UIPROC)load("glProgramUniform2ui");

	lea	rcx, OFFSET FLAT:??_C@_0BE@FHJGMBNJ@glProgramUniform2ui@
	call	get_proc

; 2043 : 	glad_glProgramUniform2uiv = (PFNGLPROGRAMUNIFORM2UIVPROC)load("glProgramUniform2uiv");

	lea	rcx, OFFSET FLAT:??_C@_0BF@IGDNCCMB@glProgramUniform2uiv@
	call	get_proc

; 2044 : 	glad_glProgramUniform3i = (PFNGLPROGRAMUNIFORM3IPROC)load("glProgramUniform3i");

	lea	rcx, OFFSET FLAT:??_C@_0BD@CNKPBCOC@glProgramUniform3i@
	call	get_proc

; 2045 : 	glad_glProgramUniform3iv = (PFNGLPROGRAMUNIFORM3IVPROC)load("glProgramUniform3iv");

	lea	rcx, OFFSET FLAT:??_C@_0BE@DHEMPCDG@glProgramUniform3iv@
	call	get_proc

; 2046 : 	glad_glProgramUniform3f = (PFNGLPROGRAMUNIFORM3FPROC)load("glProgramUniform3f");

	lea	rcx, OFFSET FLAT:??_C@_0BD@KKDHAOCN@glProgramUniform3f@
	call	get_proc

; 2047 : 	glad_glProgramUniform3fv = (PFNGLPROGRAMUNIFORM3FVPROC)load("glProgramUniform3fv");

	lea	rcx, OFFSET FLAT:??_C@_0BE@DMBALFAL@glProgramUniform3fv@
	call	get_proc

; 2048 : 	glad_glProgramUniform3d = (PFNGLPROGRAMUNIFORM3DPROC)load("glProgramUniform3d");

	lea	rcx, OFFSET FLAT:??_C@_0BD@JIABGMKP@glProgramUniform3d@
	call	get_proc

; 2049 : 	glad_glProgramUniform3dv = (PFNGLPROGRAMUNIFORM3DVPROC)load("glProgramUniform3dv");

	lea	rcx, OFFSET FLAT:??_C@_0BE@DPJEGBGF@glProgramUniform3dv@
	call	get_proc

; 2050 : 	glad_glProgramUniform3ui = (PFNGLPROGRAMUNIFORM3UIPROC)load("glProgramUniform3ui");

	lea	rcx, OFFSET FLAT:??_C@_0BE@OPCKKGLM@glProgramUniform3ui@
	call	get_proc

; 2051 : 	glad_glProgramUniform3uiv = (PFNGLPROGRAMUNIFORM3UIVPROC)load("glProgramUniform3uiv");

	lea	rcx, OFFSET FLAT:??_C@_0BF@LLFNALHB@glProgramUniform3uiv@
	call	get_proc

; 2052 : 	glad_glProgramUniform4i = (PFNGLPROGRAMUNIFORM4IPROC)load("glProgramUniform4i");

	lea	rcx, OFFSET FLAT:??_C@_0BD@CIOAAEGH@glProgramUniform4i@
	call	get_proc

; 2053 : 	glad_glProgramUniform4iv = (PFNGLPROGRAMUNIFORM4IVPROC)load("glProgramUniform4iv");

	lea	rcx, OFFSET FLAT:??_C@_0BE@KKJLMKIP@glProgramUniform4iv@
	call	get_proc

; 2054 : 	glad_glProgramUniform4f = (PFNGLPROGRAMUNIFORM4FPROC)load("glProgramUniform4f");

	lea	rcx, OFFSET FLAT:??_C@_0BD@KPHIBIKI@glProgramUniform4f@
	call	get_proc

; 2055 : 	glad_glProgramUniform4fv = (PFNGLPROGRAMUNIFORM4FVPROC)load("glProgramUniform4fv");

	lea	rcx, OFFSET FLAT:??_C@_0BE@KBMHINLC@glProgramUniform4fv@
	call	get_proc

; 2056 : 	glad_glProgramUniform4d = (PFNGLPROGRAMUNIFORM4DPROC)load("glProgramUniform4d");

	lea	rcx, OFFSET FLAT:??_C@_0BD@JNEOHKCK@glProgramUniform4d@
	call	get_proc

; 2057 : 	glad_glProgramUniform4dv = (PFNGLPROGRAMUNIFORM4DVPROC)load("glProgramUniform4dv");

	lea	rcx, OFFSET FLAT:??_C@_0BE@KCEDFJNM@glProgramUniform4dv@
	call	get_proc

; 2058 : 	glad_glProgramUniform4ui = (PFNGLPROGRAMUNIFORM4UIPROC)load("glProgramUniform4ui");

	lea	rcx, OFFSET FLAT:??_C@_0BE@HCPNJOAF@glProgramUniform4ui@
	call	get_proc

; 2059 : 	glad_glProgramUniform4uiv = (PFNGLPROGRAMUNIFORM4UIVPROC)load("glProgramUniform4uiv");

	lea	rcx, OFFSET FLAT:??_C@_0BF@JHNNHGB@glProgramUniform4uiv@
	call	get_proc

; 2060 : 	glad_glProgramUniformMatrix2fv = (PFNGLPROGRAMUNIFORMMATRIX2FVPROC)load("glProgramUniformMatrix2fv");

	lea	rcx, OFFSET FLAT:??_C@_0BK@PDPPIOAF@glProgramUniformMatrix2fv@
	call	get_proc

; 2061 : 	glad_glProgramUniformMatrix3fv = (PFNGLPROGRAMUNIFORMMATRIX3FVPROC)load("glProgramUniformMatrix3fv");

	lea	rcx, OFFSET FLAT:??_C@_0BK@ELEDOJGA@glProgramUniformMatrix3fv@
	call	get_proc

; 2062 : 	glad_glProgramUniformMatrix4fv = (PFNGLPROGRAMUNIFORMMATRIX4FVPROC)load("glProgramUniformMatrix4fv");

	lea	rcx, OFFSET FLAT:??_C@_0BK@NGJENBNJ@glProgramUniformMatrix4fv@
	call	get_proc

; 2063 : 	glad_glProgramUniformMatrix2dv = (PFNGLPROGRAMUNIFORMMATRIX2DVPROC)load("glProgramUniformMatrix2dv");

	lea	rcx, OFFSET FLAT:??_C@_0BK@PAHLFKGL@glProgramUniformMatrix2dv@
	call	get_proc

; 2064 : 	glad_glProgramUniformMatrix3dv = (PFNGLPROGRAMUNIFORMMATRIX3DVPROC)load("glProgramUniformMatrix3dv");

	lea	rcx, OFFSET FLAT:??_C@_0BK@EIMHDNAO@glProgramUniformMatrix3dv@
	call	get_proc

; 2065 : 	glad_glProgramUniformMatrix4dv = (PFNGLPROGRAMUNIFORMMATRIX4DVPROC)load("glProgramUniformMatrix4dv");

	lea	rcx, OFFSET FLAT:??_C@_0BK@NFBAAFLH@glProgramUniformMatrix4dv@
	call	get_proc

; 2066 : 	glad_glProgramUniformMatrix2x3fv = (PFNGLPROGRAMUNIFORMMATRIX2X3FVPROC)load("glProgramUniformMatrix2x3fv");

	lea	rcx, OFFSET FLAT:??_C@_0BM@DBFCEBJD@glProgramUniformMatrix2x3fv@
	call	get_proc

; 2067 : 	glad_glProgramUniformMatrix3x2fv = (PFNGLPROGRAMUNIFORMMATRIX3X2FVPROC)load("glProgramUniformMatrix3x2fv");

	lea	rcx, OFFSET FLAT:??_C@_0BM@ECLCPFFD@glProgramUniformMatrix3x2fv@
	call	get_proc

; 2068 : 	glad_glProgramUniformMatrix2x4fv = (PFNGLPROGRAMUNIFORMMATRIX2X4FVPROC)load("glProgramUniformMatrix2x4fv");

	lea	rcx, OFFSET FLAT:??_C@_0BM@KMIFHJCK@glProgramUniformMatrix2x4fv@
	call	get_proc

; 2069 : 	glad_glProgramUniformMatrix4x2fv = (PFNGLPROGRAMUNIFORMMATRIX4X2FVPROC)load("glProgramUniformMatrix4x2fv");

	lea	rcx, OFFSET FLAT:??_C@_0BM@FPLHMFOL@glProgramUniformMatrix4x2fv@
	call	get_proc

; 2070 : 	glad_glProgramUniformMatrix3x4fv = (PFNGLPROGRAMUNIFORMMATRIX3X4FVPROC)load("glProgramUniformMatrix3x4fv");

	lea	rcx, OFFSET FLAT:??_C@_0BM@GHNJKKIP@glProgramUniformMatrix3x4fv@
	call	get_proc

; 2071 : 	glad_glProgramUniformMatrix4x3fv = (PFNGLPROGRAMUNIFORMMATRIX4X3FVPROC)load("glProgramUniformMatrix4x3fv");

	lea	rcx, OFFSET FLAT:??_C@_0BM@OHALKCIO@glProgramUniformMatrix4x3fv@
	call	get_proc

; 2072 : 	glad_glProgramUniformMatrix2x3dv = (PFNGLPROGRAMUNIFORMMATRIX2X3DVPROC)load("glProgramUniformMatrix2x3dv");

	lea	rcx, OFFSET FLAT:??_C@_0BM@DCNGJFPN@glProgramUniformMatrix2x3dv@
	call	get_proc

; 2073 : 	glad_glProgramUniformMatrix3x2dv = (PFNGLPROGRAMUNIFORMMATRIX3X2DVPROC)load("glProgramUniformMatrix3x2dv");

	lea	rcx, OFFSET FLAT:??_C@_0BM@EBDGCBDN@glProgramUniformMatrix3x2dv@
	call	get_proc

; 2074 : 	glad_glProgramUniformMatrix2x4dv = (PFNGLPROGRAMUNIFORMMATRIX2X4DVPROC)load("glProgramUniformMatrix2x4dv");

	lea	rcx, OFFSET FLAT:??_C@_0BM@KPABKNEE@glProgramUniformMatrix2x4dv@
	call	get_proc

; 2075 : 	glad_glProgramUniformMatrix4x2dv = (PFNGLPROGRAMUNIFORMMATRIX4X2DVPROC)load("glProgramUniformMatrix4x2dv");

	lea	rcx, OFFSET FLAT:??_C@_0BM@FMDDBBIF@glProgramUniformMatrix4x2dv@
	call	get_proc

; 2076 : 	glad_glProgramUniformMatrix3x4dv = (PFNGLPROGRAMUNIFORMMATRIX3X4DVPROC)load("glProgramUniformMatrix3x4dv");

	lea	rcx, OFFSET FLAT:??_C@_0BM@GEFNHOOB@glProgramUniformMatrix3x4dv@
	call	get_proc

; 2077 : 	glad_glProgramUniformMatrix4x3dv = (PFNGLPROGRAMUNIFORMMATRIX4X3DVPROC)load("glProgramUniformMatrix4x3dv");

	lea	rcx, OFFSET FLAT:??_C@_0BM@OEIPHGOA@glProgramUniformMatrix4x3dv@
	call	get_proc

; 2078 : 	glad_glValidateProgramPipeline = (PFNGLVALIDATEPROGRAMPIPELINEPROC)load("glValidateProgramPipeline");

	lea	rcx, OFFSET FLAT:??_C@_0BK@HHHCKEGH@glValidateProgramPipeline@
	call	get_proc

; 2079 : 	glad_glGetProgramPipelineInfoLog = (PFNGLGETPROGRAMPIPELINEINFOLOGPROC)load("glGetProgramPipelineInfoLog");

	lea	rcx, OFFSET FLAT:??_C@_0BM@BFFCFFFG@glGetProgramPipelineInfoLog@
	call	get_proc

; 2080 : 	glad_glVertexAttribL1d = (PFNGLVERTEXATTRIBL1DPROC)load("glVertexAttribL1d");

	lea	rcx, OFFSET FLAT:??_C@_0BC@KBPIECHE@glVertexAttribL1d@
	call	get_proc

; 2081 : 	glad_glVertexAttribL2d = (PFNGLVERTEXATTRIBL2DPROC)load("glVertexAttribL2d");

	lea	rcx, OFFSET FLAT:??_C@_0BC@KDLOPMCN@glVertexAttribL2d@
	call	get_proc

; 2082 : 	glad_glVertexAttribL3d = (PFNGLVERTEXATTRIBL3DPROC)load("glVertexAttribL3d");

	lea	rcx, OFFSET FLAT:??_C@_0BC@KCHMJGBK@glVertexAttribL3d@
	call	get_proc

; 2083 : 	glad_glVertexAttribL4d = (PFNGLVERTEXATTRIBL4DPROC)load("glVertexAttribL4d");

	lea	rcx, OFFSET FLAT:??_C@_0BC@KHDDIAJP@glVertexAttribL4d@
	call	get_proc

; 2084 : 	glad_glVertexAttribL1dv = (PFNGLVERTEXATTRIBL1DVPROC)load("glVertexAttribL1dv");

	lea	rcx, OFFSET FLAT:??_C@_0BD@COKMJDBH@glVertexAttribL1dv@
	call	get_proc

; 2085 : 	glad_glVertexAttribL2dv = (PFNGLVERTEXATTRIBL2DVPROC)load("glVertexAttribL2dv");

	lea	rcx, OFFSET FLAT:??_C@_0BD@DMBJDMPJ@glVertexAttribL2dv@
	call	get_proc

; 2086 : 	glad_glVertexAttribL3dv = (PFNGLVERTEXATTRIBL3DVPROC)load("glVertexAttribL3dv");

	lea	rcx, OFFSET FLAT:??_C@_0BD@IEKFFLJM@glVertexAttribL3dv@
	call	get_proc

; 2087 : 	glad_glVertexAttribL4dv = (PFNGLVERTEXATTRIBL4DVPROC)load("glVertexAttribL4dv");

	lea	rcx, OFFSET FLAT:??_C@_0BD@BJHCGDCF@glVertexAttribL4dv@
	call	get_proc

; 2088 : 	glad_glVertexAttribLPointer = (PFNGLVERTEXATTRIBLPOINTERPROC)load("glVertexAttribLPointer");

	lea	rcx, OFFSET FLAT:??_C@_0BH@JBHDDPGM@glVertexAttribLPointer@
	call	get_proc

; 2089 : 	glad_glGetVertexAttribLdv = (PFNGLGETVERTEXATTRIBLDVPROC)load("glGetVertexAttribLdv");

	lea	rcx, OFFSET FLAT:??_C@_0BF@JADLCNLO@glGetVertexAttribLdv@
	call	get_proc

; 2090 : 	glad_glViewportArrayv = (PFNGLVIEWPORTARRAYVPROC)load("glViewportArrayv");

	lea	rcx, OFFSET FLAT:??_C@_0BB@JIDIDPIB@glViewportArrayv@
	call	get_proc

; 2091 : 	glad_glViewportIndexedf = (PFNGLVIEWPORTINDEXEDFPROC)load("glViewportIndexedf");

	lea	rcx, OFFSET FLAT:??_C@_0BD@JIBIAPIN@glViewportIndexedf@
	call	get_proc

; 2092 : 	glad_glViewportIndexedfv = (PFNGLVIEWPORTINDEXEDFVPROC)load("glViewportIndexedfv");

	lea	rcx, OFFSET FLAT:??_C@_0BE@OKPEDJOC@glViewportIndexedfv@
	call	get_proc

; 2093 : 	glad_glScissorArrayv = (PFNGLSCISSORARRAYVPROC)load("glScissorArrayv");

	lea	rcx, OFFSET FLAT:??_C@_0BA@BMNFINIA@glScissorArrayv@
	call	get_proc

; 2094 : 	glad_glScissorIndexed = (PFNGLSCISSORINDEXEDPROC)load("glScissorIndexed");

	lea	rcx, OFFSET FLAT:??_C@_0BB@BJHNCIAL@glScissorIndexed@
	call	get_proc

; 2095 : 	glad_glScissorIndexedv = (PFNGLSCISSORINDEXEDVPROC)load("glScissorIndexedv");

	lea	rcx, OFFSET FLAT:??_C@_0BC@OOKOHKNA@glScissorIndexedv@
	call	get_proc

; 2096 : 	glad_glDepthRangeArrayv = (PFNGLDEPTHRANGEARRAYVPROC)load("glDepthRangeArrayv");

	lea	rcx, OFFSET FLAT:??_C@_0BD@JLCIOMKN@glDepthRangeArrayv@
	call	get_proc

; 2097 : 	glad_glDepthRangeIndexed = (PFNGLDEPTHRANGEINDEXEDPROC)load("glDepthRangeIndexed");

	lea	rcx, OFFSET FLAT:??_C@_0BE@FMCFIJBP@glDepthRangeIndexed@
	call	get_proc

; 2098 : 	glad_glGetFloati_v = (PFNGLGETFLOATI_VPROC)load("glGetFloati_v");

	lea	rcx, OFFSET FLAT:??_C@_0O@JKEOHGC@glGetFloati_v@
	call	get_proc

; 2099 : 	glad_glGetDoublei_v = (PFNGLGETDOUBLEI_VPROC)load("glGetDoublei_v");

	lea	rcx, OFFSET FLAT:??_C@_0P@PDJCBGIA@glGetDoublei_v@

; 2100 : }

	add	rsp, 40					; 00000028H

; 2099 : 	glad_glGetDoublei_v = (PFNGLGETDOUBLEI_VPROC)load("glGetDoublei_v");

	jmp	get_proc
$LN1@load_GL_VE:

; 2100 : }

	add	rsp, 40					; 00000028H
	ret	0
load_GL_VERSION_4_1 ENDP
_TEXT	ENDS
; Function compile flags: /Ogtpy
; File C:\Radiophobia\Radiophobia-main\glad.c
;	COMDAT load_GL_VERSION_4_2
_TEXT	SEGMENT
load$dead$ = 48
load_GL_VERSION_4_2 PROC				; COMDAT

; 2101 : static void load_GL_VERSION_4_2(GLADloadproc load) {

	sub	rsp, 40					; 00000028H

; 2102 : 	if(!GLAD_GL_VERSION_4_2) return;

	cmp	DWORD PTR GLAD_GL_VERSION_4_2, 0
	je	$LN1@load_GL_VE

; 2103 : 	glad_glDrawArraysInstancedBaseInstance = (PFNGLDRAWARRAYSINSTANCEDBASEINSTANCEPROC)load("glDrawArraysInstancedBaseInstance");

	lea	rcx, OFFSET FLAT:??_C@_0CC@FBJBJHCN@glDrawArraysInstancedBaseInstan@
	call	get_proc

; 2104 : 	glad_glDrawElementsInstancedBaseInstance = (PFNGLDRAWELEMENTSINSTANCEDBASEINSTANCEPROC)load("glDrawElementsInstancedBaseInstance");

	lea	rcx, OFFSET FLAT:??_C@_0CE@NGNINKJD@glDrawElementsInstancedBaseInst@
	call	get_proc

; 2105 : 	glad_glDrawElementsInstancedBaseVertexBaseInstance = (PFNGLDRAWELEMENTSINSTANCEDBASEVERTEXBASEINSTANCEPROC)load("glDrawElementsInstancedBaseVertexBaseInstance");

	lea	rcx, OFFSET FLAT:??_C@_0CO@GCMNEAOA@glDrawElementsInstancedBaseVert@
	call	get_proc

; 2106 : 	glad_glGetInternalformativ = (PFNGLGETINTERNALFORMATIVPROC)load("glGetInternalformativ");

	lea	rcx, OFFSET FLAT:??_C@_0BG@BAOCDJPF@glGetInternalformativ@
	call	get_proc

; 2107 : 	glad_glGetActiveAtomicCounterBufferiv = (PFNGLGETACTIVEATOMICCOUNTERBUFFERIVPROC)load("glGetActiveAtomicCounterBufferiv");

	lea	rcx, OFFSET FLAT:??_C@_0CB@CEHFMJFN@glGetActiveAtomicCounterBufferi@
	call	get_proc

; 2108 : 	glad_glBindImageTexture = (PFNGLBINDIMAGETEXTUREPROC)load("glBindImageTexture");

	lea	rcx, OFFSET FLAT:??_C@_0BD@GAKEPNGD@glBindImageTexture@
	call	get_proc

; 2109 : 	glad_glMemoryBarrier = (PFNGLMEMORYBARRIERPROC)load("glMemoryBarrier");

	lea	rcx, OFFSET FLAT:??_C@_0BA@HIHPNLBJ@glMemoryBarrier@
	call	get_proc

; 2110 : 	glad_glTexStorage1D = (PFNGLTEXSTORAGE1DPROC)load("glTexStorage1D");

	lea	rcx, OFFSET FLAT:??_C@_0P@LCLGPEBO@glTexStorage1D@
	call	get_proc

; 2111 : 	glad_glTexStorage2D = (PFNGLTEXSTORAGE2DPROC)load("glTexStorage2D");

	lea	rcx, OFFSET FLAT:??_C@_0P@LAPAEKEH@glTexStorage2D@
	call	get_proc

; 2112 : 	glad_glTexStorage3D = (PFNGLTEXSTORAGE3DPROC)load("glTexStorage3D");

	lea	rcx, OFFSET FLAT:??_C@_0P@LBDCCAHA@glTexStorage3D@
	call	get_proc

; 2113 : 	glad_glDrawTransformFeedbackInstanced = (PFNGLDRAWTRANSFORMFEEDBACKINSTANCEDPROC)load("glDrawTransformFeedbackInstanced");

	lea	rcx, OFFSET FLAT:??_C@_0CB@NDMLCEF@glDrawTransformFeedbackInstance@
	call	get_proc

; 2114 : 	glad_glDrawTransformFeedbackStreamInstanced = (PFNGLDRAWTRANSFORMFEEDBACKSTREAMINSTANCEDPROC)load("glDrawTransformFeedbackStreamInstanced");

	lea	rcx, OFFSET FLAT:??_C@_0CH@OMPFKBLK@glDrawTransformFeedbackStreamIn@

; 2115 : }

	add	rsp, 40					; 00000028H

; 2114 : 	glad_glDrawTransformFeedbackStreamInstanced = (PFNGLDRAWTRANSFORMFEEDBACKSTREAMINSTANCEDPROC)load("glDrawTransformFeedbackStreamInstanced");

	jmp	get_proc
$LN1@load_GL_VE:

; 2115 : }

	add	rsp, 40					; 00000028H
	ret	0
load_GL_VERSION_4_2 ENDP
_TEXT	ENDS
; Function compile flags: /Ogtpy
; File C:\Radiophobia\Radiophobia-main\glad.c
;	COMDAT load_GL_VERSION_4_3
_TEXT	SEGMENT
load$dead$ = 48
load_GL_VERSION_4_3 PROC				; COMDAT

; 2116 : static void load_GL_VERSION_4_3(GLADloadproc load) {

	sub	rsp, 40					; 00000028H

; 2117 : 	if(!GLAD_GL_VERSION_4_3) return;

	cmp	DWORD PTR GLAD_GL_VERSION_4_3, 0
	je	$LN1@load_GL_VE

; 2118 : 	glad_glClearBufferData = (PFNGLCLEARBUFFERDATAPROC)load("glClearBufferData");

	lea	rcx, OFFSET FLAT:??_C@_0BC@FCMBBKMP@glClearBufferData@
	call	get_proc

; 2119 : 	glad_glClearBufferSubData = (PFNGLCLEARBUFFERSUBDATAPROC)load("glClearBufferSubData");

	lea	rcx, OFFSET FLAT:??_C@_0BF@FDHIBCMD@glClearBufferSubData@
	call	get_proc

; 2120 : 	glad_glDispatchCompute = (PFNGLDISPATCHCOMPUTEPROC)load("glDispatchCompute");

	lea	rcx, OFFSET FLAT:??_C@_0BC@DKKFFIGC@glDispatchCompute@
	call	get_proc

; 2121 : 	glad_glDispatchComputeIndirect = (PFNGLDISPATCHCOMPUTEINDIRECTPROC)load("glDispatchComputeIndirect");

	lea	rcx, OFFSET FLAT:??_C@_0BK@EJMOGMMI@glDispatchComputeIndirect@
	call	get_proc

; 2122 : 	glad_glCopyImageSubData = (PFNGLCOPYIMAGESUBDATAPROC)load("glCopyImageSubData");

	lea	rcx, OFFSET FLAT:??_C@_0BD@BNCHOBBL@glCopyImageSubData@
	call	get_proc

; 2123 : 	glad_glFramebufferParameteri = (PFNGLFRAMEBUFFERPARAMETERIPROC)load("glFramebufferParameteri");

	lea	rcx, OFFSET FLAT:??_C@_0BI@MLACHGDK@glFramebufferParameteri@
	call	get_proc

; 2124 : 	glad_glGetFramebufferParameteriv = (PFNGLGETFRAMEBUFFERPARAMETERIVPROC)load("glGetFramebufferParameteriv");

	lea	rcx, OFFSET FLAT:??_C@_0BM@BFEEFCMK@glGetFramebufferParameteriv@
	call	get_proc

; 2125 : 	glad_glGetInternalformati64v = (PFNGLGETINTERNALFORMATI64VPROC)load("glGetInternalformati64v");

	lea	rcx, OFFSET FLAT:??_C@_0BI@PHNNEGBD@glGetInternalformati64v@
	call	get_proc

; 2126 : 	glad_glInvalidateTexSubImage = (PFNGLINVALIDATETEXSUBIMAGEPROC)load("glInvalidateTexSubImage");

	lea	rcx, OFFSET FLAT:??_C@_0BI@FJDKFLGL@glInvalidateTexSubImage@
	call	get_proc

; 2127 : 	glad_glInvalidateTexImage = (PFNGLINVALIDATETEXIMAGEPROC)load("glInvalidateTexImage");

	lea	rcx, OFFSET FLAT:??_C@_0BF@KHIECPKG@glInvalidateTexImage@
	call	get_proc

; 2128 : 	glad_glInvalidateBufferSubData = (PFNGLINVALIDATEBUFFERSUBDATAPROC)load("glInvalidateBufferSubData");

	lea	rcx, OFFSET FLAT:??_C@_0BK@HOHOHNAC@glInvalidateBufferSubData@
	call	get_proc

; 2129 : 	glad_glInvalidateBufferData = (PFNGLINVALIDATEBUFFERDATAPROC)load("glInvalidateBufferData");

	lea	rcx, OFFSET FLAT:??_C@_0BH@OGIFIBHA@glInvalidateBufferData@
	call	get_proc

; 2130 : 	glad_glInvalidateFramebuffer = (PFNGLINVALIDATEFRAMEBUFFERPROC)load("glInvalidateFramebuffer");

	lea	rcx, OFFSET FLAT:??_C@_0BI@OAJPOHIP@glInvalidateFramebuffer@
	call	get_proc

; 2131 : 	glad_glInvalidateSubFramebuffer = (PFNGLINVALIDATESUBFRAMEBUFFERPROC)load("glInvalidateSubFramebuffer");

	lea	rcx, OFFSET FLAT:??_C@_0BL@IHGLAPPE@glInvalidateSubFramebuffer@
	call	get_proc

; 2132 : 	glad_glMultiDrawArraysIndirect = (PFNGLMULTIDRAWARRAYSINDIRECTPROC)load("glMultiDrawArraysIndirect");

	lea	rcx, OFFSET FLAT:??_C@_0BK@IKGAIKOP@glMultiDrawArraysIndirect@
	call	get_proc

; 2133 : 	glad_glMultiDrawElementsIndirect = (PFNGLMULTIDRAWELEMENTSINDIRECTPROC)load("glMultiDrawElementsIndirect");

	lea	rcx, OFFSET FLAT:??_C@_0BM@KHEEFMKO@glMultiDrawElementsIndirect@
	call	get_proc

; 2134 : 	glad_glGetProgramInterfaceiv = (PFNGLGETPROGRAMINTERFACEIVPROC)load("glGetProgramInterfaceiv");

	lea	rcx, OFFSET FLAT:??_C@_0BI@ICGPDPK@glGetProgramInterfaceiv@
	call	get_proc

; 2135 : 	glad_glGetProgramResourceIndex = (PFNGLGETPROGRAMRESOURCEINDEXPROC)load("glGetProgramResourceIndex");

	lea	rcx, OFFSET FLAT:??_C@_0BK@DBDCONKB@glGetProgramResourceIndex@
	call	get_proc

; 2136 : 	glad_glGetProgramResourceName = (PFNGLGETPROGRAMRESOURCENAMEPROC)load("glGetProgramResourceName");

	lea	rcx, OFFSET FLAT:??_C@_0BJ@OHCPEAGJ@glGetProgramResourceName@
	call	get_proc

; 2137 : 	glad_glGetProgramResourceiv = (PFNGLGETPROGRAMRESOURCEIVPROC)load("glGetProgramResourceiv");

	lea	rcx, OFFSET FLAT:??_C@_0BH@LEDFEPHI@glGetProgramResourceiv@
	call	get_proc

; 2138 : 	glad_glGetProgramResourceLocation = (PFNGLGETPROGRAMRESOURCELOCATIONPROC)load("glGetProgramResourceLocation");

	lea	rcx, OFFSET FLAT:??_C@_0BN@BIJNENLC@glGetProgramResourceLocation@
	call	get_proc

; 2139 : 	glad_glGetProgramResourceLocationIndex = (PFNGLGETPROGRAMRESOURCELOCATIONINDEXPROC)load("glGetProgramResourceLocationIndex");

	lea	rcx, OFFSET FLAT:??_C@_0CC@GHECGAIH@glGetProgramResourceLocationInd@
	call	get_proc

; 2140 : 	glad_glShaderStorageBlockBinding = (PFNGLSHADERSTORAGEBLOCKBINDINGPROC)load("glShaderStorageBlockBinding");

	lea	rcx, OFFSET FLAT:??_C@_0BM@GDDCNIBO@glShaderStorageBlockBinding@
	call	get_proc

; 2141 : 	glad_glTexBufferRange = (PFNGLTEXBUFFERRANGEPROC)load("glTexBufferRange");

	lea	rcx, OFFSET FLAT:??_C@_0BB@DPMGLFNI@glTexBufferRange@
	call	get_proc

; 2142 : 	glad_glTexStorage2DMultisample = (PFNGLTEXSTORAGE2DMULTISAMPLEPROC)load("glTexStorage2DMultisample");

	lea	rcx, OFFSET FLAT:??_C@_0BK@PDJAKDKP@glTexStorage2DMultisample@
	call	get_proc

; 2143 : 	glad_glTexStorage3DMultisample = (PFNGLTEXSTORAGE3DMULTISAMPLEPROC)load("glTexStorage3DMultisample");

	lea	rcx, OFFSET FLAT:??_C@_0BK@GOJPECNJ@glTexStorage3DMultisample@
	call	get_proc

; 2144 : 	glad_glTextureView = (PFNGLTEXTUREVIEWPROC)load("glTextureView");

	lea	rcx, OFFSET FLAT:??_C@_0O@BNFDGIMP@glTextureView@
	call	get_proc

; 2145 : 	glad_glBindVertexBuffer = (PFNGLBINDVERTEXBUFFERPROC)load("glBindVertexBuffer");

	lea	rcx, OFFSET FLAT:??_C@_0BD@FCGJAOHG@glBindVertexBuffer@
	call	get_proc

; 2146 : 	glad_glVertexAttribFormat = (PFNGLVERTEXATTRIBFORMATPROC)load("glVertexAttribFormat");

	lea	rcx, OFFSET FLAT:??_C@_0BF@JEIPPBFE@glVertexAttribFormat@
	call	get_proc

; 2147 : 	glad_glVertexAttribIFormat = (PFNGLVERTEXATTRIBIFORMATPROC)load("glVertexAttribIFormat");

	lea	rcx, OFFSET FLAT:??_C@_0BG@KJAHAHDI@glVertexAttribIFormat@
	call	get_proc

; 2148 : 	glad_glVertexAttribLFormat = (PFNGLVERTEXATTRIBLFORMATPROC)load("glVertexAttribLFormat");

	lea	rcx, OFFSET FLAT:??_C@_0BG@OBOHAJFM@glVertexAttribLFormat@
	call	get_proc

; 2149 : 	glad_glVertexAttribBinding = (PFNGLVERTEXATTRIBBINDINGPROC)load("glVertexAttribBinding");

	lea	rcx, OFFSET FLAT:??_C@_0BG@MLFHCGE@glVertexAttribBinding@
	call	get_proc

; 2150 : 	glad_glVertexBindingDivisor = (PFNGLVERTEXBINDINGDIVISORPROC)load("glVertexBindingDivisor");

	lea	rcx, OFFSET FLAT:??_C@_0BH@GNGCLGOI@glVertexBindingDivisor@
	call	get_proc

; 2151 : 	glad_glDebugMessageControl = (PFNGLDEBUGMESSAGECONTROLPROC)load("glDebugMessageControl");

	lea	rcx, OFFSET FLAT:??_C@_0BG@MNBDCEEP@glDebugMessageControl@
	call	get_proc

; 2152 : 	glad_glDebugMessageInsert = (PFNGLDEBUGMESSAGEINSERTPROC)load("glDebugMessageInsert");

	lea	rcx, OFFSET FLAT:??_C@_0BF@DGOJNFDO@glDebugMessageInsert@
	call	get_proc

; 2153 : 	glad_glDebugMessageCallback = (PFNGLDEBUGMESSAGECALLBACKPROC)load("glDebugMessageCallback");

	lea	rcx, OFFSET FLAT:??_C@_0BH@IGFENJCI@glDebugMessageCallback@
	call	get_proc

; 2154 : 	glad_glGetDebugMessageLog = (PFNGLGETDEBUGMESSAGELOGPROC)load("glGetDebugMessageLog");

	lea	rcx, OFFSET FLAT:??_C@_0BF@FGBMJKND@glGetDebugMessageLog@
	call	get_proc

; 2155 : 	glad_glPushDebugGroup = (PFNGLPUSHDEBUGGROUPPROC)load("glPushDebugGroup");

	lea	rcx, OFFSET FLAT:??_C@_0BB@DEFFBEGJ@glPushDebugGroup@
	call	get_proc

; 2156 : 	glad_glPopDebugGroup = (PFNGLPOPDEBUGGROUPPROC)load("glPopDebugGroup");

	lea	rcx, OFFSET FLAT:??_C@_0BA@PMJBDENK@glPopDebugGroup@
	call	get_proc

; 2157 : 	glad_glObjectLabel = (PFNGLOBJECTLABELPROC)load("glObjectLabel");

	lea	rcx, OFFSET FLAT:??_C@_0O@EFJDECDM@glObjectLabel@
	call	get_proc

; 2158 : 	glad_glGetObjectLabel = (PFNGLGETOBJECTLABELPROC)load("glGetObjectLabel");

	lea	rcx, OFFSET FLAT:??_C@_0BB@MOEDHKDB@glGetObjectLabel@
	call	get_proc

; 2159 : 	glad_glObjectPtrLabel = (PFNGLOBJECTPTRLABELPROC)load("glObjectPtrLabel");

	lea	rcx, OFFSET FLAT:??_C@_0BB@FBABGDIL@glObjectPtrLabel@
	call	get_proc

; 2160 : 	glad_glGetObjectPtrLabel = (PFNGLGETOBJECTPTRLABELPROC)load("glGetObjectPtrLabel");

	lea	rcx, OFFSET FLAT:??_C@_0BE@MIJFJOHM@glGetObjectPtrLabel@
	call	get_proc

; 2161 : 	glad_glGetPointerv = (PFNGLGETPOINTERVPROC)load("glGetPointerv");

	lea	rcx, OFFSET FLAT:??_C@_0O@LADEDGJO@glGetPointerv@

; 2162 : }

	add	rsp, 40					; 00000028H

; 2161 : 	glad_glGetPointerv = (PFNGLGETPOINTERVPROC)load("glGetPointerv");

	jmp	get_proc
$LN1@load_GL_VE:

; 2162 : }

	add	rsp, 40					; 00000028H
	ret	0
load_GL_VERSION_4_3 ENDP
_TEXT	ENDS
; Function compile flags: /Ogtpy
; File C:\Radiophobia\Radiophobia-main\glad.c
;	COMDAT load_GL_VERSION_4_4
_TEXT	SEGMENT
load$dead$ = 48
load_GL_VERSION_4_4 PROC				; COMDAT

; 2163 : static void load_GL_VERSION_4_4(GLADloadproc load) {

	sub	rsp, 40					; 00000028H

; 2164 : 	if(!GLAD_GL_VERSION_4_4) return;

	cmp	DWORD PTR GLAD_GL_VERSION_4_4, 0
	je	SHORT $LN1@load_GL_VE

; 2165 : 	glad_glBufferStorage = (PFNGLBUFFERSTORAGEPROC)load("glBufferStorage");

	lea	rcx, OFFSET FLAT:??_C@_0BA@COBILMHM@glBufferStorage@
	call	get_proc

; 2166 : 	glad_glClearTexImage = (PFNGLCLEARTEXIMAGEPROC)load("glClearTexImage");

	lea	rcx, OFFSET FLAT:??_C@_0BA@FNPOIBAF@glClearTexImage@
	call	get_proc

; 2167 : 	glad_glClearTexSubImage = (PFNGLCLEARTEXSUBIMAGEPROC)load("glClearTexSubImage");

	lea	rcx, OFFSET FLAT:??_C@_0BD@CFALBON@glClearTexSubImage@
	call	get_proc

; 2168 : 	glad_glBindBuffersBase = (PFNGLBINDBUFFERSBASEPROC)load("glBindBuffersBase");

	lea	rcx, OFFSET FLAT:??_C@_0BC@ENBBLPHM@glBindBuffersBase@
	call	get_proc

; 2169 : 	glad_glBindBuffersRange = (PFNGLBINDBUFFERSRANGEPROC)load("glBindBuffersRange");

	lea	rcx, OFFSET FLAT:??_C@_0BD@ODFFOKPN@glBindBuffersRange@
	call	get_proc

; 2170 : 	glad_glBindTextures = (PFNGLBINDTEXTURESPROC)load("glBindTextures");

	lea	rcx, OFFSET FLAT:??_C@_0P@KHDEIIMA@glBindTextures@
	call	get_proc

; 2171 : 	glad_glBindSamplers = (PFNGLBINDSAMPLERSPROC)load("glBindSamplers");

	lea	rcx, OFFSET FLAT:??_C@_0P@FADPDFKM@glBindSamplers@
	call	get_proc

; 2172 : 	glad_glBindImageTextures = (PFNGLBINDIMAGETEXTURESPROC)load("glBindImageTextures");

	lea	rcx, OFFSET FLAT:??_C@_0BE@NAMJLOCK@glBindImageTextures@
	call	get_proc

; 2173 : 	glad_glBindVertexBuffers = (PFNGLBINDVERTEXBUFFERSPROC)load("glBindVertexBuffers");

	lea	rcx, OFFSET FLAT:??_C@_0BE@LNCGJHDC@glBindVertexBuffers@

; 2174 : }

	add	rsp, 40					; 00000028H

; 2173 : 	glad_glBindVertexBuffers = (PFNGLBINDVERTEXBUFFERSPROC)load("glBindVertexBuffers");

	jmp	get_proc
$LN1@load_GL_VE:

; 2174 : }

	add	rsp, 40					; 00000028H
	ret	0
load_GL_VERSION_4_4 ENDP
_TEXT	ENDS
; Function compile flags: /Ogtpy
; File C:\Radiophobia\Radiophobia-main\glad.c
;	COMDAT find_extensionsGL
_TEXT	SEGMENT
find_extensionsGL PROC					; COMDAT

; 2175 : static int find_extensionsGL(void) {

	push	rbx
	push	rdi
	push	r12
	sub	rsp, 32					; 00000020H

; 174  :     if(max_loaded_major < 3) {

	cmp	DWORD PTR max_loaded_major, 3
	jge	SHORT $LN8@find_exten

; 175  : #endif
; 176  :         exts = (const char *)glGetString(GL_EXTENSIONS);

	mov	ecx, 7939				; 00001f03H
	call	QWORD PTR glad_glGetString

; 177  : #ifdef _GLAD_IS_SOME_NEW_VERSION
; 178  :     } else {

	mov	ecx, DWORD PTR num_exts_i
	mov	QWORD PTR exts, rax
	mov	rax, QWORD PTR exts_i
	jmp	$LN2@find_exten
$LN8@find_exten:

; 179  :         int index;
; 180  : 
; 181  :         num_exts_i = 0;
; 182  :         glGetIntegerv(GL_NUM_EXTENSIONS, &num_exts_i);

	lea	rdx, OFFSET FLAT:num_exts_i
	mov	DWORD PTR num_exts_i, 0
	mov	ecx, 33309				; 0000821dH
	call	QWORD PTR glad_glGetIntegerv

; 183  :         if (num_exts_i > 0) {

	movsxd	rcx, DWORD PTR num_exts_i
	mov	r12, -1
	test	ecx, ecx
	jle	SHORT $LN30@find_exten

; 184  :             exts_i = (char **)malloc((size_t)num_exts_i * (sizeof *exts_i));

	mov	eax, 8
	mul	rcx
	cmovo	rax, r12
	mov	rcx, rax
	call	QWORD PTR __imp_malloc
	mov	ecx, DWORD PTR num_exts_i
	mov	QWORD PTR exts_i, rax
	jmp	SHORT $LN10@find_exten
$LN30@find_exten:

; 183  :         if (num_exts_i > 0) {

	mov	rax, QWORD PTR exts_i
$LN10@find_exten:

; 185  :         }
; 186  : 
; 187  :         if (exts_i == NULL) {

	test	rax, rax
	jne	SHORT $LN11@find_exten

; 2180 : }

	add	rsp, 32					; 00000020H
	pop	r12
	pop	rdi
	pop	rbx
	ret	0
$LN11@find_exten:

; 191  :         for(index = 0; index < num_exts_i; index++) {

	xor	edi, edi
	test	ecx, ecx
	jle	$LN2@find_exten
	mov	QWORD PTR [rsp+64], rbp
	mov	QWORD PTR [rsp+72], rsi
	mov	QWORD PTR [rsp+80], r14
	xor	r14d, r14d
	npad	7
$LL7@find_exten:

; 192  :             const char *gl_str_tmp = (const char*)glGetStringi(GL_EXTENSIONS, index);

	mov	edx, edi
	mov	ecx, 7939				; 00001f03H
	call	QWORD PTR glad_glGetStringi
	mov	rbx, rax

; 193  :             size_t len = strlen(gl_str_tmp);

	mov	rcx, r12
$LL29@find_exten:
	cmp	BYTE PTR [rax+rcx+1], 0
	lea	rcx, QWORD PTR [rcx+1]
	jne	SHORT $LL29@find_exten

; 194  : 
; 195  :             char *local_str = (char*)malloc((len+1) * sizeof(char));

	lea	rbp, QWORD PTR [rcx+1]
	mov	rcx, rbp
	call	QWORD PTR __imp_malloc
	mov	rsi, rax

; 196  :             if(local_str != NULL) {

	test	rax, rax
	je	SHORT $LN12@find_exten

; 197  :                 memcpy(local_str, gl_str_tmp, (len+1) * sizeof(char));

	mov	r8, rbp
	mov	rdx, rbx
	mov	rcx, rax
	call	memcpy
$LN12@find_exten:

; 198  :             }
; 199  :             exts_i[index] = local_str;

	mov	rax, QWORD PTR exts_i
	inc	edi
	mov	QWORD PTR [r14+rax], rsi
	add	r14, 8
	mov	ecx, DWORD PTR num_exts_i
	cmp	edi, ecx
	jl	SHORT $LL7@find_exten

; 188  :             return 0;
; 189  :         }
; 190  : 
; 191  :         for(index = 0; index < num_exts_i; index++) {

	mov	r14, QWORD PTR [rsp+80]
	mov	rsi, QWORD PTR [rsp+72]
	mov	rbp, QWORD PTR [rsp+64]
$LN2@find_exten:

; 207  :     if (exts_i != NULL) {

	test	rax, rax
	je	SHORT $LN18@find_exten

; 208  :         int index;
; 209  :         for(index = 0; index < num_exts_i; index++) {

	xor	edi, edi
	test	ecx, ecx
	jle	SHORT $LN16@find_exten
	xor	ebx, ebx
	npad	8
$LL17@find_exten:

; 210  :             free((char *)exts_i[index]);

	mov	rcx, QWORD PTR [rbx+rax]
	call	QWORD PTR __imp_free
	mov	rax, QWORD PTR exts_i
	lea	rbx, QWORD PTR [rbx+8]
	inc	edi
	cmp	edi, DWORD PTR num_exts_i
	jl	SHORT $LL17@find_exten
$LN16@find_exten:

; 211  :         }
; 212  :         free((void *)exts_i);

	mov	rcx, rax
	call	QWORD PTR __imp_free

; 213  :         exts_i = NULL;

	mov	QWORD PTR exts_i, 0
$LN18@find_exten:

; 2176 : 	if (!get_exts()) return 0;
; 2177 : 	(void)&has_ext;
; 2178 : 	free_exts();
; 2179 : 	return 1;

	mov	eax, 1

; 2180 : }

	add	rsp, 32					; 00000020H
	pop	r12
	pop	rdi
	pop	rbx
	ret	0
find_extensionsGL ENDP
_TEXT	ENDS
; Function compile flags: /Ogtpy
; File C:\Radiophobia\Radiophobia-main\glad.c
;	COMDAT find_coreGL
_TEXT	SEGMENT
prefixes$ = 32
major$ = 64
minor$ = 68
__$ArrayPad$ = 72
find_coreGL PROC					; COMDAT

; 2182 : static void find_coreGL(void) {

	mov	QWORD PTR [rsp+24], rsi
	mov	QWORD PTR [rsp+32], rdi
	push	r14
	sub	rsp, 80					; 00000050H
	mov	rax, QWORD PTR __security_cookie
	xor	rax, rsp
	mov	QWORD PTR __$ArrayPad$[rsp], rax

; 2183 : 
; 2184 :     /* Thank you @elmindreda
; 2185 :      * https://github.com/elmindreda/greg/blob/master/templates/greg.c.in#L176
; 2186 :      * https://github.com/glfw/glfw/blob/master/src/context.c#L36
; 2187 :      */
; 2188 :     int i, major, minor;
; 2189 : 
; 2190 :     const char* version;
; 2191 :     const char* prefixes[] = {

	lea	rax, OFFSET FLAT:??_C@_0O@EMKFPNOG@OpenGL?5ES?9CL?5@
	xor	esi, esi
	mov	QWORD PTR prefixes$[rsp+8], rax
	lea	rdi, OFFSET FLAT:??_C@_0O@ENGHJHNB@OpenGL?5ES?9CM?5@
	lea	rax, OFFSET FLAT:??_C@_0L@JLFHOCGA@OpenGL?5ES?5@
	mov	QWORD PTR prefixes$[rsp], rdi

; 2192 :         "OpenGL ES-CM ",
; 2193 :         "OpenGL ES-CL ",
; 2194 :         "OpenGL ES ",
; 2195 :         NULL
; 2196 :     };
; 2197 : 
; 2198 :     version = (const char*) glGetString(GL_VERSION);

	mov	ecx, 7938				; 00001f02H
	mov	QWORD PTR prefixes$[rsp+16], rax
	mov	QWORD PTR prefixes$[rsp+24], rsi
	call	QWORD PTR glad_glGetString
	mov	r14, rax

; 2199 :     if (!version) return;

	test	rax, rax
	je	$LN7@find_coreG
	mov	QWORD PTR [rsp+96], rbx
	mov	QWORD PTR [rsp+104], rbp
	mov	ebp, esi
	npad	3
$LL4@find_coreG:

; 2202 :         const size_t length = strlen(prefixes[i]);

	mov	rbx, -1
$LL83@find_coreG:
	inc	rbx
	cmp	BYTE PTR [rdi+rbx], sil
	jne	SHORT $LL83@find_coreG

; 2203 :         if (strncmp(version, prefixes[i], length) == 0) {

	mov	r8, rbx
	mov	rdx, rdi
	mov	rcx, r14
	call	QWORD PTR __imp_strncmp
	test	eax, eax
	je	SHORT $LN62@find_coreG

; 2200 : 
; 2201 :     for (i = 0;  prefixes[i];  i++) {

	mov	rdi, QWORD PTR prefixes$[rsp+rbp*8+8]
	inc	rbp
	test	rdi, rdi
	jne	SHORT $LL4@find_coreG

; 2203 :         if (strncmp(version, prefixes[i], length) == 0) {

	jmp	SHORT $LN3@find_coreG
$LN62@find_coreG:

; 2204 :             version += length;

	add	r14, rbx
$LN3@find_coreG:

; 2205 :             break;
; 2206 :         }
; 2207 :     }
; 2208 : 
; 2209 : /* PR #18 */
; 2210 : #ifdef _MSC_VER
; 2211 :     sscanf_s(version, "%d.%d", &major, &minor);

	lea	r9, QWORD PTR minor$[rsp]
	mov	rcx, r14
	lea	r8, QWORD PTR major$[rsp]
	lea	rdx, OFFSET FLAT:??_C@_05KBEOJPB@?$CFd?4?$CFd@
	call	sscanf_s

; 2212 : #else
; 2213 :     sscanf(version, "%d.%d", &major, &minor);
; 2214 : #endif
; 2215 : 
; 2216 :     GLVersion.major = major; GLVersion.minor = minor;

	mov	eax, DWORD PTR major$[rsp]
	mov	ecx, DWORD PTR minor$[rsp]

; 2217 :     max_loaded_major = major; max_loaded_minor = minor;

	mov	rbp, QWORD PTR [rsp+104]
	mov	rbx, QWORD PTR [rsp+96]
	mov	DWORD PTR GLVersion, eax
	mov	DWORD PTR GLVersion+4, ecx
	mov	DWORD PTR max_loaded_major, eax

; 2218 : 	GLAD_GL_VERSION_1_0 = (major == 1 && minor >= 0) || major > 1;

	cmp	eax, 1
	jne	$LN10@find_coreG
	test	ecx, ecx
	js	$LN66@find_coreG
$LN11@find_coreG:
	mov	edx, 1
$LN12@find_coreG:

; 2219 : 	GLAD_GL_VERSION_1_1 = (major == 1 && minor >= 1) || major > 1;

	mov	DWORD PTR GLAD_GL_VERSION_1_0, edx
	cmp	eax, 1
	jne	$LN13@find_coreG
	cmp	ecx, eax
	jl	$LN67@find_coreG
$LN14@find_coreG:
	mov	edx, 1
$LN15@find_coreG:

; 2220 : 	GLAD_GL_VERSION_1_2 = (major == 1 && minor >= 2) || major > 1;

	mov	DWORD PTR GLAD_GL_VERSION_1_1, edx
	cmp	eax, 1
	jne	$LN16@find_coreG
	cmp	ecx, 2
	jl	$LN68@find_coreG
$LN17@find_coreG:
	mov	edx, 1
$LN18@find_coreG:

; 2221 : 	GLAD_GL_VERSION_1_3 = (major == 1 && minor >= 3) || major > 1;

	mov	DWORD PTR GLAD_GL_VERSION_1_2, edx
	cmp	eax, 1
	jne	$LN19@find_coreG
	cmp	ecx, 3
	jl	$LN69@find_coreG
$LN20@find_coreG:
	mov	edx, 1
$LN21@find_coreG:

; 2222 : 	GLAD_GL_VERSION_1_4 = (major == 1 && minor >= 4) || major > 1;

	mov	DWORD PTR GLAD_GL_VERSION_1_3, edx
	cmp	eax, 1
	jne	$LN22@find_coreG
	cmp	ecx, 4
	jl	$LN70@find_coreG
$LN23@find_coreG:
	mov	edx, 1
$LN24@find_coreG:

; 2223 : 	GLAD_GL_VERSION_1_5 = (major == 1 && minor >= 5) || major > 1;

	mov	DWORD PTR GLAD_GL_VERSION_1_4, edx
	cmp	eax, 1
	jne	$LN25@find_coreG
	cmp	ecx, 5
	jl	$LN71@find_coreG
$LN26@find_coreG:
	mov	edx, 1
$LN27@find_coreG:

; 2224 : 	GLAD_GL_VERSION_2_0 = (major == 2 && minor >= 0) || major > 2;

	mov	DWORD PTR GLAD_GL_VERSION_1_5, edx
	cmp	eax, 2
	jne	$LN28@find_coreG
	test	ecx, ecx
	js	$LN72@find_coreG
$LN29@find_coreG:
	mov	edx, 1
$LN30@find_coreG:

; 2225 : 	GLAD_GL_VERSION_2_1 = (major == 2 && minor >= 1) || major > 2;

	mov	DWORD PTR GLAD_GL_VERSION_2_0, edx
	cmp	eax, 2
	jne	$LN31@find_coreG
	cmp	ecx, 1
	jl	$LN73@find_coreG
$LN32@find_coreG:
	mov	edx, 1
$LN33@find_coreG:

; 2226 : 	GLAD_GL_VERSION_3_0 = (major == 3 && minor >= 0) || major > 3;

	mov	DWORD PTR GLAD_GL_VERSION_2_1, edx
	cmp	eax, 3
	jne	$LN34@find_coreG
	test	ecx, ecx
	js	$LN74@find_coreG
$LN35@find_coreG:
	mov	edx, 1
$LN36@find_coreG:

; 2227 : 	GLAD_GL_VERSION_3_1 = (major == 3 && minor >= 1) || major > 3;

	mov	DWORD PTR GLAD_GL_VERSION_3_0, edx
	cmp	eax, 3
	jne	$LN37@find_coreG
	cmp	ecx, 1
	jl	$LN75@find_coreG
$LN38@find_coreG:
	mov	edx, 1
$LN39@find_coreG:

; 2228 : 	GLAD_GL_VERSION_3_2 = (major == 3 && minor >= 2) || major > 3;

	mov	DWORD PTR GLAD_GL_VERSION_3_1, edx
	cmp	eax, 3
	jne	$LN40@find_coreG
	cmp	ecx, 2
	jl	$LN76@find_coreG
$LN41@find_coreG:
	mov	edx, 1
$LN42@find_coreG:

; 2229 : 	GLAD_GL_VERSION_3_3 = (major == 3 && minor >= 3) || major > 3;

	mov	DWORD PTR GLAD_GL_VERSION_3_2, edx
	cmp	eax, 3
	jne	$LN43@find_coreG
	cmp	ecx, eax
	jl	$LN77@find_coreG
$LN44@find_coreG:
	mov	edx, 1
$LN45@find_coreG:

; 2230 : 	GLAD_GL_VERSION_4_0 = (major == 4 && minor >= 0) || major > 4;

	mov	DWORD PTR GLAD_GL_VERSION_3_3, edx
	cmp	eax, 4
	jne	$LN46@find_coreG
	test	ecx, ecx
	js	$LN78@find_coreG
$LN47@find_coreG:
	mov	edx, 1
$LN48@find_coreG:

; 2231 : 	GLAD_GL_VERSION_4_1 = (major == 4 && minor >= 1) || major > 4;

	mov	DWORD PTR GLAD_GL_VERSION_4_0, edx
	cmp	eax, 4
	jne	$LN49@find_coreG
	cmp	ecx, 1
	jl	$LN79@find_coreG
$LN50@find_coreG:
	mov	edx, 1
$LN51@find_coreG:

; 2232 : 	GLAD_GL_VERSION_4_2 = (major == 4 && minor >= 2) || major > 4;

	mov	DWORD PTR GLAD_GL_VERSION_4_1, edx
	cmp	eax, 4
	jne	$LN52@find_coreG
	cmp	ecx, 2
	jl	$LN80@find_coreG
$LN53@find_coreG:
	mov	edx, 1
$LN54@find_coreG:

; 2233 : 	GLAD_GL_VERSION_4_3 = (major == 4 && minor >= 3) || major > 4;

	mov	DWORD PTR GLAD_GL_VERSION_4_2, edx
	cmp	eax, 4
	jne	$LN55@find_coreG
	cmp	ecx, 3
	jl	$LN81@find_coreG
$LN56@find_coreG:
	mov	edx, 1
$LN57@find_coreG:

; 2234 : 	GLAD_GL_VERSION_4_4 = (major == 4 && minor >= 4) || major > 4;

	mov	DWORD PTR GLAD_GL_VERSION_4_3, edx
	cmp	eax, 4
	jne	$LN58@find_coreG
	cmp	ecx, eax
	jge	$LN59@find_coreG
	jmp	$LN60@find_coreG
$LN10@find_coreG:

; 2218 : 	GLAD_GL_VERSION_1_0 = (major == 1 && minor >= 0) || major > 1;

	jg	$LN11@find_coreG
$LN66@find_coreG:
	mov	edx, esi
	jmp	$LN12@find_coreG
$LN13@find_coreG:

; 2219 : 	GLAD_GL_VERSION_1_1 = (major == 1 && minor >= 1) || major > 1;

	jg	$LN14@find_coreG
$LN67@find_coreG:
	mov	edx, esi
	jmp	$LN15@find_coreG
$LN16@find_coreG:

; 2220 : 	GLAD_GL_VERSION_1_2 = (major == 1 && minor >= 2) || major > 1;

	jg	$LN17@find_coreG
$LN68@find_coreG:
	mov	edx, esi
	jmp	$LN18@find_coreG
$LN19@find_coreG:

; 2221 : 	GLAD_GL_VERSION_1_3 = (major == 1 && minor >= 3) || major > 1;

	jg	$LN20@find_coreG
$LN69@find_coreG:
	mov	edx, esi
	jmp	$LN21@find_coreG
$LN22@find_coreG:

; 2222 : 	GLAD_GL_VERSION_1_4 = (major == 1 && minor >= 4) || major > 1;

	jg	$LN23@find_coreG
$LN70@find_coreG:
	mov	edx, esi
	jmp	$LN24@find_coreG
$LN25@find_coreG:

; 2223 : 	GLAD_GL_VERSION_1_5 = (major == 1 && minor >= 5) || major > 1;

	jg	$LN26@find_coreG
$LN71@find_coreG:
	mov	edx, esi
	jmp	$LN27@find_coreG
$LN28@find_coreG:

; 2224 : 	GLAD_GL_VERSION_2_0 = (major == 2 && minor >= 0) || major > 2;

	jg	$LN29@find_coreG
$LN72@find_coreG:
	mov	edx, esi
	jmp	$LN30@find_coreG
$LN31@find_coreG:

; 2225 : 	GLAD_GL_VERSION_2_1 = (major == 2 && minor >= 1) || major > 2;

	jg	$LN32@find_coreG
$LN73@find_coreG:
	mov	edx, esi
	jmp	$LN33@find_coreG
$LN34@find_coreG:

; 2226 : 	GLAD_GL_VERSION_3_0 = (major == 3 && minor >= 0) || major > 3;

	jg	$LN35@find_coreG
$LN74@find_coreG:
	mov	edx, esi
	jmp	$LN36@find_coreG
$LN37@find_coreG:

; 2227 : 	GLAD_GL_VERSION_3_1 = (major == 3 && minor >= 1) || major > 3;

	jg	$LN38@find_coreG
$LN75@find_coreG:
	mov	edx, esi
	jmp	$LN39@find_coreG
$LN40@find_coreG:

; 2228 : 	GLAD_GL_VERSION_3_2 = (major == 3 && minor >= 2) || major > 3;

	jg	$LN41@find_coreG
$LN76@find_coreG:
	mov	edx, esi
	jmp	$LN42@find_coreG
$LN43@find_coreG:

; 2229 : 	GLAD_GL_VERSION_3_3 = (major == 3 && minor >= 3) || major > 3;

	jg	$LN44@find_coreG
$LN77@find_coreG:
	mov	edx, esi
	jmp	$LN45@find_coreG
$LN46@find_coreG:

; 2230 : 	GLAD_GL_VERSION_4_0 = (major == 4 && minor >= 0) || major > 4;

	jg	$LN47@find_coreG
$LN78@find_coreG:
	mov	edx, esi
	jmp	$LN48@find_coreG
$LN49@find_coreG:

; 2231 : 	GLAD_GL_VERSION_4_1 = (major == 4 && minor >= 1) || major > 4;

	jg	$LN50@find_coreG
$LN79@find_coreG:
	mov	edx, esi
	jmp	$LN51@find_coreG
$LN52@find_coreG:

; 2232 : 	GLAD_GL_VERSION_4_2 = (major == 4 && minor >= 2) || major > 4;

	jg	$LN53@find_coreG
$LN80@find_coreG:
	mov	edx, esi
	jmp	$LN54@find_coreG
$LN55@find_coreG:

; 2233 : 	GLAD_GL_VERSION_4_3 = (major == 4 && minor >= 3) || major > 4;

	jg	$LN56@find_coreG
$LN81@find_coreG:
	mov	edx, esi
	jmp	$LN57@find_coreG
$LN58@find_coreG:

; 2234 : 	GLAD_GL_VERSION_4_4 = (major == 4 && minor >= 4) || major > 4;

	jle	SHORT $LN60@find_coreG
$LN59@find_coreG:
	mov	esi, 1
$LN60@find_coreG:

; 2235 : 	if (GLVersion.major > 4 || (GLVersion.major >= 4 && GLVersion.minor >= 4)) {

	mov	DWORD PTR GLAD_GL_VERSION_4_4, esi
	cmp	eax, 4
	jg	SHORT $LN8@find_coreG
	jl	SHORT $LN7@find_coreG
	cmp	ecx, 4
	jl	SHORT $LN7@find_coreG
$LN8@find_coreG:

; 2236 : 		max_loaded_major = 4;

	mov	DWORD PTR max_loaded_major, 4
$LN7@find_coreG:

; 2237 : 		max_loaded_minor = 4;
; 2238 : 	}
; 2239 : }

	mov	rcx, QWORD PTR __$ArrayPad$[rsp]
	xor	rcx, rsp
	call	__security_check_cookie
	mov	rsi, QWORD PTR [rsp+112]
	mov	rdi, QWORD PTR [rsp+120]
	add	rsp, 80					; 00000050H
	pop	r14
	ret	0
find_coreGL ENDP
_TEXT	ENDS
; Function compile flags: /Ogtpy
; File C:\Radiophobia\Radiophobia-main\glad.c
;	COMDAT gladLoadGLLoader
_TEXT	SEGMENT
load$dead$ = 64
gladLoadGLLoader PROC					; COMDAT

; 2241 : int gladLoadGLLoader(GLADloadproc load) {

$LN111:
	mov	QWORD PTR [rsp+32], rbx
	push	rdi
	push	r12
	push	r15
	sub	rsp, 32					; 00000020H

; 2242 : 	GLVersion.major = 0; GLVersion.minor = 0;

	xor	r15d, r15d

; 2243 : 	glGetString = (PFNGLGETSTRINGPROC)load("glGetString");

	lea	rcx, OFFSET FLAT:??_C@_0M@OPOBFDCB@glGetString@
	mov	QWORD PTR GLVersion, r15
	call	get_proc
	mov	QWORD PTR glad_glGetString, rax
	test	rax, rax

; 2244 : 	if(glGetString == NULL) return 0;

	je	$LN76@gladLoadGL

; 2245 : 	if(glGetString(GL_VERSION) == NULL) return 0;

	mov	ecx, 7938				; 00001f02H
	call	rax
	test	rax, rax
	je	$LN76@gladLoadGL

; 2246 : 	find_coreGL();

	call	find_coreGL

; 2247 : 	load_GL_VERSION_1_0(load);

	lea	rcx, OFFSET FLAT:get_proc
	call	load_GL_VERSION_1_0

; 1507 : 	if(!GLAD_GL_VERSION_1_1) return;

	cmp	DWORD PTR GLAD_GL_VERSION_1_1, r15d
	je	$LN13@gladLoadGL

; 1508 : 	glad_glDrawArrays = (PFNGLDRAWARRAYSPROC)load("glDrawArrays");

	lea	rcx, OFFSET FLAT:??_C@_0N@CMNPPOHA@glDrawArrays@
	call	get_proc

; 1509 : 	glad_glDrawElements = (PFNGLDRAWELEMENTSPROC)load("glDrawElements");

	lea	rcx, OFFSET FLAT:??_C@_0P@MENFIFGE@glDrawElements@
	call	get_proc

; 1510 : 	glad_glGetPointerv = (PFNGLGETPOINTERVPROC)load("glGetPointerv");

	lea	rcx, OFFSET FLAT:??_C@_0O@LADEDGJO@glGetPointerv@
	mov	QWORD PTR glad_glDrawElements, rax
	call	get_proc

; 1511 : 	glad_glPolygonOffset = (PFNGLPOLYGONOFFSETPROC)load("glPolygonOffset");

	lea	rcx, OFFSET FLAT:??_C@_0BA@FFBJGNC@glPolygonOffset@
	call	get_proc

; 1512 : 	glad_glCopyTexImage1D = (PFNGLCOPYTEXIMAGE1DPROC)load("glCopyTexImage1D");

	lea	rcx, OFFSET FLAT:??_C@_0BB@MEEDBHPL@glCopyTexImage1D@
	call	get_proc

; 1513 : 	glad_glCopyTexImage2D = (PFNGLCOPYTEXIMAGE2DPROC)load("glCopyTexImage2D");

	lea	rcx, OFFSET FLAT:??_C@_0BB@MGAFKJKC@glCopyTexImage2D@
	call	get_proc

; 1514 : 	glad_glCopyTexSubImage1D = (PFNGLCOPYTEXSUBIMAGE1DPROC)load("glCopyTexSubImage1D");

	lea	rcx, OFFSET FLAT:??_C@_0BE@PKNCAIGI@glCopyTexSubImage1D@
	call	get_proc

; 1515 : 	glad_glCopyTexSubImage2D = (PFNGLCOPYTEXSUBIMAGE2DPROC)load("glCopyTexSubImage2D");

	lea	rcx, OFFSET FLAT:??_C@_0BE@PIJELGDB@glCopyTexSubImage2D@
	call	get_proc

; 1516 : 	glad_glTexSubImage1D = (PFNGLTEXSUBIMAGE1DPROC)load("glTexSubImage1D");

	lea	rcx, OFFSET FLAT:??_C@_0BA@NFOOCKJD@glTexSubImage1D@
	call	get_proc

; 1517 : 	glad_glTexSubImage2D = (PFNGLTEXSUBIMAGE2DPROC)load("glTexSubImage2D");

	lea	rcx, OFFSET FLAT:??_C@_0BA@NHKIJEMK@glTexSubImage2D@
	call	get_proc

; 1518 : 	glad_glBindTexture = (PFNGLBINDTEXTUREPROC)load("glBindTexture");

	lea	rcx, OFFSET FLAT:??_C@_0O@JKKCIBGC@glBindTexture@
	call	get_proc

; 1519 : 	glad_glDeleteTextures = (PFNGLDELETETEXTURESPROC)load("glDeleteTextures");

	lea	rcx, OFFSET FLAT:??_C@_0BB@KMPLFJIC@glDeleteTextures@
	mov	QWORD PTR glad_glBindTexture, rax
	call	get_proc

; 1520 : 	glad_glGenTextures = (PFNGLGENTEXTURESPROC)load("glGenTextures");

	lea	rcx, OFFSET FLAT:??_C@_0O@LLMANLNK@glGenTextures@
	mov	QWORD PTR glad_glDeleteTextures, rax
	call	get_proc

; 1521 : 	glad_glIsTexture = (PFNGLISTEXTUREPROC)load("glIsTexture");

	lea	rcx, OFFSET FLAT:??_C@_0M@NJHAEPDN@glIsTexture@
	mov	QWORD PTR glad_glGenTextures, rax
	call	get_proc

; 1522 : 	glad_glArrayElement = (PFNGLARRAYELEMENTPROC)load("glArrayElement");

	lea	rcx, OFFSET FLAT:??_C@_0P@CKCIJELG@glArrayElement@
	call	get_proc

; 1523 : 	glad_glColorPointer = (PFNGLCOLORPOINTERPROC)load("glColorPointer");

	lea	rcx, OFFSET FLAT:??_C@_0P@DPKEGLKI@glColorPointer@
	call	get_proc

; 1524 : 	glad_glDisableClientState = (PFNGLDISABLECLIENTSTATEPROC)load("glDisableClientState");

	lea	rcx, OFFSET FLAT:??_C@_0BF@LJDHBNBP@glDisableClientState@
	call	get_proc

; 1525 : 	glad_glEdgeFlagPointer = (PFNGLEDGEFLAGPOINTERPROC)load("glEdgeFlagPointer");

	lea	rcx, OFFSET FLAT:??_C@_0BC@LILGCNN@glEdgeFlagPointer@
	call	get_proc

; 1526 : 	glad_glEnableClientState = (PFNGLENABLECLIENTSTATEPROC)load("glEnableClientState");

	lea	rcx, OFFSET FLAT:??_C@_0BE@KECPKGNE@glEnableClientState@
	call	get_proc

; 1527 : 	glad_glIndexPointer = (PFNGLINDEXPOINTERPROC)load("glIndexPointer");

	lea	rcx, OFFSET FLAT:??_C@_0P@KGJBLKPD@glIndexPointer@
	call	get_proc

; 1528 : 	glad_glInterleavedArrays = (PFNGLINTERLEAVEDARRAYSPROC)load("glInterleavedArrays");

	lea	rcx, OFFSET FLAT:??_C@_0BE@EDEDCKLI@glInterleavedArrays@
	call	get_proc

; 1529 : 	glad_glNormalPointer = (PFNGLNORMALPOINTERPROC)load("glNormalPointer");

	lea	rcx, OFFSET FLAT:??_C@_0BA@DCLMCEOP@glNormalPointer@
	call	get_proc

; 1530 : 	glad_glTexCoordPointer = (PFNGLTEXCOORDPOINTERPROC)load("glTexCoordPointer");

	lea	rcx, OFFSET FLAT:??_C@_0BC@DAOMILMO@glTexCoordPointer@
	call	get_proc

; 1531 : 	glad_glVertexPointer = (PFNGLVERTEXPOINTERPROC)load("glVertexPointer");

	lea	rcx, OFFSET FLAT:??_C@_0BA@HAHECJNK@glVertexPointer@
	call	get_proc

; 1532 : 	glad_glAreTexturesResident = (PFNGLARETEXTURESRESIDENTPROC)load("glAreTexturesResident");

	lea	rcx, OFFSET FLAT:??_C@_0BG@DHOKJLEP@glAreTexturesResident@
	call	get_proc

; 1533 : 	glad_glPrioritizeTextures = (PFNGLPRIORITIZETEXTURESPROC)load("glPrioritizeTextures");

	lea	rcx, OFFSET FLAT:??_C@_0BF@FFCGNNIA@glPrioritizeTextures@
	call	get_proc

; 1534 : 	glad_glIndexub = (PFNGLINDEXUBPROC)load("glIndexub");

	lea	rcx, OFFSET FLAT:??_C@_09BBIPIKNC@glIndexub@
	call	get_proc

; 1535 : 	glad_glIndexubv = (PFNGLINDEXUBVPROC)load("glIndexubv");

	lea	rcx, OFFSET FLAT:??_C@_0L@BBKJOCAC@glIndexubv@
	call	get_proc

; 1536 : 	glad_glPopClientAttrib = (PFNGLPOPCLIENTATTRIBPROC)load("glPopClientAttrib");

	lea	rcx, OFFSET FLAT:??_C@_0BC@GOOJKIDH@glPopClientAttrib@
	call	get_proc

; 1537 : 	glad_glPushClientAttrib = (PFNGLPUSHCLIENTATTRIBPROC)load("glPushClientAttrib");

	lea	rcx, OFFSET FLAT:??_C@_0BD@JKGPLNEA@glPushClientAttrib@
	call	get_proc
$LN13@gladLoadGL:

; 1540 : 	if(!GLAD_GL_VERSION_1_2) return;

	cmp	DWORD PTR GLAD_GL_VERSION_1_2, r15d
	je	SHORT $LN16@gladLoadGL

; 1541 : 	glad_glDrawRangeElements = (PFNGLDRAWRANGEELEMENTSPROC)load("glDrawRangeElements");

	lea	rcx, OFFSET FLAT:??_C@_0BE@IHNAGJGJ@glDrawRangeElements@
	call	get_proc

; 1542 : 	glad_glTexImage3D = (PFNGLTEXIMAGE3DPROC)load("glTexImage3D");

	lea	rcx, OFFSET FLAT:??_C@_0N@JAEIBBBF@glTexImage3D@
	call	get_proc

; 1543 : 	glad_glTexSubImage3D = (PFNGLTEXSUBIMAGE3DPROC)load("glTexSubImage3D");

	lea	rcx, OFFSET FLAT:??_C@_0BA@NGGKPOPN@glTexSubImage3D@
	call	get_proc

; 1544 : 	glad_glCopyTexSubImage3D = (PFNGLCOPYTEXSUBIMAGE3DPROC)load("glCopyTexSubImage3D");

	lea	rcx, OFFSET FLAT:??_C@_0BE@PJFGNMAG@glCopyTexSubImage3D@
	call	get_proc
$LN16@gladLoadGL:

; 1547 : 	if(!GLAD_GL_VERSION_1_3) return;

	cmp	DWORD PTR GLAD_GL_VERSION_1_3, r15d
	je	$LN19@gladLoadGL

; 1548 : 	glad_glActiveTexture = (PFNGLACTIVETEXTUREPROC)load("glActiveTexture");

	lea	rcx, OFFSET FLAT:??_C@_0BA@KOBBIKOF@glActiveTexture@
	call	get_proc

; 1549 : 	glad_glSampleCoverage = (PFNGLSAMPLECOVERAGEPROC)load("glSampleCoverage");

	lea	rcx, OFFSET FLAT:??_C@_0BB@BJGIPMOA@glSampleCoverage@
	mov	QWORD PTR glad_glActiveTexture, rax
	call	get_proc

; 1550 : 	glad_glCompressedTexImage3D = (PFNGLCOMPRESSEDTEXIMAGE3DPROC)load("glCompressedTexImage3D");

	lea	rcx, OFFSET FLAT:??_C@_0BH@GGHNMAGP@glCompressedTexImage3D@
	call	get_proc

; 1551 : 	glad_glCompressedTexImage2D = (PFNGLCOMPRESSEDTEXIMAGE2DPROC)load("glCompressedTexImage2D");

	lea	rcx, OFFSET FLAT:??_C@_0BH@GHLPKKFI@glCompressedTexImage2D@
	call	get_proc

; 1552 : 	glad_glCompressedTexImage1D = (PFNGLCOMPRESSEDTEXIMAGE1DPROC)load("glCompressedTexImage1D");

	lea	rcx, OFFSET FLAT:??_C@_0BH@GFPJBEAB@glCompressedTexImage1D@
	call	get_proc

; 1553 : 	glad_glCompressedTexSubImage3D = (PFNGLCOMPRESSEDTEXSUBIMAGE3DPROC)load("glCompressedTexSubImage3D");

	lea	rcx, OFFSET FLAT:??_C@_0BK@EBJMCDPA@glCompressedTexSubImage3D@
	call	get_proc

; 1554 : 	glad_glCompressedTexSubImage2D = (PFNGLCOMPRESSEDTEXSUBIMAGE2DPROC)load("glCompressedTexSubImage2D");

	lea	rcx, OFFSET FLAT:??_C@_0BK@EAFOEJMH@glCompressedTexSubImage2D@
	call	get_proc

; 1555 : 	glad_glCompressedTexSubImage1D = (PFNGLCOMPRESSEDTEXSUBIMAGE1DPROC)load("glCompressedTexSubImage1D");

	lea	rcx, OFFSET FLAT:??_C@_0BK@ECBIPHJO@glCompressedTexSubImage1D@
	call	get_proc

; 1556 : 	glad_glGetCompressedTexImage = (PFNGLGETCOMPRESSEDTEXIMAGEPROC)load("glGetCompressedTexImage");

	lea	rcx, OFFSET FLAT:??_C@_0BI@MPANLPPL@glGetCompressedTexImage@
	call	get_proc

; 1557 : 	glad_glClientActiveTexture = (PFNGLCLIENTACTIVETEXTUREPROC)load("glClientActiveTexture");

	lea	rcx, OFFSET FLAT:??_C@_0BG@EGKOMLFO@glClientActiveTexture@
	call	get_proc

; 1558 : 	glad_glMultiTexCoord1d = (PFNGLMULTITEXCOORD1DPROC)load("glMultiTexCoord1d");

	lea	rcx, OFFSET FLAT:??_C@_0BC@IHHPPFPP@glMultiTexCoord1d@
	call	get_proc

; 1559 : 	glad_glMultiTexCoord1dv = (PFNGLMULTITEXCOORD1DVPROC)load("glMultiTexCoord1dv");

	lea	rcx, OFFSET FLAT:??_C@_0BD@FEOAEOAI@glMultiTexCoord1dv@
	call	get_proc

; 1560 : 	glad_glMultiTexCoord1f = (PFNGLMULTITEXCOORD1FPROC)load("glMultiTexCoord1f");

	lea	rcx, OFFSET FLAT:??_C@_0BC@LFEJJHHN@glMultiTexCoord1f@
	call	get_proc

; 1561 : 	glad_glMultiTexCoord1fv = (PFNGLMULTITEXCOORD1FVPROC)load("glMultiTexCoord1fv");

	lea	rcx, OFFSET FLAT:??_C@_0BD@FHGEJKGG@glMultiTexCoord1fv@
	call	get_proc

; 1562 : 	glad_glMultiTexCoord1i = (PFNGLMULTITEXCOORD1IPROC)load("glMultiTexCoord1i");

	lea	rcx, OFFSET FLAT:??_C@_0BC@DCNBILLC@glMultiTexCoord1i@
	call	get_proc

; 1563 : 	glad_glMultiTexCoord1iv = (PFNGLMULTITEXCOORD1IVPROC)load("glMultiTexCoord1iv");

	lea	rcx, OFFSET FLAT:??_C@_0BD@FMDINNFL@glMultiTexCoord1iv@
	call	get_proc

; 1564 : 	glad_glMultiTexCoord1s = (PFNGLMULTITEXCOORD1SPROC)load("glMultiTexCoord1s");

	lea	rcx, OFFSET FLAT:??_C@_0BC@ICPMHBGJ@glMultiTexCoord1s@
	call	get_proc

; 1565 : 	glad_glMultiTexCoord1sv = (PFNGLMULTITEXCOORD1SVPROC)load("glMultiTexCoord1sv");

	lea	rcx, OFFSET FLAT:??_C@_0BD@ENIJPLPN@glMultiTexCoord1sv@
	call	get_proc

; 1566 : 	glad_glMultiTexCoord2d = (PFNGLMULTITEXCOORD2DPROC)load("glMultiTexCoord2d");

	lea	rcx, OFFSET FLAT:??_C@_0BC@IFDJELKG@glMultiTexCoord2d@
	call	get_proc

; 1567 : 	glad_glMultiTexCoord2dv = (PFNGLMULTITEXCOORD2DVPROC)load("glMultiTexCoord2dv");

	lea	rcx, OFFSET FLAT:??_C@_0BD@EGFFOBOG@glMultiTexCoord2dv@
	call	get_proc

; 1568 : 	glad_glMultiTexCoord2f = (PFNGLMULTITEXCOORD2FPROC)load("glMultiTexCoord2f");

	lea	rcx, OFFSET FLAT:??_C@_0BC@LHAPCJCE@glMultiTexCoord2f@
	call	get_proc

; 1569 : 	glad_glMultiTexCoord2fv = (PFNGLMULTITEXCOORD2FVPROC)load("glMultiTexCoord2fv");

	lea	rcx, OFFSET FLAT:??_C@_0BD@EFNBDFII@glMultiTexCoord2fv@
	call	get_proc

; 1570 : 	glad_glMultiTexCoord2i = (PFNGLMULTITEXCOORD2IPROC)load("glMultiTexCoord2i");

	lea	rcx, OFFSET FLAT:??_C@_0BC@DAJHDFOL@glMultiTexCoord2i@
	call	get_proc

; 1571 : 	glad_glMultiTexCoord2iv = (PFNGLMULTITEXCOORD2IVPROC)load("glMultiTexCoord2iv");

	lea	rcx, OFFSET FLAT:??_C@_0BD@EOINHCLF@glMultiTexCoord2iv@
	call	get_proc

; 1572 : 	glad_glMultiTexCoord2s = (PFNGLMULTITEXCOORD2SPROC)load("glMultiTexCoord2s");

	lea	rcx, OFFSET FLAT:??_C@_0BC@IALKMPDA@glMultiTexCoord2s@
	call	get_proc

; 1573 : 	glad_glMultiTexCoord2sv = (PFNGLMULTITEXCOORD2SVPROC)load("glMultiTexCoord2sv");

	lea	rcx, OFFSET FLAT:??_C@_0BD@FPDMFEBD@glMultiTexCoord2sv@
	call	get_proc

; 1574 : 	glad_glMultiTexCoord3d = (PFNGLMULTITEXCOORD3DPROC)load("glMultiTexCoord3d");

	lea	rcx, OFFSET FLAT:??_C@_0BC@IEPLCBJB@glMultiTexCoord3d@
	call	get_proc

; 1575 : 	glad_glMultiTexCoord3dv = (PFNGLMULTITEXCOORD3DVPROC)load("glMultiTexCoord3dv");

	lea	rcx, OFFSET FLAT:??_C@_0BD@POOJIGID@glMultiTexCoord3dv@
	call	get_proc

; 1576 : 	glad_glMultiTexCoord3f = (PFNGLMULTITEXCOORD3FPROC)load("glMultiTexCoord3f");

	lea	rcx, OFFSET FLAT:??_C@_0BC@LGMNEDBD@glMultiTexCoord3f@
	call	get_proc

; 1577 : 	glad_glMultiTexCoord3fv = (PFNGLMULTITEXCOORD3FVPROC)load("glMultiTexCoord3fv");

	lea	rcx, OFFSET FLAT:??_C@_0BD@PNGNFCON@glMultiTexCoord3fv@
	call	get_proc

; 1578 : 	glad_glMultiTexCoord3i = (PFNGLMULTITEXCOORD3IPROC)load("glMultiTexCoord3i");

	lea	rcx, OFFSET FLAT:??_C@_0BC@DBFFFPNM@glMultiTexCoord3i@
	call	get_proc

; 1579 : 	glad_glMultiTexCoord3iv = (PFNGLMULTITEXCOORD3IVPROC)load("glMultiTexCoord3iv");

	lea	rcx, OFFSET FLAT:??_C@_0BD@PGDBBFNA@glMultiTexCoord3iv@
	call	get_proc

; 1580 : 	glad_glMultiTexCoord3s = (PFNGLMULTITEXCOORD3SPROC)load("glMultiTexCoord3s");

	lea	rcx, OFFSET FLAT:??_C@_0BC@IBHIKFAH@glMultiTexCoord3s@
	call	get_proc

; 1581 : 	glad_glMultiTexCoord3sv = (PFNGLMULTITEXCOORD3SVPROC)load("glMultiTexCoord3sv");

	lea	rcx, OFFSET FLAT:??_C@_0BD@OHIADDHG@glMultiTexCoord3sv@
	call	get_proc

; 1582 : 	glad_glMultiTexCoord4d = (PFNGLMULTITEXCOORD4DPROC)load("glMultiTexCoord4d");

	lea	rcx, OFFSET FLAT:??_C@_0BC@IBLEDHBE@glMultiTexCoord4d@
	call	get_proc

; 1583 : 	glad_glMultiTexCoord4dv = (PFNGLMULTITEXCOORD4DVPROC)load("glMultiTexCoord4dv");

	lea	rcx, OFFSET FLAT:??_C@_0BD@GDDOLODK@glMultiTexCoord4dv@
	call	get_proc

; 1584 : 	glad_glMultiTexCoord4f = (PFNGLMULTITEXCOORD4FPROC)load("glMultiTexCoord4f");

	lea	rcx, OFFSET FLAT:??_C@_0BC@LDICFFJG@glMultiTexCoord4f@
	call	get_proc

; 1585 : 	glad_glMultiTexCoord4fv = (PFNGLMULTITEXCOORD4FVPROC)load("glMultiTexCoord4fv");

	lea	rcx, OFFSET FLAT:??_C@_0BD@GALKGKFE@glMultiTexCoord4fv@
	call	get_proc

; 1586 : 	glad_glMultiTexCoord4i = (PFNGLMULTITEXCOORD4IPROC)load("glMultiTexCoord4i");

	lea	rcx, OFFSET FLAT:??_C@_0BC@DEBKEJFJ@glMultiTexCoord4i@
	call	get_proc

; 1587 : 	glad_glMultiTexCoord4iv = (PFNGLMULTITEXCOORD4IVPROC)load("glMultiTexCoord4iv");

	lea	rcx, OFFSET FLAT:??_C@_0BD@GLOGCNGJ@glMultiTexCoord4iv@
	call	get_proc

; 1588 : 	glad_glMultiTexCoord4s = (PFNGLMULTITEXCOORD4SPROC)load("glMultiTexCoord4s");

	lea	rcx, OFFSET FLAT:??_C@_0BC@IEDHLDIC@glMultiTexCoord4s@
	call	get_proc

; 1589 : 	glad_glMultiTexCoord4sv = (PFNGLMULTITEXCOORD4SVPROC)load("glMultiTexCoord4sv");

	lea	rcx, OFFSET FLAT:??_C@_0BD@HKFHALMP@glMultiTexCoord4sv@
	call	get_proc

; 1590 : 	glad_glLoadTransposeMatrixf = (PFNGLLOADTRANSPOSEMATRIXFPROC)load("glLoadTransposeMatrixf");

	lea	rcx, OFFSET FLAT:??_C@_0BH@OJNLGHA@glLoadTransposeMatrixf@
	call	get_proc

; 1591 : 	glad_glLoadTransposeMatrixd = (PFNGLLOADTRANSPOSEMATRIXDPROC)load("glLoadTransposeMatrixd");

	lea	rcx, OFFSET FLAT:??_C@_0BH@DMKLNEPC@glLoadTransposeMatrixd@
	call	get_proc

; 1592 : 	glad_glMultTransposeMatrixf = (PFNGLMULTTRANSPOSEMATRIXFPROC)load("glMultTransposeMatrixf");

	lea	rcx, OFFSET FLAT:??_C@_0BH@DPBMPCNC@glMultTransposeMatrixf@
	call	get_proc

; 1593 : 	glad_glMultTransposeMatrixd = (PFNGLMULTTRANSPOSEMATRIXDPROC)load("glMultTransposeMatrixd");

	lea	rcx, OFFSET FLAT:??_C@_0BH@NCKJAFA@glMultTransposeMatrixd@
	call	get_proc
$LN19@gladLoadGL:

; 1596 : 	if(!GLAD_GL_VERSION_1_4) return;

	cmp	DWORD PTR GLAD_GL_VERSION_1_4, r15d
	je	$LN22@gladLoadGL

; 1597 : 	glad_glBlendFuncSeparate = (PFNGLBLENDFUNCSEPARATEPROC)load("glBlendFuncSeparate");

	lea	rcx, OFFSET FLAT:??_C@_0BE@LLLCIIOO@glBlendFuncSeparate@
	call	get_proc

; 1598 : 	glad_glMultiDrawArrays = (PFNGLMULTIDRAWARRAYSPROC)load("glMultiDrawArrays");

	lea	rcx, OFFSET FLAT:??_C@_0BC@IBABPJFA@glMultiDrawArrays@
	call	get_proc

; 1599 : 	glad_glMultiDrawElements = (PFNGLMULTIDRAWELEMENTSPROC)load("glMultiDrawElements");

	lea	rcx, OFFSET FLAT:??_C@_0BE@MPDFJJLL@glMultiDrawElements@
	call	get_proc

; 1600 : 	glad_glPointParameterf = (PFNGLPOINTPARAMETERFPROC)load("glPointParameterf");

	lea	rcx, OFFSET FLAT:??_C@_0BC@FGOOEDO@glPointParameterf@
	call	get_proc

; 1601 : 	glad_glPointParameterfv = (PFNGLPOINTPARAMETERFVPROC)load("glPointParameterfv");

	lea	rcx, OFFSET FLAT:??_C@_0BD@LIABKNDP@glPointParameterfv@
	call	get_proc

; 1602 : 	glad_glPointParameteri = (PFNGLPOINTPARAMETERIPROC)load("glPointParameteri");

	lea	rcx, OFFSET FLAT:??_C@_0BC@ICPGPIPB@glPointParameteri@
	call	get_proc

; 1603 : 	glad_glPointParameteriv = (PFNGLPOINTPARAMETERIVPROC)load("glPointParameteriv");

	lea	rcx, OFFSET FLAT:??_C@_0BD@LDFNOKAC@glPointParameteriv@
	call	get_proc

; 1604 : 	glad_glFogCoordf = (PFNGLFOGCOORDFPROC)load("glFogCoordf");

	lea	rcx, OFFSET FLAT:??_C@_0M@GCBCNNOF@glFogCoordf@
	call	get_proc

; 1605 : 	glad_glFogCoordfv = (PFNGLFOGCOORDFVPROC)load("glFogCoordfv");

	lea	rcx, OFFSET FLAT:??_C@_0N@KJGHNKFK@glFogCoordfv@
	call	get_proc

; 1606 : 	glad_glFogCoordd = (PFNGLFOGCOORDDPROC)load("glFogCoordd");

	lea	rcx, OFFSET FLAT:??_C@_0M@FACELPGH@glFogCoordd@
	call	get_proc

; 1607 : 	glad_glFogCoorddv = (PFNGLFOGCOORDDVPROC)load("glFogCoorddv");

	lea	rcx, OFFSET FLAT:??_C@_0N@KKODAODE@glFogCoorddv@
	call	get_proc

; 1608 : 	glad_glFogCoordPointer = (PFNGLFOGCOORDPOINTERPROC)load("glFogCoordPointer");

	lea	rcx, OFFSET FLAT:??_C@_0BC@GECGFLP@glFogCoordPointer@
	call	get_proc

; 1609 : 	glad_glSecondaryColor3b = (PFNGLSECONDARYCOLOR3BPROC)load("glSecondaryColor3b");

	lea	rcx, OFFSET FLAT:??_C@_0BD@MCCHHBGK@glSecondaryColor3b@
	call	get_proc

; 1610 : 	glad_glSecondaryColor3bv = (PFNGLSECONDARYCOLOR3BVPROC)load("glSecondaryColor3bv");

	lea	rcx, OFFSET FLAT:??_C@_0BE@NEMAHBEH@glSecondaryColor3bv@
	call	get_proc

; 1611 : 	glad_glSecondaryColor3d = (PFNGLSECONDARYCOLOR3DPROC)load("glSecondaryColor3d");

	lea	rcx, OFFSET FLAT:??_C@_0BD@JEHNNGOM@glSecondaryColor3d@
	call	get_proc

; 1612 : 	glad_glSecondaryColor3dv = (PFNGLSECONDARYCOLOR3DVPROC)load("glSecondaryColor3dv");

	lea	rcx, OFFSET FLAT:??_C@_0BE@NAENANPF@glSecondaryColor3dv@
	call	get_proc

; 1613 : 	glad_glSecondaryColor3f = (PFNGLSECONDARYCOLOR3FPROC)load("glSecondaryColor3f");

	lea	rcx, OFFSET FLAT:??_C@_0BD@KGELLEGO@glSecondaryColor3f@
	call	get_proc

; 1614 : 	glad_glSecondaryColor3fv = (PFNGLSECONDARYCOLOR3FVPROC)load("glSecondaryColor3fv");

	lea	rcx, OFFSET FLAT:??_C@_0BE@NDMJNJJL@glSecondaryColor3fv@
	call	get_proc

; 1615 : 	glad_glSecondaryColor3i = (PFNGLSECONDARYCOLOR3IPROC)load("glSecondaryColor3i");

	lea	rcx, OFFSET FLAT:??_C@_0BD@CBNDKIKB@glSecondaryColor3i@
	call	get_proc

; 1616 : 	glad_glSecondaryColor3iv = (PFNGLSECONDARYCOLOR3IVPROC)load("glSecondaryColor3iv");

	lea	rcx, OFFSET FLAT:??_C@_0BE@NIJFJOKG@glSecondaryColor3iv@
	call	get_proc

; 1617 : 	glad_glSecondaryColor3s = (PFNGLSECONDARYCOLOR3SPROC)load("glSecondaryColor3s");

	lea	rcx, OFFSET FLAT:??_C@_0BD@JBPOFCHK@glSecondaryColor3s@
	call	get_proc

; 1618 : 	glad_glSecondaryColor3sv = (PFNGLSECONDARYCOLOR3SVPROC)load("glSecondaryColor3sv");

	lea	rcx, OFFSET FLAT:??_C@_0BE@MJCELIAA@glSecondaryColor3sv@
	call	get_proc

; 1619 : 	glad_glSecondaryColor3ub = (PFNGLSECONDARYCOLOR3UBPROC)load("glSecondaryColor3ub");

	lea	rcx, OFFSET FLAT:??_C@_0BE@ODAHBDOH@glSecondaryColor3ub@
	call	get_proc

; 1620 : 	glad_glSecondaryColor3ubv = (PFNGLSECONDARYCOLOR3UBVPROC)load("glSecondaryColor3ubv");

	lea	rcx, OFFSET FLAT:??_C@_0BF@EHOIKOLI@glSecondaryColor3ubv@
	call	get_proc

; 1621 : 	glad_glSecondaryColor3ui = (PFNGLSECONDARYCOLOR3UIPROC)load("glSecondaryColor3ui");

	lea	rcx, OFFSET FLAT:??_C@_0BE@PDMKCM@glSecondaryColor3ui@
	call	get_proc

; 1622 : 	glad_glSecondaryColor3uiv = (PFNGLSECONDARYCOLOR3UIVPROC)load("glSecondaryColor3uiv");

	lea	rcx, OFFSET FLAT:??_C@_0BF@ELLNEBFJ@glSecondaryColor3uiv@
	call	get_proc

; 1623 : 	glad_glSecondaryColor3us = (PFNGLSECONDARYCOLOR3USPROC)load("glSecondaryColor3us");

	lea	rcx, OFFSET FLAT:??_C@_0BE@LANODAPH@glSecondaryColor3us@
	call	get_proc

; 1624 : 	glad_glSecondaryColor3usv = (PFNGLSECONDARYCOLOR3USVPROC)load("glSecondaryColor3usv");

	lea	rcx, OFFSET FLAT:??_C@_0BF@FKAMGHPP@glSecondaryColor3usv@
	call	get_proc

; 1625 : 	glad_glSecondaryColorPointer = (PFNGLSECONDARYCOLORPOINTERPROC)load("glSecondaryColorPointer");

	lea	rcx, OFFSET FLAT:??_C@_0BI@EFMNDJOO@glSecondaryColorPointer@
	call	get_proc

; 1626 : 	glad_glWindowPos2d = (PFNGLWINDOWPOS2DPROC)load("glWindowPos2d");

	lea	rcx, OFFSET FLAT:??_C@_0O@JGNKBLNH@glWindowPos2d@
	call	get_proc

; 1627 : 	glad_glWindowPos2dv = (PFNGLWINDOWPOS2DVPROC)load("glWindowPos2dv");

	lea	rcx, OFFSET FLAT:??_C@_0P@GBEEEDBM@glWindowPos2dv@
	call	get_proc

; 1628 : 	glad_glWindowPos2f = (PFNGLWINDOWPOS2FPROC)load("glWindowPos2f");

	lea	rcx, OFFSET FLAT:??_C@_0O@KEOMHJFF@glWindowPos2f@
	call	get_proc

; 1629 : 	glad_glWindowPos2fv = (PFNGLWINDOWPOS2FVPROC)load("glWindowPos2fv");

	lea	rcx, OFFSET FLAT:??_C@_0P@GCMAJHHC@glWindowPos2fv@
	call	get_proc

; 1630 : 	glad_glWindowPos2i = (PFNGLWINDOWPOS2IPROC)load("glWindowPos2i");

	lea	rcx, OFFSET FLAT:??_C@_0O@CDHEGFJK@glWindowPos2i@
	call	get_proc

; 1631 : 	glad_glWindowPos2iv = (PFNGLWINDOWPOS2IVPROC)load("glWindowPos2iv");

	lea	rcx, OFFSET FLAT:??_C@_0P@GJJMNAEP@glWindowPos2iv@
	call	get_proc

; 1632 : 	glad_glWindowPos2s = (PFNGLWINDOWPOS2SPROC)load("glWindowPos2s");

	lea	rcx, OFFSET FLAT:??_C@_0O@JDFJJPEB@glWindowPos2s@
	call	get_proc

; 1633 : 	glad_glWindowPos2sv = (PFNGLWINDOWPOS2SVPROC)load("glWindowPos2sv");

	lea	rcx, OFFSET FLAT:??_C@_0P@HICNPGOJ@glWindowPos2sv@
	call	get_proc

; 1634 : 	glad_glWindowPos3d = (PFNGLWINDOWPOS3DPROC)load("glWindowPos3d");

	lea	rcx, OFFSET FLAT:??_C@_0O@JHBIHBOA@glWindowPos3d@
	call	get_proc

; 1635 : 	glad_glWindowPos3dv = (PFNGLWINDOWPOS3DVPROC)load("glWindowPos3dv");

	lea	rcx, OFFSET FLAT:??_C@_0P@NJPICEHJ@glWindowPos3dv@
	call	get_proc

; 1636 : 	glad_glWindowPos3f = (PFNGLWINDOWPOS3FPROC)load("glWindowPos3f");

	lea	rcx, OFFSET FLAT:??_C@_0O@KFCOBDGC@glWindowPos3f@
	call	get_proc

; 1637 : 	glad_glWindowPos3fv = (PFNGLWINDOWPOS3FVPROC)load("glWindowPos3fv");

	lea	rcx, OFFSET FLAT:??_C@_0P@NKHMPABH@glWindowPos3fv@
	call	get_proc

; 1638 : 	glad_glWindowPos3i = (PFNGLWINDOWPOS3IPROC)load("glWindowPos3i");

	lea	rcx, OFFSET FLAT:??_C@_0O@CCLGAPKN@glWindowPos3i@
	call	get_proc

; 1639 : 	glad_glWindowPos3iv = (PFNGLWINDOWPOS3IVPROC)load("glWindowPos3iv");

	lea	rcx, OFFSET FLAT:??_C@_0P@NBCALHCK@glWindowPos3iv@
	call	get_proc

; 1640 : 	glad_glWindowPos3s = (PFNGLWINDOWPOS3SPROC)load("glWindowPos3s");

	lea	rcx, OFFSET FLAT:??_C@_0O@JCJLPFHG@glWindowPos3s@
	call	get_proc

; 1641 : 	glad_glWindowPos3sv = (PFNGLWINDOWPOS3SVPROC)load("glWindowPos3sv");

	lea	rcx, OFFSET FLAT:??_C@_0P@MAJBJBIM@glWindowPos3sv@
	call	get_proc

; 1642 : 	glad_glBlendColor = (PFNGLBLENDCOLORPROC)load("glBlendColor");

	lea	rcx, OFFSET FLAT:??_C@_0N@PKBMFJDK@glBlendColor@
	call	get_proc

; 1643 : 	glad_glBlendEquation = (PFNGLBLENDEQUATIONPROC)load("glBlendEquation");

	lea	rcx, OFFSET FLAT:??_C@_0BA@PFHILPAN@glBlendEquation@
	call	get_proc
$LN22@gladLoadGL:

; 1646 : 	if(!GLAD_GL_VERSION_1_5) return;

	cmp	DWORD PTR GLAD_GL_VERSION_1_5, r15d
	je	$LN25@gladLoadGL

; 1647 : 	glad_glGenQueries = (PFNGLGENQUERIESPROC)load("glGenQueries");

	lea	rcx, OFFSET FLAT:??_C@_0N@CJIGHHJ@glGenQueries@
	call	get_proc

; 1648 : 	glad_glDeleteQueries = (PFNGLDELETEQUERIESPROC)load("glDeleteQueries");

	lea	rcx, OFFSET FLAT:??_C@_0BA@IOKEHMOH@glDeleteQueries@
	call	get_proc

; 1649 : 	glad_glIsQuery = (PFNGLISQUERYPROC)load("glIsQuery");

	lea	rcx, OFFSET FLAT:??_C@_09CNNLCEBN@glIsQuery@
	call	get_proc

; 1650 : 	glad_glBeginQuery = (PFNGLBEGINQUERYPROC)load("glBeginQuery");

	lea	rcx, OFFSET FLAT:??_C@_0N@GIAGIGPA@glBeginQuery@
	call	get_proc

; 1651 : 	glad_glEndQuery = (PFNGLENDQUERYPROC)load("glEndQuery");

	lea	rcx, OFFSET FLAT:??_C@_0L@FLEBHIDM@glEndQuery@
	call	get_proc

; 1652 : 	glad_glGetQueryiv = (PFNGLGETQUERYIVPROC)load("glGetQueryiv");

	lea	rcx, OFFSET FLAT:??_C@_0N@BPACPFCI@glGetQueryiv@
	call	get_proc

; 1653 : 	glad_glGetQueryObjectiv = (PFNGLGETQUERYOBJECTIVPROC)load("glGetQueryObjectiv");

	lea	rcx, OFFSET FLAT:??_C@_0BD@KMBBCJID@glGetQueryObjectiv@
	call	get_proc

; 1654 : 	glad_glGetQueryObjectuiv = (PFNGLGETQUERYOBJECTUIVPROC)load("glGetQueryObjectuiv");

	lea	rcx, OFFSET FLAT:??_C@_0BE@MNBBKJ@glGetQueryObjectuiv@
	call	get_proc

; 1655 : 	glad_glBindBuffer = (PFNGLBINDBUFFERPROC)load("glBindBuffer");

	lea	rcx, OFFSET FLAT:??_C@_0N@BONEPPLO@glBindBuffer@
	call	get_proc

; 1656 : 	glad_glDeleteBuffers = (PFNGLDELETEBUFFERSPROC)load("glDeleteBuffers");

	lea	rcx, OFFSET FLAT:??_C@_0BA@DMNLADIO@glDeleteBuffers@
	mov	QWORD PTR glad_glBindBuffer, rax
	call	get_proc

; 1657 : 	glad_glGenBuffers = (PFNGLGENBUFFERSPROC)load("glGenBuffers");

	lea	rcx, OFFSET FLAT:??_C@_0N@LAOHBIBA@glGenBuffers@
	mov	QWORD PTR glad_glDeleteBuffers, rax
	call	get_proc

; 1658 : 	glad_glIsBuffer = (PFNGLISBUFFERPROC)load("glIsBuffer");

	lea	rcx, OFFSET FLAT:??_C@_0L@KFPDMKNG@glIsBuffer@
	mov	QWORD PTR glad_glGenBuffers, rax
	call	get_proc

; 1659 : 	glad_glBufferData = (PFNGLBUFFERDATAPROC)load("glBufferData");

	lea	rcx, OFFSET FLAT:??_C@_0N@JHHJMABP@glBufferData@
	call	get_proc

; 1660 : 	glad_glBufferSubData = (PFNGLBUFFERSUBDATAPROC)load("glBufferSubData");

	lea	rcx, OFFSET FLAT:??_C@_0BA@GAJMDBBN@glBufferSubData@
	mov	QWORD PTR glad_glBufferData, rax
	call	get_proc

; 1661 : 	glad_glGetBufferSubData = (PFNGLGETBUFFERSUBDATAPROC)load("glGetBufferSubData");

	lea	rcx, OFFSET FLAT:??_C@_0BD@PNDAHMBO@glGetBufferSubData@
	call	get_proc

; 1662 : 	glad_glMapBuffer = (PFNGLMAPBUFFERPROC)load("glMapBuffer");

	lea	rcx, OFFSET FLAT:??_C@_0M@NNHDPACA@glMapBuffer@
	call	get_proc

; 1663 : 	glad_glUnmapBuffer = (PFNGLUNMAPBUFFERPROC)load("glUnmapBuffer");

	lea	rcx, OFFSET FLAT:??_C@_0O@OFGHBLEO@glUnmapBuffer@
	call	get_proc

; 1664 : 	glad_glGetBufferParameteriv = (PFNGLGETBUFFERPARAMETERIVPROC)load("glGetBufferParameteriv");

	lea	rcx, OFFSET FLAT:??_C@_0BH@BMIEIFJP@glGetBufferParameteriv@
	call	get_proc

; 1665 : 	glad_glGetBufferPointerv = (PFNGLGETBUFFERPOINTERVPROC)load("glGetBufferPointerv");

	lea	rcx, OFFSET FLAT:??_C@_0BE@KNJEIFMC@glGetBufferPointerv@
	call	get_proc
$LN25@gladLoadGL:

; 2248 : 	load_GL_VERSION_1_1(load);
; 2249 : 	load_GL_VERSION_1_2(load);
; 2250 : 	load_GL_VERSION_1_3(load);
; 2251 : 	load_GL_VERSION_1_4(load);
; 2252 : 	load_GL_VERSION_1_5(load);
; 2253 : 	load_GL_VERSION_2_0(load);

	call	load_GL_VERSION_2_0

; 1764 : 	if(!GLAD_GL_VERSION_2_1) return;

	cmp	DWORD PTR GLAD_GL_VERSION_2_1, r15d
	je	SHORT $LN28@gladLoadGL

; 1765 : 	glad_glUniformMatrix2x3fv = (PFNGLUNIFORMMATRIX2X3FVPROC)load("glUniformMatrix2x3fv");

	lea	rcx, OFFSET FLAT:??_C@_0BF@KDDJMCDK@glUniformMatrix2x3fv@
	call	get_proc

; 1766 : 	glad_glUniformMatrix3x2fv = (PFNGLUNIFORMMATRIX3X2FVPROC)load("glUniformMatrix3x2fv");

	lea	rcx, OFFSET FLAT:??_C@_0BF@NANJHGPK@glUniformMatrix3x2fv@
	call	get_proc

; 1767 : 	glad_glUniformMatrix2x4fv = (PFNGLUNIFORMMATRIX2X4FVPROC)load("glUniformMatrix2x4fv");

	lea	rcx, OFFSET FLAT:??_C@_0BF@DOOOPKID@glUniformMatrix2x4fv@
	call	get_proc

; 1768 : 	glad_glUniformMatrix4x2fv = (PFNGLUNIFORMMATRIX4X2FVPROC)load("glUniformMatrix4x2fv");

	lea	rcx, OFFSET FLAT:??_C@_0BF@MNNMEGEC@glUniformMatrix4x2fv@
	call	get_proc

; 1769 : 	glad_glUniformMatrix3x4fv = (PFNGLUNIFORMMATRIX3X4FVPROC)load("glUniformMatrix3x4fv");

	lea	rcx, OFFSET FLAT:??_C@_0BF@PFLCCJCG@glUniformMatrix3x4fv@
	call	get_proc

; 1770 : 	glad_glUniformMatrix4x3fv = (PFNGLUNIFORMMATRIX4X3FVPROC)load("glUniformMatrix4x3fv");

	lea	rcx, OFFSET FLAT:??_C@_0BF@HFGACBCH@glUniformMatrix4x3fv@
	call	get_proc
$LN28@gladLoadGL:

; 2254 : 	load_GL_VERSION_2_1(load);
; 2255 : 	load_GL_VERSION_3_0(load);

	call	load_GL_VERSION_3_0

; 1860 : 	if(!GLAD_GL_VERSION_3_1) return;

	cmp	DWORD PTR GLAD_GL_VERSION_3_1, r15d
	je	$LN31@gladLoadGL

; 1861 : 	glad_glDrawArraysInstanced = (PFNGLDRAWARRAYSINSTANCEDPROC)load("glDrawArraysInstanced");

	lea	rcx, OFFSET FLAT:??_C@_0BG@HIOFINAN@glDrawArraysInstanced@
	call	get_proc

; 1862 : 	glad_glDrawElementsInstanced = (PFNGLDRAWELEMENTSINSTANCEDPROC)load("glDrawElementsInstanced");

	lea	rcx, OFFSET FLAT:??_C@_0BI@CGJENFBH@glDrawElementsInstanced@
	call	get_proc

; 1863 : 	glad_glTexBuffer = (PFNGLTEXBUFFERPROC)load("glTexBuffer");

	lea	rcx, OFFSET FLAT:??_C@_0M@IIMBBALL@glTexBuffer@
	mov	QWORD PTR glad_glDrawElementsInstanced, rax
	call	get_proc

; 1864 : 	glad_glPrimitiveRestartIndex = (PFNGLPRIMITIVERESTARTINDEXPROC)load("glPrimitiveRestartIndex");

	lea	rcx, OFFSET FLAT:??_C@_0BI@LJDLNGAF@glPrimitiveRestartIndex@
	call	get_proc

; 1865 : 	glad_glCopyBufferSubData = (PFNGLCOPYBUFFERSUBDATAPROC)load("glCopyBufferSubData");

	lea	rcx, OFFSET FLAT:??_C@_0BE@EPKABDOG@glCopyBufferSubData@
	call	get_proc

; 1866 : 	glad_glGetUniformIndices = (PFNGLGETUNIFORMINDICESPROC)load("glGetUniformIndices");

	lea	rcx, OFFSET FLAT:??_C@_0BE@MDPMIDEE@glGetUniformIndices@
	call	get_proc

; 1867 : 	glad_glGetActiveUniformsiv = (PFNGLGETACTIVEUNIFORMSIVPROC)load("glGetActiveUniformsiv");

	lea	rcx, OFFSET FLAT:??_C@_0BG@JEHIMPCG@glGetActiveUniformsiv@
	call	get_proc

; 1868 : 	glad_glGetActiveUniformName = (PFNGLGETACTIVEUNIFORMNAMEPROC)load("glGetActiveUniformName");

	lea	rcx, OFFSET FLAT:??_C@_0BH@EGGFHKJJ@glGetActiveUniformName@
	call	get_proc

; 1869 : 	glad_glGetUniformBlockIndex = (PFNGLGETUNIFORMBLOCKINDEXPROC)load("glGetUniformBlockIndex");

	lea	rcx, OFFSET FLAT:??_C@_0BH@CBDIMHHE@glGetUniformBlockIndex@
	call	get_proc

; 1870 : 	glad_glGetActiveUniformBlockiv = (PFNGLGETACTIVEUNIFORMBLOCKIVPROC)load("glGetActiveUniformBlockiv");

	lea	rcx, OFFSET FLAT:??_C@_0BK@DMHOPJGL@glGetActiveUniformBlockiv@
	call	get_proc

; 1871 : 	glad_glGetActiveUniformBlockName = (PFNGLGETACTIVEUNIFORMBLOCKNAMEPROC)load("glGetActiveUniformBlockName");

	lea	rcx, OFFSET FLAT:??_C@_0BM@KEMCJPAJ@glGetActiveUniformBlockName@
	call	get_proc

; 1872 : 	glad_glUniformBlockBinding = (PFNGLUNIFORMBLOCKBINDINGPROC)load("glUniformBlockBinding");

	lea	rcx, OFFSET FLAT:??_C@_0BG@BOLEKKCP@glUniformBlockBinding@
	call	get_proc

; 1873 : 	glad_glBindBufferRange = (PFNGLBINDBUFFERRANGEPROC)load("glBindBufferRange");

	lea	rcx, OFFSET FLAT:??_C@_0BC@EEMMCHMB@glBindBufferRange@
	call	get_proc

; 1874 : 	glad_glBindBufferBase = (PFNGLBINDBUFFERBASEPROC)load("glBindBufferBase");

	lea	rcx, OFFSET FLAT:??_C@_0BB@LDPKOCJI@glBindBufferBase@
	call	get_proc

; 1875 : 	glad_glGetIntegeri_v = (PFNGLGETINTEGERI_VPROC)load("glGetIntegeri_v");

	lea	rcx, OFFSET FLAT:??_C@_0BA@FKCNNMFO@glGetIntegeri_v@
	call	get_proc
$LN31@gladLoadGL:

; 1878 : 	if(!GLAD_GL_VERSION_3_2) return;

	cmp	DWORD PTR GLAD_GL_VERSION_3_2, r15d
	je	$LN34@gladLoadGL

; 1879 : 	glad_glDrawElementsBaseVertex = (PFNGLDRAWELEMENTSBASEVERTEXPROC)load("glDrawElementsBaseVertex");

	lea	rcx, OFFSET FLAT:??_C@_0BJ@LFMMIAHA@glDrawElementsBaseVertex@
	call	get_proc

; 1880 : 	glad_glDrawRangeElementsBaseVertex = (PFNGLDRAWRANGEELEMENTSBASEVERTEXPROC)load("glDrawRangeElementsBaseVertex");

	lea	rcx, OFFSET FLAT:??_C@_0BO@KBDDBILP@glDrawRangeElementsBaseVertex@
	call	get_proc

; 1881 : 	glad_glDrawElementsInstancedBaseVertex = (PFNGLDRAWELEMENTSINSTANCEDBASEVERTEXPROC)load("glDrawElementsInstancedBaseVertex");

	lea	rcx, OFFSET FLAT:??_C@_0CC@KLOIIKNA@glDrawElementsInstancedBaseVert@
	call	get_proc

; 1882 : 	glad_glMultiDrawElementsBaseVertex = (PFNGLMULTIDRAWELEMENTSBASEVERTEXPROC)load("glMultiDrawElementsBaseVertex");

	lea	rcx, OFFSET FLAT:??_C@_0BO@NAPFJEEK@glMultiDrawElementsBaseVertex@
	call	get_proc

; 1883 : 	glad_glProvokingVertex = (PFNGLPROVOKINGVERTEXPROC)load("glProvokingVertex");

	lea	rcx, OFFSET FLAT:??_C@_0BC@ECOAPEBI@glProvokingVertex@
	call	get_proc

; 1884 : 	glad_glFenceSync = (PFNGLFENCESYNCPROC)load("glFenceSync");

	lea	rcx, OFFSET FLAT:??_C@_0M@EFGFPFLP@glFenceSync@
	call	get_proc

; 1885 : 	glad_glIsSync = (PFNGLISSYNCPROC)load("glIsSync");

	lea	rcx, OFFSET FLAT:??_C@_08JPIIHJEO@glIsSync@
	call	get_proc

; 1886 : 	glad_glDeleteSync = (PFNGLDELETESYNCPROC)load("glDeleteSync");

	lea	rcx, OFFSET FLAT:??_C@_0N@PIFDNDFG@glDeleteSync@
	call	get_proc

; 1887 : 	glad_glClientWaitSync = (PFNGLCLIENTWAITSYNCPROC)load("glClientWaitSync");

	lea	rcx, OFFSET FLAT:??_C@_0BB@KDMPGJAC@glClientWaitSync@
	call	get_proc

; 1888 : 	glad_glWaitSync = (PFNGLWAITSYNCPROC)load("glWaitSync");

	lea	rcx, OFFSET FLAT:??_C@_0L@MHLOGHGO@glWaitSync@
	call	get_proc

; 1889 : 	glad_glGetInteger64v = (PFNGLGETINTEGER64VPROC)load("glGetInteger64v");

	lea	rcx, OFFSET FLAT:??_C@_0BA@INMBOHGL@glGetInteger64v@
	call	get_proc

; 1890 : 	glad_glGetSynciv = (PFNGLGETSYNCIVPROC)load("glGetSynciv");

	lea	rcx, OFFSET FLAT:??_C@_0M@MPEEOPIN@glGetSynciv@
	call	get_proc

; 1891 : 	glad_glGetInteger64i_v = (PFNGLGETINTEGER64I_VPROC)load("glGetInteger64i_v");

	lea	rcx, OFFSET FLAT:??_C@_0BC@KOJILIEC@glGetInteger64i_v@
	call	get_proc

; 1892 : 	glad_glGetBufferParameteri64v = (PFNGLGETBUFFERPARAMETERI64VPROC)load("glGetBufferParameteri64v");

	lea	rcx, OFFSET FLAT:??_C@_0BJ@KKBIDGPP@glGetBufferParameteri64v@
	call	get_proc

; 1893 : 	glad_glFramebufferTexture = (PFNGLFRAMEBUFFERTEXTUREPROC)load("glFramebufferTexture");

	lea	rcx, OFFSET FLAT:??_C@_0BF@ENLMLILA@glFramebufferTexture@
	call	get_proc

; 1894 : 	glad_glTexImage2DMultisample = (PFNGLTEXIMAGE2DMULTISAMPLEPROC)load("glTexImage2DMultisample");

	lea	rcx, OFFSET FLAT:??_C@_0BI@FHDFLFA@glTexImage2DMultisample@
	mov	QWORD PTR glad_glFramebufferTexture, rax
	call	get_proc

; 1895 : 	glad_glTexImage3DMultisample = (PFNGLTEXIMAGE3DMULTISAMPLEPROC)load("glTexImage3DMultisample");

	lea	rcx, OFFSET FLAT:??_C@_0BI@JIHMLKCG@glTexImage3DMultisample@
	call	get_proc

; 1896 : 	glad_glGetMultisamplefv = (PFNGLGETMULTISAMPLEFVPROC)load("glGetMultisamplefv");

	lea	rcx, OFFSET FLAT:??_C@_0BD@DHLIMGN@glGetMultisamplefv@
	call	get_proc

; 1897 : 	glad_glSampleMaski = (PFNGLSAMPLEMASKIPROC)load("glSampleMaski");

	lea	rcx, OFFSET FLAT:??_C@_0O@JNHBCHMB@glSampleMaski@
	call	get_proc
$LN34@gladLoadGL:

; 2256 : 	load_GL_VERSION_3_1(load);
; 2257 : 	load_GL_VERSION_3_2(load);
; 2258 : 	load_GL_VERSION_3_3(load);

	call	load_GL_VERSION_3_3

; 1961 : 	if(!GLAD_GL_VERSION_4_0) return;

	cmp	DWORD PTR GLAD_GL_VERSION_4_0, r15d
	je	$LN37@gladLoadGL

; 1962 : 	glad_glMinSampleShading = (PFNGLMINSAMPLESHADINGPROC)load("glMinSampleShading");

	lea	rcx, OFFSET FLAT:??_C@_0BD@EDGCEBP@glMinSampleShading@
	call	get_proc

; 1963 : 	glad_glBlendEquationi = (PFNGLBLENDEQUATIONIPROC)load("glBlendEquationi");

	lea	rcx, OFFSET FLAT:??_C@_0BB@MKHLNEOM@glBlendEquationi@
	call	get_proc

; 1964 : 	glad_glBlendEquationSeparatei = (PFNGLBLENDEQUATIONSEPARATEIPROC)load("glBlendEquationSeparatei");

	lea	rcx, OFFSET FLAT:??_C@_0BJ@FNMBAGAC@glBlendEquationSeparatei@
	call	get_proc

; 1965 : 	glad_glBlendFunci = (PFNGLBLENDFUNCIPROC)load("glBlendFunci");

	lea	rcx, OFFSET FLAT:??_C@_0N@IKKELNNP@glBlendFunci@
	call	get_proc

; 1966 : 	glad_glBlendFuncSeparatei = (PFNGLBLENDFUNCSEPARATEIPROC)load("glBlendFuncSeparatei");

	lea	rcx, OFFSET FLAT:??_C@_0BF@PDDGKNBJ@glBlendFuncSeparatei@
	call	get_proc

; 1967 : 	glad_glDrawArraysIndirect = (PFNGLDRAWARRAYSINDIRECTPROC)load("glDrawArraysIndirect");

	lea	rcx, OFFSET FLAT:??_C@_0BF@BGDCPAEP@glDrawArraysIndirect@
	call	get_proc

; 1968 : 	glad_glDrawElementsIndirect = (PFNGLDRAWELEMENTSINDIRECTPROC)load("glDrawElementsIndirect");

	lea	rcx, OFFSET FLAT:??_C@_0BH@LJJDOEDH@glDrawElementsIndirect@
	call	get_proc

; 1969 : 	glad_glUniform1d = (PFNGLUNIFORM1DPROC)load("glUniform1d");

	lea	rcx, OFFSET FLAT:??_C@_0M@PJLEGNGH@glUniform1d@
	call	get_proc

; 1970 : 	glad_glUniform2d = (PFNGLUNIFORM2DPROC)load("glUniform2d");

	lea	rcx, OFFSET FLAT:??_C@_0M@PLPCNDDO@glUniform2d@
	call	get_proc

; 1971 : 	glad_glUniform3d = (PFNGLUNIFORM3DPROC)load("glUniform3d");

	lea	rcx, OFFSET FLAT:??_C@_0M@PKDALJAJ@glUniform3d@
	call	get_proc

; 1972 : 	glad_glUniform4d = (PFNGLUNIFORM4DPROC)load("glUniform4d");

	lea	rcx, OFFSET FLAT:??_C@_0M@PPHPKPIM@glUniform4d@
	call	get_proc

; 1973 : 	glad_glUniform1dv = (PFNGLUNIFORM1DVPROC)load("glUniform1dv");

	lea	rcx, OFFSET FLAT:??_C@_0N@KKEKJOOG@glUniform1dv@
	call	get_proc

; 1974 : 	glad_glUniform2dv = (PFNGLUNIFORM2DVPROC)load("glUniform2dv");

	lea	rcx, OFFSET FLAT:??_C@_0N@LIPPDBAI@glUniform2dv@
	call	get_proc

; 1975 : 	glad_glUniform3dv = (PFNGLUNIFORM3DVPROC)load("glUniform3dv");

	lea	rcx, OFFSET FLAT:??_C@_0N@EDFGGN@glUniform3dv@
	call	get_proc

; 1976 : 	glad_glUniform4dv = (PFNGLUNIFORM4DVPROC)load("glUniform4dv");

	lea	rcx, OFFSET FLAT:??_C@_0N@JNJEGONE@glUniform4dv@
	call	get_proc

; 1977 : 	glad_glUniformMatrix2dv = (PFNGLUNIFORMMATRIX2DVPROC)load("glUniformMatrix2dv");

	lea	rcx, OFFSET FLAT:??_C@_0BD@JLJNJPBN@glUniformMatrix2dv@
	call	get_proc

; 1978 : 	glad_glUniformMatrix3dv = (PFNGLUNIFORMMATRIX3DVPROC)load("glUniformMatrix3dv");

	lea	rcx, OFFSET FLAT:??_C@_0BD@CDCBPIHI@glUniformMatrix3dv@
	call	get_proc

; 1979 : 	glad_glUniformMatrix4dv = (PFNGLUNIFORMMATRIX4DVPROC)load("glUniformMatrix4dv");

	lea	rcx, OFFSET FLAT:??_C@_0BD@LOPGMAMB@glUniformMatrix4dv@
	call	get_proc

; 1980 : 	glad_glUniformMatrix2x3dv = (PFNGLUNIFORMMATRIX2X3DVPROC)load("glUniformMatrix2x3dv");

	lea	rcx, OFFSET FLAT:??_C@_0BF@KALNBGFE@glUniformMatrix2x3dv@
	call	get_proc

; 1981 : 	glad_glUniformMatrix2x4dv = (PFNGLUNIFORMMATRIX2X4DVPROC)load("glUniformMatrix2x4dv");

	lea	rcx, OFFSET FLAT:??_C@_0BF@DNGKCOON@glUniformMatrix2x4dv@
	call	get_proc

; 1982 : 	glad_glUniformMatrix3x2dv = (PFNGLUNIFORMMATRIX3X2DVPROC)load("glUniformMatrix3x2dv");

	lea	rcx, OFFSET FLAT:??_C@_0BF@NDFNKCJE@glUniformMatrix3x2dv@
	call	get_proc

; 1983 : 	glad_glUniformMatrix3x4dv = (PFNGLUNIFORMMATRIX3X4DVPROC)load("glUniformMatrix3x4dv");

	lea	rcx, OFFSET FLAT:??_C@_0BF@PGDGPNEI@glUniformMatrix3x4dv@
	call	get_proc

; 1984 : 	glad_glUniformMatrix4x2dv = (PFNGLUNIFORMMATRIX4X2DVPROC)load("glUniformMatrix4x2dv");

	lea	rcx, OFFSET FLAT:??_C@_0BF@MOFIJCCM@glUniformMatrix4x2dv@
	call	get_proc

; 1985 : 	glad_glUniformMatrix4x3dv = (PFNGLUNIFORMMATRIX4X3DVPROC)load("glUniformMatrix4x3dv");

	lea	rcx, OFFSET FLAT:??_C@_0BF@HGOEPFEJ@glUniformMatrix4x3dv@
	call	get_proc

; 1986 : 	glad_glGetUniformdv = (PFNGLGETUNIFORMDVPROC)load("glGetUniformdv");

	lea	rcx, OFFSET FLAT:??_C@_0P@NGEMHI@glGetUniformdv@
	call	get_proc

; 1987 : 	glad_glGetSubroutineUniformLocation = (PFNGLGETSUBROUTINEUNIFORMLOCATIONPROC)load("glGetSubroutineUniformLocation");

	lea	rcx, OFFSET FLAT:??_C@_0BP@IBIPLDOA@glGetSubroutineUniformLocation@
	call	get_proc

; 1988 : 	glad_glGetSubroutineIndex = (PFNGLGETSUBROUTINEINDEXPROC)load("glGetSubroutineIndex");

	lea	rcx, OFFSET FLAT:??_C@_0BF@ONDIGCJG@glGetSubroutineIndex@
	call	get_proc

; 1989 : 	glad_glGetActiveSubroutineUniformiv = (PFNGLGETACTIVESUBROUTINEUNIFORMIVPROC)load("glGetActiveSubroutineUniformiv");

	lea	rcx, OFFSET FLAT:??_C@_0BP@FAPFAJFP@glGetActiveSubroutineUniformiv@
	call	get_proc

; 1990 : 	glad_glGetActiveSubroutineUniformName = (PFNGLGETACTIVESUBROUTINEUNIFORMNAMEPROC)load("glGetActiveSubroutineUniformName");

	lea	rcx, OFFSET FLAT:??_C@_0CB@KCFFPCGJ@glGetActiveSubroutineUniformNam@
	call	get_proc

; 1991 : 	glad_glGetActiveSubroutineName = (PFNGLGETACTIVESUBROUTINENAMEPROC)load("glGetActiveSubroutineName");

	lea	rcx, OFFSET FLAT:??_C@_0BK@JPHEACLL@glGetActiveSubroutineName@
	call	get_proc

; 1992 : 	glad_glUniformSubroutinesuiv = (PFNGLUNIFORMSUBROUTINESUIVPROC)load("glUniformSubroutinesuiv");

	lea	rcx, OFFSET FLAT:??_C@_0BI@CDPOBBHI@glUniformSubroutinesuiv@
	call	get_proc

; 1993 : 	glad_glGetUniformSubroutineuiv = (PFNGLGETUNIFORMSUBROUTINEUIVPROC)load("glGetUniformSubroutineuiv");

	lea	rcx, OFFSET FLAT:??_C@_0BK@BLMOFAGJ@glGetUniformSubroutineuiv@
	call	get_proc

; 1994 : 	glad_glGetProgramStageiv = (PFNGLGETPROGRAMSTAGEIVPROC)load("glGetProgramStageiv");

	lea	rcx, OFFSET FLAT:??_C@_0BE@LOKJCDFH@glGetProgramStageiv@
	call	get_proc

; 1995 : 	glad_glPatchParameteri = (PFNGLPATCHPARAMETERIPROC)load("glPatchParameteri");

	lea	rcx, OFFSET FLAT:??_C@_0BC@PAPDGMLA@glPatchParameteri@
	call	get_proc

; 1996 : 	glad_glPatchParameterfv = (PFNGLPATCHPARAMETERFVPROC)load("glPatchParameterfv");

	lea	rcx, OFFSET FLAT:??_C@_0BD@LJKINJKN@glPatchParameterfv@
	call	get_proc

; 1997 : 	glad_glBindTransformFeedback = (PFNGLBINDTRANSFORMFEEDBACKPROC)load("glBindTransformFeedback");

	lea	rcx, OFFSET FLAT:??_C@_0BI@BPJKLMIG@glBindTransformFeedback@
	call	get_proc

; 1998 : 	glad_glDeleteTransformFeedbacks = (PFNGLDELETETRANSFORMFEEDBACKSPROC)load("glDeleteTransformFeedbacks");

	lea	rcx, OFFSET FLAT:??_C@_0BL@DIGEBFBK@glDeleteTransformFeedbacks@
	call	get_proc

; 1999 : 	glad_glGenTransformFeedbacks = (PFNGLGENTRANSFORMFEEDBACKSPROC)load("glGenTransformFeedbacks");

	lea	rcx, OFFSET FLAT:??_C@_0BI@KANKBGAE@glGenTransformFeedbacks@
	call	get_proc

; 2000 : 	glad_glIsTransformFeedback = (PFNGLISTRANSFORMFEEDBACKPROC)load("glIsTransformFeedback");

	lea	rcx, OFFSET FLAT:??_C@_0BG@BGFLKHBM@glIsTransformFeedback@
	call	get_proc

; 2001 : 	glad_glPauseTransformFeedback = (PFNGLPAUSETRANSFORMFEEDBACKPROC)load("glPauseTransformFeedback");

	lea	rcx, OFFSET FLAT:??_C@_0BJ@FFNLKBCB@glPauseTransformFeedback@
	call	get_proc

; 2002 : 	glad_glResumeTransformFeedback = (PFNGLRESUMETRANSFORMFEEDBACKPROC)load("glResumeTransformFeedback");

	lea	rcx, OFFSET FLAT:??_C@_0BK@JMHONFHF@glResumeTransformFeedback@
	call	get_proc

; 2003 : 	glad_glDrawTransformFeedback = (PFNGLDRAWTRANSFORMFEEDBACKPROC)load("glDrawTransformFeedback");

	lea	rcx, OFFSET FLAT:??_C@_0BI@LEOILCPN@glDrawTransformFeedback@
	call	get_proc

; 2004 : 	glad_glDrawTransformFeedbackStream = (PFNGLDRAWTRANSFORMFEEDBACKSTREAMPROC)load("glDrawTransformFeedbackStream");

	lea	rcx, OFFSET FLAT:??_C@_0BO@IGLFNCDG@glDrawTransformFeedbackStream@
	call	get_proc

; 2005 : 	glad_glBeginQueryIndexed = (PFNGLBEGINQUERYINDEXEDPROC)load("glBeginQueryIndexed");

	lea	rcx, OFFSET FLAT:??_C@_0BE@BDKPJDEE@glBeginQueryIndexed@
	call	get_proc

; 2006 : 	glad_glEndQueryIndexed = (PFNGLENDQUERYINDEXEDPROC)load("glEndQueryIndexed");

	lea	rcx, OFFSET FLAT:??_C@_0BC@DPMHMNME@glEndQueryIndexed@
	call	get_proc

; 2007 : 	glad_glGetQueryIndexediv = (PFNGLGETQUERYINDEXEDIVPROC)load("glGetQueryIndexediv");

	lea	rcx, OFFSET FLAT:??_C@_0BE@CCFJPMFI@glGetQueryIndexediv@
	call	get_proc
$LN37@gladLoadGL:

; 2259 : 	load_GL_VERSION_4_0(load);
; 2260 : 	load_GL_VERSION_4_1(load);

	call	load_GL_VERSION_4_1

; 2102 : 	if(!GLAD_GL_VERSION_4_2) return;

	cmp	DWORD PTR GLAD_GL_VERSION_4_2, r15d
	je	$LN40@gladLoadGL

; 2103 : 	glad_glDrawArraysInstancedBaseInstance = (PFNGLDRAWARRAYSINSTANCEDBASEINSTANCEPROC)load("glDrawArraysInstancedBaseInstance");

	lea	rcx, OFFSET FLAT:??_C@_0CC@FBJBJHCN@glDrawArraysInstancedBaseInstan@
	call	get_proc

; 2104 : 	glad_glDrawElementsInstancedBaseInstance = (PFNGLDRAWELEMENTSINSTANCEDBASEINSTANCEPROC)load("glDrawElementsInstancedBaseInstance");

	lea	rcx, OFFSET FLAT:??_C@_0CE@NGNINKJD@glDrawElementsInstancedBaseInst@
	call	get_proc

; 2105 : 	glad_glDrawElementsInstancedBaseVertexBaseInstance = (PFNGLDRAWELEMENTSINSTANCEDBASEVERTEXBASEINSTANCEPROC)load("glDrawElementsInstancedBaseVertexBaseInstance");

	lea	rcx, OFFSET FLAT:??_C@_0CO@GCMNEAOA@glDrawElementsInstancedBaseVert@
	call	get_proc

; 2106 : 	glad_glGetInternalformativ = (PFNGLGETINTERNALFORMATIVPROC)load("glGetInternalformativ");

	lea	rcx, OFFSET FLAT:??_C@_0BG@BAOCDJPF@glGetInternalformativ@
	call	get_proc

; 2107 : 	glad_glGetActiveAtomicCounterBufferiv = (PFNGLGETACTIVEATOMICCOUNTERBUFFERIVPROC)load("glGetActiveAtomicCounterBufferiv");

	lea	rcx, OFFSET FLAT:??_C@_0CB@CEHFMJFN@glGetActiveAtomicCounterBufferi@
	call	get_proc

; 2108 : 	glad_glBindImageTexture = (PFNGLBINDIMAGETEXTUREPROC)load("glBindImageTexture");

	lea	rcx, OFFSET FLAT:??_C@_0BD@GAKEPNGD@glBindImageTexture@
	call	get_proc

; 2109 : 	glad_glMemoryBarrier = (PFNGLMEMORYBARRIERPROC)load("glMemoryBarrier");

	lea	rcx, OFFSET FLAT:??_C@_0BA@HIHPNLBJ@glMemoryBarrier@
	call	get_proc

; 2110 : 	glad_glTexStorage1D = (PFNGLTEXSTORAGE1DPROC)load("glTexStorage1D");

	lea	rcx, OFFSET FLAT:??_C@_0P@LCLGPEBO@glTexStorage1D@
	call	get_proc

; 2111 : 	glad_glTexStorage2D = (PFNGLTEXSTORAGE2DPROC)load("glTexStorage2D");

	lea	rcx, OFFSET FLAT:??_C@_0P@LAPAEKEH@glTexStorage2D@
	call	get_proc

; 2112 : 	glad_glTexStorage3D = (PFNGLTEXSTORAGE3DPROC)load("glTexStorage3D");

	lea	rcx, OFFSET FLAT:??_C@_0P@LBDCCAHA@glTexStorage3D@
	call	get_proc

; 2113 : 	glad_glDrawTransformFeedbackInstanced = (PFNGLDRAWTRANSFORMFEEDBACKINSTANCEDPROC)load("glDrawTransformFeedbackInstanced");

	lea	rcx, OFFSET FLAT:??_C@_0CB@NDMLCEF@glDrawTransformFeedbackInstance@
	call	get_proc

; 2114 : 	glad_glDrawTransformFeedbackStreamInstanced = (PFNGLDRAWTRANSFORMFEEDBACKSTREAMINSTANCEDPROC)load("glDrawTransformFeedbackStreamInstanced");

	lea	rcx, OFFSET FLAT:??_C@_0CH@OMPFKBLK@glDrawTransformFeedbackStreamIn@
	call	get_proc
$LN40@gladLoadGL:

; 2117 : 	if(!GLAD_GL_VERSION_4_3) return;

	cmp	DWORD PTR GLAD_GL_VERSION_4_3, r15d
	je	$LN43@gladLoadGL

; 2118 : 	glad_glClearBufferData = (PFNGLCLEARBUFFERDATAPROC)load("glClearBufferData");

	lea	rcx, OFFSET FLAT:??_C@_0BC@FCMBBKMP@glClearBufferData@
	call	get_proc

; 2119 : 	glad_glClearBufferSubData = (PFNGLCLEARBUFFERSUBDATAPROC)load("glClearBufferSubData");

	lea	rcx, OFFSET FLAT:??_C@_0BF@FDHIBCMD@glClearBufferSubData@
	call	get_proc

; 2120 : 	glad_glDispatchCompute = (PFNGLDISPATCHCOMPUTEPROC)load("glDispatchCompute");

	lea	rcx, OFFSET FLAT:??_C@_0BC@DKKFFIGC@glDispatchCompute@
	call	get_proc

; 2121 : 	glad_glDispatchComputeIndirect = (PFNGLDISPATCHCOMPUTEINDIRECTPROC)load("glDispatchComputeIndirect");

	lea	rcx, OFFSET FLAT:??_C@_0BK@EJMOGMMI@glDispatchComputeIndirect@
	call	get_proc

; 2122 : 	glad_glCopyImageSubData = (PFNGLCOPYIMAGESUBDATAPROC)load("glCopyImageSubData");

	lea	rcx, OFFSET FLAT:??_C@_0BD@BNCHOBBL@glCopyImageSubData@
	call	get_proc

; 2123 : 	glad_glFramebufferParameteri = (PFNGLFRAMEBUFFERPARAMETERIPROC)load("glFramebufferParameteri");

	lea	rcx, OFFSET FLAT:??_C@_0BI@MLACHGDK@glFramebufferParameteri@
	call	get_proc

; 2124 : 	glad_glGetFramebufferParameteriv = (PFNGLGETFRAMEBUFFERPARAMETERIVPROC)load("glGetFramebufferParameteriv");

	lea	rcx, OFFSET FLAT:??_C@_0BM@BFEEFCMK@glGetFramebufferParameteriv@
	call	get_proc

; 2125 : 	glad_glGetInternalformati64v = (PFNGLGETINTERNALFORMATI64VPROC)load("glGetInternalformati64v");

	lea	rcx, OFFSET FLAT:??_C@_0BI@PHNNEGBD@glGetInternalformati64v@
	call	get_proc

; 2126 : 	glad_glInvalidateTexSubImage = (PFNGLINVALIDATETEXSUBIMAGEPROC)load("glInvalidateTexSubImage");

	lea	rcx, OFFSET FLAT:??_C@_0BI@FJDKFLGL@glInvalidateTexSubImage@
	call	get_proc

; 2127 : 	glad_glInvalidateTexImage = (PFNGLINVALIDATETEXIMAGEPROC)load("glInvalidateTexImage");

	lea	rcx, OFFSET FLAT:??_C@_0BF@KHIECPKG@glInvalidateTexImage@
	call	get_proc

; 2128 : 	glad_glInvalidateBufferSubData = (PFNGLINVALIDATEBUFFERSUBDATAPROC)load("glInvalidateBufferSubData");

	lea	rcx, OFFSET FLAT:??_C@_0BK@HOHOHNAC@glInvalidateBufferSubData@
	call	get_proc

; 2129 : 	glad_glInvalidateBufferData = (PFNGLINVALIDATEBUFFERDATAPROC)load("glInvalidateBufferData");

	lea	rcx, OFFSET FLAT:??_C@_0BH@OGIFIBHA@glInvalidateBufferData@
	call	get_proc

; 2130 : 	glad_glInvalidateFramebuffer = (PFNGLINVALIDATEFRAMEBUFFERPROC)load("glInvalidateFramebuffer");

	lea	rcx, OFFSET FLAT:??_C@_0BI@OAJPOHIP@glInvalidateFramebuffer@
	call	get_proc

; 2131 : 	glad_glInvalidateSubFramebuffer = (PFNGLINVALIDATESUBFRAMEBUFFERPROC)load("glInvalidateSubFramebuffer");

	lea	rcx, OFFSET FLAT:??_C@_0BL@IHGLAPPE@glInvalidateSubFramebuffer@
	call	get_proc

; 2132 : 	glad_glMultiDrawArraysIndirect = (PFNGLMULTIDRAWARRAYSINDIRECTPROC)load("glMultiDrawArraysIndirect");

	lea	rcx, OFFSET FLAT:??_C@_0BK@IKGAIKOP@glMultiDrawArraysIndirect@
	call	get_proc

; 2133 : 	glad_glMultiDrawElementsIndirect = (PFNGLMULTIDRAWELEMENTSINDIRECTPROC)load("glMultiDrawElementsIndirect");

	lea	rcx, OFFSET FLAT:??_C@_0BM@KHEEFMKO@glMultiDrawElementsIndirect@
	call	get_proc

; 2134 : 	glad_glGetProgramInterfaceiv = (PFNGLGETPROGRAMINTERFACEIVPROC)load("glGetProgramInterfaceiv");

	lea	rcx, OFFSET FLAT:??_C@_0BI@ICGPDPK@glGetProgramInterfaceiv@
	call	get_proc

; 2135 : 	glad_glGetProgramResourceIndex = (PFNGLGETPROGRAMRESOURCEINDEXPROC)load("glGetProgramResourceIndex");

	lea	rcx, OFFSET FLAT:??_C@_0BK@DBDCONKB@glGetProgramResourceIndex@
	call	get_proc

; 2136 : 	glad_glGetProgramResourceName = (PFNGLGETPROGRAMRESOURCENAMEPROC)load("glGetProgramResourceName");

	lea	rcx, OFFSET FLAT:??_C@_0BJ@OHCPEAGJ@glGetProgramResourceName@
	call	get_proc

; 2137 : 	glad_glGetProgramResourceiv = (PFNGLGETPROGRAMRESOURCEIVPROC)load("glGetProgramResourceiv");

	lea	rcx, OFFSET FLAT:??_C@_0BH@LEDFEPHI@glGetProgramResourceiv@
	call	get_proc

; 2138 : 	glad_glGetProgramResourceLocation = (PFNGLGETPROGRAMRESOURCELOCATIONPROC)load("glGetProgramResourceLocation");

	lea	rcx, OFFSET FLAT:??_C@_0BN@BIJNENLC@glGetProgramResourceLocation@
	call	get_proc

; 2139 : 	glad_glGetProgramResourceLocationIndex = (PFNGLGETPROGRAMRESOURCELOCATIONINDEXPROC)load("glGetProgramResourceLocationIndex");

	lea	rcx, OFFSET FLAT:??_C@_0CC@GHECGAIH@glGetProgramResourceLocationInd@
	call	get_proc

; 2140 : 	glad_glShaderStorageBlockBinding = (PFNGLSHADERSTORAGEBLOCKBINDINGPROC)load("glShaderStorageBlockBinding");

	lea	rcx, OFFSET FLAT:??_C@_0BM@GDDCNIBO@glShaderStorageBlockBinding@
	call	get_proc

; 2141 : 	glad_glTexBufferRange = (PFNGLTEXBUFFERRANGEPROC)load("glTexBufferRange");

	lea	rcx, OFFSET FLAT:??_C@_0BB@DPMGLFNI@glTexBufferRange@
	call	get_proc

; 2142 : 	glad_glTexStorage2DMultisample = (PFNGLTEXSTORAGE2DMULTISAMPLEPROC)load("glTexStorage2DMultisample");

	lea	rcx, OFFSET FLAT:??_C@_0BK@PDJAKDKP@glTexStorage2DMultisample@
	call	get_proc

; 2143 : 	glad_glTexStorage3DMultisample = (PFNGLTEXSTORAGE3DMULTISAMPLEPROC)load("glTexStorage3DMultisample");

	lea	rcx, OFFSET FLAT:??_C@_0BK@GOJPECNJ@glTexStorage3DMultisample@
	call	get_proc

; 2144 : 	glad_glTextureView = (PFNGLTEXTUREVIEWPROC)load("glTextureView");

	lea	rcx, OFFSET FLAT:??_C@_0O@BNFDGIMP@glTextureView@
	call	get_proc

; 2145 : 	glad_glBindVertexBuffer = (PFNGLBINDVERTEXBUFFERPROC)load("glBindVertexBuffer");

	lea	rcx, OFFSET FLAT:??_C@_0BD@FCGJAOHG@glBindVertexBuffer@
	call	get_proc

; 2146 : 	glad_glVertexAttribFormat = (PFNGLVERTEXATTRIBFORMATPROC)load("glVertexAttribFormat");

	lea	rcx, OFFSET FLAT:??_C@_0BF@JEIPPBFE@glVertexAttribFormat@
	call	get_proc

; 2147 : 	glad_glVertexAttribIFormat = (PFNGLVERTEXATTRIBIFORMATPROC)load("glVertexAttribIFormat");

	lea	rcx, OFFSET FLAT:??_C@_0BG@KJAHAHDI@glVertexAttribIFormat@
	call	get_proc

; 2148 : 	glad_glVertexAttribLFormat = (PFNGLVERTEXATTRIBLFORMATPROC)load("glVertexAttribLFormat");

	lea	rcx, OFFSET FLAT:??_C@_0BG@OBOHAJFM@glVertexAttribLFormat@
	call	get_proc

; 2149 : 	glad_glVertexAttribBinding = (PFNGLVERTEXATTRIBBINDINGPROC)load("glVertexAttribBinding");

	lea	rcx, OFFSET FLAT:??_C@_0BG@MLFHCGE@glVertexAttribBinding@
	call	get_proc

; 2150 : 	glad_glVertexBindingDivisor = (PFNGLVERTEXBINDINGDIVISORPROC)load("glVertexBindingDivisor");

	lea	rcx, OFFSET FLAT:??_C@_0BH@GNGCLGOI@glVertexBindingDivisor@
	call	get_proc

; 2151 : 	glad_glDebugMessageControl = (PFNGLDEBUGMESSAGECONTROLPROC)load("glDebugMessageControl");

	lea	rcx, OFFSET FLAT:??_C@_0BG@MNBDCEEP@glDebugMessageControl@
	call	get_proc

; 2152 : 	glad_glDebugMessageInsert = (PFNGLDEBUGMESSAGEINSERTPROC)load("glDebugMessageInsert");

	lea	rcx, OFFSET FLAT:??_C@_0BF@DGOJNFDO@glDebugMessageInsert@
	call	get_proc

; 2153 : 	glad_glDebugMessageCallback = (PFNGLDEBUGMESSAGECALLBACKPROC)load("glDebugMessageCallback");

	lea	rcx, OFFSET FLAT:??_C@_0BH@IGFENJCI@glDebugMessageCallback@
	call	get_proc

; 2154 : 	glad_glGetDebugMessageLog = (PFNGLGETDEBUGMESSAGELOGPROC)load("glGetDebugMessageLog");

	lea	rcx, OFFSET FLAT:??_C@_0BF@FGBMJKND@glGetDebugMessageLog@
	call	get_proc

; 2155 : 	glad_glPushDebugGroup = (PFNGLPUSHDEBUGGROUPPROC)load("glPushDebugGroup");

	lea	rcx, OFFSET FLAT:??_C@_0BB@DEFFBEGJ@glPushDebugGroup@
	call	get_proc

; 2156 : 	glad_glPopDebugGroup = (PFNGLPOPDEBUGGROUPPROC)load("glPopDebugGroup");

	lea	rcx, OFFSET FLAT:??_C@_0BA@PMJBDENK@glPopDebugGroup@
	call	get_proc

; 2157 : 	glad_glObjectLabel = (PFNGLOBJECTLABELPROC)load("glObjectLabel");

	lea	rcx, OFFSET FLAT:??_C@_0O@EFJDECDM@glObjectLabel@
	call	get_proc

; 2158 : 	glad_glGetObjectLabel = (PFNGLGETOBJECTLABELPROC)load("glGetObjectLabel");

	lea	rcx, OFFSET FLAT:??_C@_0BB@MOEDHKDB@glGetObjectLabel@
	call	get_proc

; 2159 : 	glad_glObjectPtrLabel = (PFNGLOBJECTPTRLABELPROC)load("glObjectPtrLabel");

	lea	rcx, OFFSET FLAT:??_C@_0BB@FBABGDIL@glObjectPtrLabel@
	call	get_proc

; 2160 : 	glad_glGetObjectPtrLabel = (PFNGLGETOBJECTPTRLABELPROC)load("glGetObjectPtrLabel");

	lea	rcx, OFFSET FLAT:??_C@_0BE@MIJFJOHM@glGetObjectPtrLabel@
	call	get_proc

; 2161 : 	glad_glGetPointerv = (PFNGLGETPOINTERVPROC)load("glGetPointerv");

	lea	rcx, OFFSET FLAT:??_C@_0O@LADEDGJO@glGetPointerv@
	call	get_proc
$LN43@gladLoadGL:

; 2164 : 	if(!GLAD_GL_VERSION_4_4) return;

	cmp	DWORD PTR GLAD_GL_VERSION_4_4, r15d
	je	SHORT $LN46@gladLoadGL

; 2165 : 	glad_glBufferStorage = (PFNGLBUFFERSTORAGEPROC)load("glBufferStorage");

	lea	rcx, OFFSET FLAT:??_C@_0BA@COBILMHM@glBufferStorage@
	call	get_proc

; 2166 : 	glad_glClearTexImage = (PFNGLCLEARTEXIMAGEPROC)load("glClearTexImage");

	lea	rcx, OFFSET FLAT:??_C@_0BA@FNPOIBAF@glClearTexImage@
	call	get_proc

; 2167 : 	glad_glClearTexSubImage = (PFNGLCLEARTEXSUBIMAGEPROC)load("glClearTexSubImage");

	lea	rcx, OFFSET FLAT:??_C@_0BD@CFALBON@glClearTexSubImage@
	call	get_proc

; 2168 : 	glad_glBindBuffersBase = (PFNGLBINDBUFFERSBASEPROC)load("glBindBuffersBase");

	lea	rcx, OFFSET FLAT:??_C@_0BC@ENBBLPHM@glBindBuffersBase@
	call	get_proc

; 2169 : 	glad_glBindBuffersRange = (PFNGLBINDBUFFERSRANGEPROC)load("glBindBuffersRange");

	lea	rcx, OFFSET FLAT:??_C@_0BD@ODFFOKPN@glBindBuffersRange@
	call	get_proc

; 2170 : 	glad_glBindTextures = (PFNGLBINDTEXTURESPROC)load("glBindTextures");

	lea	rcx, OFFSET FLAT:??_C@_0P@KHDEIIMA@glBindTextures@
	call	get_proc

; 2171 : 	glad_glBindSamplers = (PFNGLBINDSAMPLERSPROC)load("glBindSamplers");

	lea	rcx, OFFSET FLAT:??_C@_0P@FADPDFKM@glBindSamplers@
	call	get_proc

; 2172 : 	glad_glBindImageTextures = (PFNGLBINDIMAGETEXTURESPROC)load("glBindImageTextures");

	lea	rcx, OFFSET FLAT:??_C@_0BE@NAMJLOCK@glBindImageTextures@
	call	get_proc

; 2173 : 	glad_glBindVertexBuffers = (PFNGLBINDVERTEXBUFFERSPROC)load("glBindVertexBuffers");

	lea	rcx, OFFSET FLAT:??_C@_0BE@LNCGJHDC@glBindVertexBuffers@
	call	get_proc
$LN46@gladLoadGL:

; 174  :     if(max_loaded_major < 3) {

	cmp	DWORD PTR max_loaded_major, 3
	jge	SHORT $LN56@gladLoadGL

; 175  : #endif
; 176  :         exts = (const char *)glGetString(GL_EXTENSIONS);

	mov	ecx, 7939				; 00001f03H
	call	QWORD PTR glad_glGetString

; 177  : #ifdef _GLAD_IS_SOME_NEW_VERSION
; 178  :     } else {

	mov	ecx, DWORD PTR num_exts_i
	mov	QWORD PTR exts, rax
	mov	rax, QWORD PTR exts_i
	jmp	$LN50@gladLoadGL
$LN56@gladLoadGL:

; 179  :         int index;
; 180  : 
; 181  :         num_exts_i = 0;
; 182  :         glGetIntegerv(GL_NUM_EXTENSIONS, &num_exts_i);

	lea	rdx, OFFSET FLAT:num_exts_i
	mov	DWORD PTR num_exts_i, r15d
	mov	ecx, 33309				; 0000821dH
	call	QWORD PTR glad_glGetIntegerv

; 183  :         if (num_exts_i > 0) {

	movsxd	rcx, DWORD PTR num_exts_i
	mov	r12, -1
	test	ecx, ecx
	jle	SHORT $LN81@gladLoadGL

; 184  :             exts_i = (char **)malloc((size_t)num_exts_i * (sizeof *exts_i));

	mov	eax, 8
	mul	rcx
	cmovo	rax, r12
	mov	rcx, rax
	call	QWORD PTR __imp_malloc
	mov	ecx, DWORD PTR num_exts_i
	mov	QWORD PTR exts_i, rax
	jmp	SHORT $LN58@gladLoadGL
$LN81@gladLoadGL:

; 183  :         if (num_exts_i > 0) {

	mov	rax, QWORD PTR exts_i
$LN58@gladLoadGL:

; 185  :         }
; 186  : 
; 187  :         if (exts_i == NULL) {

	test	rax, rax
	je	$LN76@gladLoadGL

; 188  :             return 0;
; 189  :         }
; 190  : 
; 191  :         for(index = 0; index < num_exts_i; index++) {

	mov	edi, r15d
	test	ecx, ecx
	jle	$LN50@gladLoadGL
	mov	QWORD PTR [rsp+64], rbp
	mov	rbp, r15
	mov	QWORD PTR [rsp+72], rsi
	mov	QWORD PTR [rsp+80], r14
	npad	5
$LL55@gladLoadGL:

; 192  :             const char *gl_str_tmp = (const char*)glGetStringi(GL_EXTENSIONS, index);

	mov	edx, edi
	mov	ecx, 7939				; 00001f03H
	call	QWORD PTR glad_glGetStringi
	mov	rbx, rax

; 193  :             size_t len = strlen(gl_str_tmp);

	mov	rax, r12
$LL80@gladLoadGL:
	cmp	BYTE PTR [rbx+rax+1], r15b
	lea	rax, QWORD PTR [rax+1]
	jne	SHORT $LL80@gladLoadGL

; 194  : 
; 195  :             char *local_str = (char*)malloc((len+1) * sizeof(char));

	lea	r14, QWORD PTR [rax+1]
	mov	rcx, r14
	call	QWORD PTR __imp_malloc
	mov	rsi, rax

; 196  :             if(local_str != NULL) {

	test	rax, rax
	je	SHORT $LN60@gladLoadGL

; 197  :                 memcpy(local_str, gl_str_tmp, (len+1) * sizeof(char));

	mov	r8, r14
	mov	rdx, rbx
	mov	rcx, rax
	call	memcpy
$LN60@gladLoadGL:

; 198  :             }
; 199  :             exts_i[index] = local_str;

	mov	rax, QWORD PTR exts_i
	inc	edi
	mov	QWORD PTR [rax+rbp], rsi
	add	rbp, 8
	mov	ecx, DWORD PTR num_exts_i
	cmp	edi, ecx
	jl	SHORT $LL55@gladLoadGL

; 188  :             return 0;
; 189  :         }
; 190  : 
; 191  :         for(index = 0; index < num_exts_i; index++) {

	mov	r14, QWORD PTR [rsp+80]
	mov	rsi, QWORD PTR [rsp+72]
	mov	rbp, QWORD PTR [rsp+64]
$LN50@gladLoadGL:

; 207  :     if (exts_i != NULL) {

	test	rax, rax
	je	SHORT $LN4@gladLoadGL

; 208  :         int index;
; 209  :         for(index = 0; index < num_exts_i; index++) {

	mov	edi, r15d
	test	ecx, ecx
	jle	SHORT $LN64@gladLoadGL
	mov	rbx, r15
	npad	6
$LL65@gladLoadGL:

; 210  :             free((char *)exts_i[index]);

	mov	rcx, QWORD PTR [rax+rbx]
	call	QWORD PTR __imp_free
	mov	rax, QWORD PTR exts_i
	lea	rbx, QWORD PTR [rbx+8]
	inc	edi
	cmp	edi, DWORD PTR num_exts_i
	jl	SHORT $LL65@gladLoadGL
$LN64@gladLoadGL:

; 211  :         }
; 212  :         free((void *)exts_i);

	mov	rcx, rax
	call	QWORD PTR __imp_free

; 213  :         exts_i = NULL;

	mov	QWORD PTR exts_i, r15
$LN4@gladLoadGL:

; 2261 : 	load_GL_VERSION_4_2(load);
; 2262 : 	load_GL_VERSION_4_3(load);
; 2263 : 	load_GL_VERSION_4_4(load);
; 2264 : 
; 2265 : 	if (!find_extensionsGL()) return 0;
; 2266 : 	return GLVersion.major != 0 || GLVersion.minor != 0;

	cmp	DWORD PTR GLVersion, r15d
	jne	SHORT $LN6@gladLoadGL
	cmp	DWORD PTR GLVersion+4, r15d
	je	SHORT $LN7@gladLoadGL
$LN6@gladLoadGL:
	mov	r15d, 1
$LN7@gladLoadGL:
	mov	eax, r15d

; 2267 : }

	mov	rbx, QWORD PTR [rsp+88]
	add	rsp, 32					; 00000020H
	pop	r15
	pop	r12
	pop	rdi
	ret	0
$LN76@gladLoadGL:
	mov	rbx, QWORD PTR [rsp+88]
	xor	eax, eax
	add	rsp, 32					; 00000020H
	pop	r15
	pop	r12
	pop	rdi
	ret	0
gladLoadGLLoader ENDP
_TEXT	ENDS
END
