; Listing generated by Microsoft (R) Optimizing Compiler Version 19.38.33135.0 

include listing.inc

INCLUDELIB OLDNAMES

PUBLIC	??_C@_0BC@EOODALEL@Unknown?5exception@		; `string'
PUBLIC	??_C@_0BF@KINCDENJ@bad?5array?5new?5length@	; `string'
PUBLIC	??_C@_0BA@JFNIOLAK@string?5too?5long@		; `string'
PUBLIC	??_C@_08EPJLHIJG@bad?5cast@			; `string'
PUBLIC	??_C@_00CNPNBAHC@@				; `string'
PUBLIC	??_C@_05MHDPOBFF@1?46?40@			; `string'
PUBLIC	??_C@_0BG@HGEDEDEC@invalid?5stoi?5argument@	; `string'
PUBLIC	??_C@_0BL@MFFNMGGC@stoi?5argument?5out?5of?5range@ ; `string'
PUBLIC	??_C@_0BD@CBEDEJPH@unknown?5image?5type@	; `string'
PUBLIC	??_C@_08NOGIMCHF@outofmem@			; `string'
PUBLIC	??_C@_02JDPG@rb@				; `string'
PUBLIC	??_C@_0M@JPDHFAGK@can?8t?5fopen@		; `string'
PUBLIC	??_C@_0M@MHDBFHD@unsupported@			; `string'
PUBLIC	??_C@_0O@DEFOLMLB@bad?5size?5list@		; `string'
PUBLIC	??_C@_0BB@FOKGPEKG@bad?5code?5lengths@		; `string'
PUBLIC	??_C@_0BB@IIMLINA@bad?5huffman?5code@		; `string'
PUBLIC	??_C@_09IFDKCGFO@bad?5delta@			; `string'
PUBLIC	??_C@_0BG@PJBJDAGM@can?8t?5merge?5dc?5and?5ac@	; `string'
PUBLIC	??_C@_0BA@KLNDOKJD@expected?5marker@		; `string'
PUBLIC	??_C@_0M@LPHNODCG@bad?5DRI?5len@		; `string'
PUBLIC	??_C@_0N@BOFJCHAP@bad?5DQT?5type@		; `string'
PUBLIC	??_C@_0O@CNHKKDIM@bad?5DQT?5table@		; `string'
PUBLIC	??_C@_0P@JLGKOCGN@bad?5DHT?5header@		; `string'
PUBLIC	??_C@_0M@CICAFFCH@bad?5COM?5len@		; `string'
PUBLIC	??_C@_0M@EENLKPDI@bad?5APP?5len@		; `string'
PUBLIC	??_C@_0P@NNGPHMMK@unknown?5marker@		; `string'
PUBLIC	??_C@_0BI@DHFJCMBA@bad?5SOS?5component?5count@	; `string'
PUBLIC	??_C@_0M@GNEHAHOH@bad?5SOS?5len@		; `string'
PUBLIC	??_C@_0M@NOCCBFAC@bad?5DC?5huff@		; `string'
PUBLIC	??_C@_0M@JGMCBLGG@bad?5AC?5huff@		; `string'
PUBLIC	??_C@_07EEJOMGGP@bad?5SOS@			; `string'
PUBLIC	??_C@_0M@DOFMJEMP@bad?5SOF?5len@		; `string'
PUBLIC	??_C@_0L@BCINMEBJ@only?58?9bit@			; `string'
PUBLIC	??_C@_0BB@LNEGOMA@no?5header?5height@		; `string'
PUBLIC	??_C@_07BIDACDEF@0?5width@			; `string'
PUBLIC	??_C@_09OJDLMMBJ@too?5large@			; `string'
PUBLIC	??_C@_0BE@DAPHADHL@bad?5component?5count@	; `string'
PUBLIC	??_C@_05BLPKENEJ@bad?5H@			; `string'
PUBLIC	??_C@_05MPLLHCJG@bad?5V@			; `string'
PUBLIC	??_C@_06LJIHDFHI@bad?5TQ@			; `string'
PUBLIC	??_C@_06CLMBLEP@no?5SOI@			; `string'
PUBLIC	??_C@_06IFCEAHIA@no?5SOF@			; `string'
PUBLIC	??_C@_0M@EPMOIECP@bad?5DNL?5len@		; `string'
PUBLIC	??_C@_0P@PNCLKCLJ@bad?5DNL?5height@		; `string'
PUBLIC	??_C@_0N@KBPNPPBJ@bad?5req_comp@		; `string'
PUBLIC	??_C@_09EOHLEIKL@bad?5sizes@			; `string'
PUBLIC	??_C@_0BA@MDNKOBMC@bad?5codelengths@		; `string'
PUBLIC	??_C@_0BE@IBFIPFO@output?5buffer?5limit@	; `string'
PUBLIC	??_C@_08DIAPIMGJ@bad?5dist@			; `string'
PUBLIC	??_C@_0N@IECDHMDI@zlib?5corrupt@		; `string'
PUBLIC	??_C@_0BB@PIPBCKIA@read?5past?5buffer@		; `string'
PUBLIC	??_C@_0BA@OBKOPAFL@bad?5zlib?5header@		; `string'
PUBLIC	??_C@_0P@DOGMHEBI@no?5preset?5dict@		; `string'
PUBLIC	??_C@_0BA@MCNBDLPD@bad?5compression@		; `string'
PUBLIC	??_C@_0M@DMDNBACF@bad?5png?5sig@		; `string'
PUBLIC	??_C@_0BC@BHMPBBMG@not?5enough?5pixels@		; `string'
PUBLIC	??_C@_0P@FBBCPGMN@invalid?5filter@		; `string'
PUBLIC	??_C@_0O@MKGNGALN@invalid?5width@		; `string'
PUBLIC	??_C@_0O@KBHBNJOK@multiple?5IHDR@		; `string'
PUBLIC	??_C@_0N@POJLKMKK@bad?5IHDR?5len@		; `string'
PUBLIC	??_C@_0BE@EJHIPKNO@1?12?14?18?116?9bit?5only@	; `string'
PUBLIC	??_C@_09MBBNGCKB@bad?5ctype@			; `string'
PUBLIC	??_C@_0BA@MDMBDDFG@bad?5comp?5method@		; `string'
PUBLIC	??_C@_0BC@GHLIKKMD@bad?5filter?5method@		; `string'
PUBLIC	??_C@_0BF@JCGDPBAA@bad?5interlace?5method@	; `string'
PUBLIC	??_C@_0O@FNFBHCOO@0?9pixel?5image@		; `string'
PUBLIC	??_C@_0P@JEAFOMAF@first?5not?5IHDR@		; `string'
PUBLIC	??_C@_0N@JCPAJAKB@invalid?5PLTE@		; `string'
PUBLIC	??_C@_0BA@PCPJHDKJ@tRNS?5after?5IDAT@		; `string'
PUBLIC	??_C@_0BB@CEDNNLBG@tRNS?5before?5PLTE@		; `string'
PUBLIC	??_C@_0N@KDLCCKCH@bad?5tRNS?5len@		; `string'
PUBLIC	??_C@_0BA@ENDPGCHB@tRNS?5with?5alpha@		; `string'
PUBLIC	??_C@_07CKIELOEH@no?5PLTE@			; `string'
PUBLIC	??_C@_0BA@PLHGLONG@IDAT?5size?5limit@		; `string'
PUBLIC	??_C@_09MNNCNKEO@outofdata@			; `string'
PUBLIC	??_C@_07MLPECBNA@no?5IDAT@			; `string'
PUBLIC	??_C@_0BF@NOEEEFMF@bad?5bits_per_channel@	; `string'
PUBLIC	??_C@_07IANEBNLB@not?5BMP@			; `string'
PUBLIC	??_C@_07IEJCHBDI@bad?5BMP@			; `string'
PUBLIC	??_C@_0M@KHBIBJBG@unknown?5BMP@			; `string'
PUBLIC	??_C@_07IMHMNOIB@BMP?5RLE@			; `string'
PUBLIC	??_C@_0N@ODCBCBFN@BMP?5JPEG?1PNG@		; `string'
PUBLIC	??_C@_0L@PJHPAMCH@bad?5header@			; `string'
PUBLIC	??_C@_0L@JDPIFELH@bad?5offset@			; `string'
PUBLIC	??_C@_07MALOAKCI@invalid@			; `string'
PUBLIC	??_C@_07JNJHIMGH@bad?5bpp@			; `string'
PUBLIC	??_C@_09DAEBACAB@bad?5masks@			; `string'
PUBLIC	??_C@_0L@DMAPJJO@bad?5format@			; `string'
PUBLIC	??_C@_0M@ILLOCNCO@bad?5palette@			; `string'
PUBLIC	??_C@_07ECNCNLIK@not?5PSD@			; `string'
PUBLIC	??_C@_0O@CHBCDKKC@wrong?5version@		; `string'
PUBLIC	??_C@_0BE@PJBNGDBE@wrong?5channel?5count@	; `string'
PUBLIC	??_C@_0BG@NOLDLPP@unsupported?5bit?5depth@	; `string'
PUBLIC	??_C@_0BD@IOGGBMNK@wrong?5color?5format@	; `string'
PUBLIC	??_C@_07DPPMCAKL@corrupt@			; `string'
PUBLIC	??_C@_04KBFEPHFH@S?$IA?v4@			; `string'
PUBLIC	??_C@_04ELNJHLFH@PICT@				; `string'
PUBLIC	??_C@_08GGMBIFE@bad?5file@			; `string'
PUBLIC	??_C@_07KMJLPAII@not?5GIF@			; `string'
PUBLIC	??_C@_0O@MGDACKOJ@no?5clear?5code@		; `string'
PUBLIC	??_C@_0P@GJNJCPDJ@too?5many?5codes@		; `string'
PUBLIC	??_C@_0BH@LOKBIIOJ@illegal?5code?5in?5raster@	; `string'
PUBLIC	??_C@_0BF@GIAALCNJ@bad?5Image?5Descriptor@	; `string'
PUBLIC	??_C@_0BE@NAMJKDNF@missing?5color?5table@	; `string'
PUBLIC	??_C@_0N@DJABBOOH@unknown?5code@		; `string'
PUBLIC	??_C@_0M@HOIDFNFN@?$CD?$DPRADIANCE?6@		; `string'
PUBLIC	??_C@_07KFDJIKCK@?$CD?$DPRGBE?6@		; `string'
PUBLIC	??_C@_0L@NCPEAJBD@?$CD?$DPRADIANCE@		; `string'
PUBLIC	??_C@_06NDOKKIDJ@?$CD?$DPRGBE@			; `string'
PUBLIC	??_C@_07NCIOKENI@not?5HDR@			; `string'
PUBLIC	??_C@_0BH@JFGBLLKC@FORMAT?$DN32?9bit_rle_rgbe@	; `string'
PUBLIC	??_C@_0BD@NKJFFLKL@unsupported?5format@		; `string'
PUBLIC	??_C@_03HKAKGGJN@?9Y?5@				; `string'
PUBLIC	??_C@_0BI@DCNDPIOH@unsupported?5data?5layout@	; `string'
PUBLIC	??_C@_03FOKDFDHG@?$CLX?5@			; `string'
PUBLIC	??_C@_0CA@JBEOCDFN@invalid?5decoded?5scanline?5length@ ; `string'
PUBLIC	??_C@_07IDKIDMGJ@bad?5PNM@			; `string'
PUBLIC	??_C@_0BH@OBINMOBC@integer?5parse?5overflow@	; `string'
PUBLIC	??_C@_0BC@CNFMOKHC@max?5value?5?$DO?565535@	; `string'
PUBLIC	??_C@_0BB@GCADKGJO@map?1set?5too?5long@		; `string'
PUBLIC	??_C@_03MLLNEDDH@?$CJ?4?6@			; `string'
PUBLIC	??_C@_0FE@JLCEJAID@A?5zero?5value?5index?5found?5?$CIwill?5@ ; `string'
PUBLIC	??_C@_02OJDBNLEE@?5?7@				; `string'
PUBLIC	??_C@_03MEPGMKBP@?5?7?$AN@			; `string'
PUBLIC	??_C@_02LIELOMNJ@on@				; `string'
PUBLIC	??_C@_03MCADLMAF@off@				; `string'
PUBLIC	??_C@_08OOBCJANL@cube_top@			; `string'
PUBLIC	??_C@_0M@IFCPIAGF@cube_bottom@			; `string'
PUBLIC	??_C@_09HNDKEGNL@cube_left@			; `string'
PUBLIC	??_C@_0L@LIDDOHD@cube_right@			; `string'
PUBLIC	??_C@_0L@EFMNIMDA@cube_front@			; `string'
PUBLIC	??_C@_09IGPJKDJI@cube_back@			; `string'
PUBLIC	??_C@_06FOHEPPJH@sphere@			; `string'
PUBLIC	??_C@_04GAABFKML@?1?5?7?$AN@			; `string'
PUBLIC	??_C@_07MAMFDLO@?9blendu@			; `string'
PUBLIC	??_C@_07CHCBAAHN@?9blendv@			; `string'
PUBLIC	??_C@_06PCPBCOIG@?9clamp@			; `string'
PUBLIC	??_C@_06OMAGLLLO@?9boost@			; `string'
PUBLIC	??_C@_03BHODFNKE@?9bm@				; `string'
PUBLIC	??_C@_02NCEOIEDG@?9o@				; `string'
PUBLIC	??_C@_02DEDJNJGL@?9s@				; `string'
PUBLIC	??_C@_02HLHIEPKM@?9t@				; `string'
PUBLIC	??_C@_05KDBBBGBP@?9type@			; `string'
PUBLIC	??_C@_07PKCKNNCH@?9texres@			; `string'
PUBLIC	??_C@_08DELMBBI@?9imfchan@			; `string'
PUBLIC	??_C@_03BMLPBKJJ@?9mm@				; `string'
PUBLIC	??_C@_0M@IGOAKILK@?9colorspace@			; `string'
PUBLIC	??_C@_0BJ@DKOFNMBF@Degenerated?5face?5found?6?4@ ; `string'
PUBLIC	??_C@_0CH@BHGIIOFE@Face?5with?5invalid?5vertex?5index?5@ ; `string'
PUBLIC	??_C@_01KMDKNFGN@?1@				; `string'
PUBLIC	??_C@_06PJCNHOPG@newmtl@			; `string'
PUBLIC	??_C@_0CB@LPFLJEGH@empty?5material?5name?5in?5?$GAnewmtl?$GA@ ; `string'
PUBLIC	??_C@_05MOJNGNGI@illum@				; `string'
PUBLIC	??_C@_0M@LNCPDJIH@?5in?5?4mtl?4?$CJ?6@		; `string'
PUBLIC	??_C@_0CM@GFPGCFCE@?$CC?4?5Use?5the?5value?5of?5?$GAd?$GA?5for?5dis@ ; `string'
PUBLIC	??_C@_0CL@BPEDEJG@Both?5?$GAd?$GA?5and?5?$GATr?$GA?5parameters?5de@ ; `string'
PUBLIC	??_C@_03ECCOEBEM@Pcr@				; `string'
PUBLIC	??_C@_05FJGLFCGH@aniso@				; `string'
PUBLIC	??_C@_06MOIGIENN@anisor@			; `string'
PUBLIC	??_C@_06CBMPBGKH@map_Ka@			; `string'
PUBLIC	??_C@_06FMLIOCOC@map_Kd@			; `string'
PUBLIC	??_C@_06FJDLGGHE@map_Ks@			; `string'
PUBLIC	??_C@_06FPPAKEJP@map_Ns@			; `string'
PUBLIC	??_C@_08GJAIBCII@map_bump@			; `string'
PUBLIC	??_C@_08KIMJDNIM@map_Bump@			; `string'
PUBLIC	??_C@_04OJPOFNOE@bump@				; `string'
PUBLIC	??_C@_05FDELHLJH@map_d@				; `string'
PUBLIC	??_C@_08OKDPIBHF@map_disp@			; `string'
PUBLIC	??_C@_08CLPOKOHB@map_Disp@			; `string'
PUBLIC	??_C@_04GKMJMOBJ@disp@				; `string'
PUBLIC	??_C@_04DDCFCPEF@refl@				; `string'
PUBLIC	??_C@_06FAFDBLKE@map_Pr@			; `string'
PUBLIC	??_C@_06JNAJBFDK@map_Pm@			; `string'
PUBLIC	??_C@_06EJEICKOF@map_Ps@			; `string'
PUBLIC	??_C@_06EFKDNDKD@map_Ke@			; `string'
PUBLIC	??_C@_04PLLMIPEP@norm@				; `string'
PUBLIC	??_C@_01EEMJAFIK@?6@				; `string'
PUBLIC	??_C@_0BK@FJLEOGFA@?5?$FN?5not?5found?5in?5a?5path?5?3?5@ ; `string'
PUBLIC	??_C@_0BB@KOKNOHBB@Material?5file?5?$FL?5@	; `string'
PUBLIC	??_C@_0CC@KLBNFCGF@Material?5stream?5in?5error?5state?4@ ; `string'
PUBLIC	??_C@_02JODFHDIE@?$FN?6@			; `string'
PUBLIC	??_C@_0BD@LGGBCJFA@Cannot?5open?5file?5?$FL@	; `string'
PUBLIC	??_C@_03FDCFGNAL@?4?$CJ?6@			; `string'
PUBLIC	??_C@_0DE@BCIDBMCF@Failed?5parse?5?$GAvw?8?5line?4?5joint_i@ ; `string'
PUBLIC	??_C@_0EE@PLEKAKLF@Failed?5to?5parse?5?$GAl?8?5line?5?$CIe?4g?4?5@ ; `string'
PUBLIC	??_C@_0EE@JHOFEKFN@Failed?5to?5parse?5?$GAp?8?5line?5?$CIe?4g?4?5@ ; `string'
PUBLIC	??_C@_0GG@CAJFNEM@Failed?5to?5parse?5?$GAf?8?5line?5?$CIe?4g?4?5@ ; `string'
PUBLIC	??_C@_06FDFLJDKG@usemtl@			; `string'
PUBLIC	??_C@_0BH@BIHAJECI@?8?5?$FN?5not?5found?5in?5?4mtl?6@ ; `string'
PUBLIC	??_C@_0N@PNFEGOO@material?5?$FL?5?8@		; `string'
PUBLIC	??_C@_06CFLOGJAO@mtllib@			; `string'
PUBLIC	??_C@_0EC@JKJAIDBN@Looks?5like?5empty?5filename?5for?5m@ ; `string'
PUBLIC	??_C@_0DI@GMPHPCIK@Failed?5to?5load?5material?5file?$CIs?$CJ@ ; `string'
PUBLIC	??_C@_0BJ@LDOEEFPB@Empty?5group?5name?4?5line?3?5@ ; `string'
PUBLIC	??_C@_01CLKCMJKC@?5@				; `string'
PUBLIC	??_C@_04GNGOBEGP@?4?$CJ?6?6@			; `string'
PUBLIC	??_C@_0CE@BMIEGHNE@Vertex?5indices?5out?5of?5bounds?5?$CIl@ ; `string'
PUBLIC	??_C@_0CL@EHMKBOLH@Vertex?5normal?5indices?5out?5of?5bo@ ; `string'
PUBLIC	??_C@_0CN@JCDPIBNO@Vertex?5texcoord?5indices?5out?5of?5@ ; `string'
PUBLIC	??_C@_0BG@LGKFJFLK@?5?$FN?5not?5found?5in?5?4mtl?6@ ; `string'
PUBLIC	??_C@_0M@HALFGPCC@material?5?$FL?5@		; `string'
PUBLIC	??_C@_0DO@GKJEJCBO@Looks?5like?5empty?5filename?5for?5m@ ; `string'
PUBLIC	??_C@_02CFKBDFGI@?1?2@				; `string'
PUBLIC	??_C@_02DKCKIIND@?$CFs@				; `string'
PUBLIC	??_C@_0BJ@MFMIOOPG@?5?$DO?$DO?5Unable?5to?5load?5file?$CB@ ; `string'
PUBLIC	??_C@_07DKOHAGLI@PROGRAM@			; `string'
PUBLIC	??_C@_0CJ@IBFAJPKA@?6?5?$DO?$DO?5SHADER?5COMPILATION?5ERROR?$CB?5@ ; `string'
PUBLIC	??_C@_06HPIMPLPK@VERTEX@			; `string'
PUBLIC	??_C@_08PLCGCNBD@FRAGMENT@			; `string'
PUBLIC	??_C@_08BDMAAGDL@GEOMETRY@			; `string'
PUBLIC	??_C@_0BC@MEIPKJLN@Screen_Dimensions@		; `string'
PUBLIC	??_C@_0CE@EBHFDNIE@?5?$DO?$DO?5Window?5resized?$CB?$CB?6?7w?3?5?$CFd?6?7h?3@ ; `string'
PUBLIC	??_C@_0CE@OKLJOMG@?5?$DO?$DO?5Open?5in?5fullscreen?$DP?5?$FLY?1N?$FN?6?6@ ; `string'
PUBLIC	??_C@_0BE@NCPOHKKH@Vision?5engine?5test?$CB@	; `string'
PUBLIC	??_C@_0CF@GMJOBJJC@?5?$DO?$DO?5Failed?5to?5create?5OpenGL?5Win@ ; `string'
PUBLIC	??_C@_06BHEBDDGP@123456@			; `string'
PUBLIC	??_C@_0CE@MBFMGAA@?5?$DO?$DO?5Unable?5to?5load?5animation?5fi@ ; `string'
PUBLIC	??_C@_0BC@CKPBNEHK@Projection_Matrix@		; `string'
PUBLIC	??_C@_0BA@KNJDCGDH@Camera_Position@		; `string'
PUBLIC	??_C@_0BE@GAIIFIFB@Camera_Up_Direction@		; `string'
PUBLIC	??_C@_0BB@LHDBBGAJ@Camera_Direction@		; `string'
PUBLIC	??_C@_0N@DKIOOHIK@Model_Matrix@			; `string'
PUBLIC	??_C@_0P@NDJBOPKL@Model_Position@		; `string'
PUBLIC	??_C@_0CD@LKPJGCPN@?5?$DO?$DO?5Unable?5to?5load?5cubemap?5imag@ ; `string'
PUBLIC	??_C@_0CE@BNJBIEEK@?5?$DO?$DO?5Failed?5to?5load?5fbx?5with?5ass@ ; `string'
PUBLIC	??_C@_01MHEDDDHA@v@				; `string'
PUBLIC	??_C@_0BG@LODAHFKF@Unable?5to?5open?5file?$CB?6@ ; `string'
PUBLIC	??_C@_02KLLMHECG@vn@				; `string'
PUBLIC	??_C@_02BLJBIOPN@vt@				; `string'
PUBLIC	??_C@_01INIBCBCB@f@				; `string'
PUBLIC	??_C@_0CB@IAFHFLDP@?5?$DO?$DO?5Failed?5to?5load?5object?$CB?6?$CFs?6?$CF@ ; `string'
PUBLIC	??_C@_0BM@KEKPJACI@?5?$DO?$DO?5Unable?5to?5load?5texture?$CB@ ; `string'
PUBLIC	??_C@_01FMEDJKGI@o@				; `string'
PUBLIC	??_C@_01JEJKBAGA@g@				; `string'
PUBLIC	??_C@_0BN@JNDPKOO@Unable?5to?5open?5hitbox?5file?$CB?6@ ; `string'
PUBLIC	??_C@_06LNGIKGOF@Albedo@			; `string'
PUBLIC	??_C@_08CPBFELGP@Material@			; `string'
PUBLIC	??_C@_0M@LELENBJM@Shadow_Maps@			; `string'
PUBLIC	??_C@_0BP@HBGJKJAF@Shader_Code?1Shadow_Test_2?4geom@ ; `string'
PUBLIC	??_C@_0BP@HBLGCKBD@Shader_Code?1Shadow_Test_2?4frag@ ; `string'
PUBLIC	??_C@_0BP@KDBHIOAM@Shader_Code?1Shadow_Test_2?4vert@ ; `string'
PUBLIC	??_C@_0CB@LCLHKAGM@?5?$DO?$DO?5Framebuffer?5is?5not?5complete@ ; `string'
PUBLIC	??_C@_0P@KFPIDHFL@Light_Position@		; `string'
PUBLIC	??_C@_0N@ECEGNIF@Light_Colour@			; `string'
PUBLIC	??_C@_0BA@PDDNFAGL@Light_Direction@		; `string'
PUBLIC	??_C@_07DIBHLLEH@Cubemap@			; `string'
PUBLIC	??_C@_0BG@JCDCGBIG@Assets?1Audio?1Step?4wav@	; `string'
PUBLIC	??_C@_0BH@BCHNNGL@Assets?1Models?1Cube?4obj@	; `string'
PUBLIC	??_C@_05BPGNDIAE@Black@				; `string'
PUBLIC	??_C@_0CB@LOJCPEEC@Assets?1Textures?1Shelf_things?4pn@ ; `string'
PUBLIC	??_C@_0CA@PMCPNEKL@Assets?1Models?1Cardboard_Box?4obj@ ; `string'
PUBLIC	??_C@_0BJ@EIODDJGH@Assets?1Audio?1Makarov?4wav@	; `string'
PUBLIC	??_C@_07NEKHPBCG@English@			; `string'
PUBLIC	??_C@_0CO@CJNPHHEE@?5?$DO?$DO?5Unable?5to?5initialise?5freety@ ; `string'
PUBLIC	??_C@_0BK@OKMIPHMK@?5?$DO?$DO?5Unable?5to?5load?5font?$CB?6@ ; `string'
PUBLIC	??_C@_0CA@KFGFACMP@?5?$DO?$DO?5Unable?5to?5load?5font?5glyph?$CB?6@ ; `string'
PUBLIC	??_C@_0BL@MJFJANMD@Shader_Code?1UI_Shader?4frag@ ; `string'
PUBLIC	??_C@_0BL@BLPIKJNM@Shader_Code?1UI_Shader?4vert@ ; `string'
PUBLIC	??_C@_0BP@NGJJMCKM@Shader_Code?1Text_Renderer?4frag@ ; `string'
PUBLIC	??_C@_0BP@EDIGGLD@Shader_Code?1Text_Renderer?4vert@ ; `string'
PUBLIC	??_C@_06JOGGDODM@Colour@			; `string'
PUBLIC	??_C@_0BI@JGCGEACF@Assets?1UI?1UI_Corner?4png@	; `string'
PUBLIC	??_C@_0BG@OIBOJKO@Assets?1UI?1UI_Line?4png@	; `string'
PUBLIC	??_C@_0N@MINNGAA@Assets?1Text?1@		; `string'
PUBLIC	??_C@_0BJ@FGNCFBCK@Assets?1Audio?1UI?1Beep?4wav@ ; `string'
PUBLIC	??_C@_0CB@KHDPDPIN@Shader_Code?1Post_Processing?4fra@ ; `string'
PUBLIC	??_C@_0CB@HFJOJLJC@Shader_Code?1Post_Processing?4ver@ ; `string'
PUBLIC	??_C@_0P@JOLEKOMH@Screen_Texture@		; `string'
PUBLIC	??_C@_0BB@GAIGGEHE@Position_Texture@		; `string'
PUBLIC	??_C@_0P@LOANAHOI@Normal_Texture@		; `string'
PUBLIC	??_C@_0BB@CHJBCGB@Material_Texture@		; `string'
PUBLIC	??_C@_0M@NHGOLKBL@Shader_Time@			; `string'
PUBLIC	??_C@_0BP@KOGCJLGO@Assets?1Audio?1No_Ammo_Click?4wav@ ; `string'
PUBLIC	??_C@_0CA@CLJHKBGF@Assets?1Audio?1Makarov_Reload?4wav@ ; `string'
PUBLIC	??_C@_0CL@HBJIAONG@Assets?1Animations?1Makarov_Pisto@ ; `string'
PUBLIC	??_C@_0CJ@GKANMNMK@Assets?1Animations?1Makarov_Hand_@ ; `string'
PUBLIC	??_C@_0CM@OGKMCJE@Assets?1Animations?1Makarov_Pisto@ ; `string'
PUBLIC	??_C@_0CK@BKHAALBI@Assets?1Animations?1Makarov_Hand_@ ; `string'
PUBLIC	??_C@_0DA@JEBAGBIM@Assets?1Animations?1Makarov_Pisto@ ; `string'
PUBLIC	??_C@_0CO@HBGOLGG@Assets?1Animations?1Makarov_Hand_@ ; `string'
PUBLIC	??_C@_0CN@KOJJDIGL@Assets?1Animations?1Makarov_Pisto@ ; `string'
PUBLIC	??_C@_0CL@EKIDONKJ@Assets?1Animations?1Makarov_Hand_@ ; `string'
PUBLIC	??_C@_05FAJDJAI@Brick@				; `string'
PUBLIC	??_C@_0CC@LFBFFGBC@Assets?1Textures?1Arm_Texture_2?4p@ ; `string'
PUBLIC	??_C@_0BP@JOMJFGJD@Assets?1Models?1Test_Makarov?4obj@ ; `string'
PUBLIC	??_C@_05PGDJFNFN@Floor@				; `string'
PUBLIC	??_C@_0CA@LNFFFMDK@Assets?1Textures?1Gun_Texture?4png@ ; `string'
PUBLIC	??_C@_0CF@GEHMJIAH@Assets?1Models?1Test_Makarov_Shoo@ ; `string'
PUBLIC	??_C@_0BN@MAHKOGIH@Shader_Code?1Vertex_Test?4geom@ ; `string'
PUBLIC	??_C@_0BN@MAKFGFJB@Shader_Code?1Vertex_Test?4frag@ ; `string'
PUBLIC	??_C@_0CH@GLBPEOBE@Shader_Code?1Shell_Bounce_Partic@ ; `string'
PUBLIC	??_C@_05MICJANKE@Metal@				; `string'
PUBLIC	??_C@_0CC@IHICIMLB@Assets?1Textures?1Shell_Texture?4p@ ; `string'
PUBLIC	??_C@_0CA@CEIALHCD@Assets?1Models?1Makarov_Shell?4obj@ ; `string'
PUBLIC	??_C@_0CA@DGOCGJKK@Shader_Code?1Decal_Particle?4frag@ ; `string'
PUBLIC	??_C@_0CA@OEEDMNLF@Shader_Code?1Decal_Particle?4vert@ ; `string'
PUBLIC	??_C@_0CB@HPKOFGJA@Assets?1Textures?1Bullet_Decal?4pn@ ; `string'
PUBLIC	??_C@_0BH@JMOGOFBP@VisionEngineGL?5?$HM?5FPS?3?5@ ; `string'
PUBLIC	??_C@_0N@CHMCNBIM@?5?$DO?$DO?5FPS?3?5?$CFd?6@	; `string'
PUBLIC	??_C@_04OKOFBOPB@Time@				; `string'
PUBLIC	??_C@_0BJ@IIKGFDKH@Assets?1UI?1Titan_Back?4png@	; `string'
PUBLIC	??_C@_0BL@MFDDCFGC@Assets?1UI?1Titan_Centre?4png@ ; `string'
PUBLIC	??_C@_0BK@GOJGMIEG@Assets?1UI?1Titan_Front?4png@ ; `string'
PUBLIC	??_C@_0BK@OMMBOCPB@Assets?1Textures?1White?4png@ ; `string'
PUBLIC	??_C@_0M@MHAEIOIH@Loading?4txt@			; `string'
PUBLIC	??_C@_0BI@GOFJAJJC@Push_Pause_To_Start?4txt@	; `string'
PUBLIC	??_C@_07CHAGMOBK@Deutsch@			; `string'
PUBLIC	??_C@_0BG@OOHMDALJ@Assets?1UI?1English?4png@	; `string'
PUBLIC	??_C@_0BF@JMEKJLAG@Assets?1UI?1German?4png@	; `string'
PUBLIC	??_C@_0BG@MMDGICE@Close_Game_Prompt?4txt@	; `string'
PUBLIC	??_C@_0P@NJLOBGFL@Close_Game?4txt@		; `string'
PUBLIC	??_C@_08KGKDOKKA@Back?4txt@			; `string'
PUBLIC	??_C@_0L@ILPOOBCK@Paused?4txt@			; `string'
PUBLIC	??_C@_0L@JHLPBFFO@Resume?4txt@			; `string'
PUBLIC	??_C@_0N@DIHIFGIP@Settings?4txt@		; `string'
PUBLIC	??_C@_09OPAJEEMB@Audio?4txt@			; `string'
PUBLIC	??_C@_0BC@BEHDHDAA@Master_Volume?4txt@		; `string'
PUBLIC	??_C@_0BJ@GFENJCBA@Assets?1UI?1Audio_Down?4png@	; `string'
PUBLIC	??_C@_0BH@EANAMNFG@Assets?1UI?1Audio_Up?4png@	; `string'
PUBLIC	??_C@_0BB@MDOOCAFM@Music_Volume?4txt@		; `string'
PUBLIC	??_C@_0N@MKCJAMLD@Controls?4txt@		; `string'
PUBLIC	??_C@_0CF@NOHDOMIB@Assets?1Animations?1Murderer_Idle@ ; `string'
PUBLIC	??_C@_0CD@PCJAGEED@Assets?1Audio?1Music?1Ambient_Hit?4@ ; `string'
PUBLIC	??_C@_0CG@FCCOFPLF@?5?$DO?$DO?5Light?5occluder?5not?5set?5prop@ ; `string'
PUBLIC	??_C@_0BA@MEDKHGOF@Partition_Nodes@		; `string'
PUBLIC	??_C@_0BC@NBKNHHGA@Leaf_Node_Indices@		; `string'
PUBLIC	??_C@_0DA@FJEKHNLL@Assets?1Animations?1Intro_Level?1P@ ; `string'
PUBLIC	??_C@_0CG@OBBGOEJM@Assets?1Audio?1Phone?1Telephone_Ri@ ; `string'
PUBLIC	??_C@_0BB@DPIFBAEL@Pickup_Phone?4txt@		; `string'
PUBLIC	??_C@_0CE@PFJAJBOO@Assets?1Audio?1Phone?1Pickup_Phone@ ; `string'
PUBLIC	??_C@_0BO@NNLNJDIA@Assets?1Audio?1Phone?1Static?4wav@ ; `string'
PUBLIC	??_C@_0CG@FJGIDGBO@Assets?1Audio?1Phone?1I_CAN_SEE_YO@ ; `string'
PUBLIC	??_C@_0CE@KJOCMEMA@Assets?1Audio?1Phone?1Endcall_Beep@ ; `string'
PUBLIC	??_C@_0CF@MLNAAKAE@Assets?1Audio?1Phone?1Putdown_Phon@ ; `string'
PUBLIC	??_C@_0N@MFLHBBEH@_Damage?4anim@		; `string'
PUBLIC	??_C@_0N@OOJIMAPO@_Remove?4anim@		; `string'
PUBLIC	??_C@_0CA@DFBAMLBN@Assets?1Audio?1Door?1Door_Open?4wav@ ; `string'
PUBLIC	??_C@_0O@EDGNJBDG@Open_Door?4txt@		; `string'
PUBLIC	??_C@_0CB@HBOPAJHI@Assets?1Textures?1Brick_Normal?4pn@ ; `string'
PUBLIC	??_C@_0BK@IMNLKDIC@Assets?1Textures?1Brick?4png@ ; `string'
PUBLIC	??_C@_0CH@JCJMLFOG@Assets?1Textures?1Floor_Tiles_Nor@ ; `string'
PUBLIC	??_C@_0CH@KMIBEEDC@Assets?1Textures?1Brick_Reflectiv@ ; `string'
PUBLIC	??_C@_0CE@IBLKMEMA@Assets?1Textures?1Floor_Tile_Spec@ ; `string'
PUBLIC	??_C@_08FKBAGMF@NPP_Wall@			; `string'
PUBLIC	??_C@_0CI@ODJCPNAE@Assets?1Textures?1Floor_2_Tile_No@ ; `string'
PUBLIC	??_C@_0CK@EAKMGGCG@Assets?1Textures?1Floor_2_Tile_Sp@ ; `string'
PUBLIC	??_C@_0L@NFHOLOGD@NPP_Wall_2@			; `string'
PUBLIC	??_C@_0CL@IFFIHPJP@Assets?1Textures?1Reddened_Wall_N@ ; `string'
PUBLIC	??_C@_0CH@MCDCCMCH@Assets?1Textures?1Reddened_Wall_S@ ; `string'
PUBLIC	??_C@_04DKALKOBM@Rust@				; `string'
PUBLIC	??_C@_0CA@BIPELFFA@Assets?1Textures?1Rust_Normal?4png@ ; `string'
PUBLIC	??_C@_0CG@FCFHAGEN@Assets?1Textures?1Rust_Reflectivi@ ; `string'
PUBLIC	??_C@_0CB@MALFCJLP@Assets?1Textures?1Rust_Texture?4pn@ ; `string'
PUBLIC	??_C@_07CIPNCOPC@Rubbish@			; `string'
PUBLIC	??_C@_0CD@HLOMOIIB@Assets?1Textures?1Rubbish_Normal?4@ ; `string'
PUBLIC	??_C@_0CA@BNKOEDIH@Assets?1Textures?1Rubbish_Bag?4jpg@ ; `string'
PUBLIC	??_C@_06KGKMPCGO@Rubble@			; `string'
PUBLIC	??_C@_0CC@PMLDNJLF@Assets?1Textures?1Rubble_Normal?4p@ ; `string'
PUBLIC	??_C@_04KJGJIGFH@Door@				; `string'
PUBLIC	??_C@_0CA@GCINHCOP@Assets?1Textures?1Door_Normal?4png@ ; `string'
PUBLIC	??_C@_0CB@JLBBPOGF@Assets?1Textures?1Door_Texture?4pn@ ; `string'
PUBLIC	??_C@_07LJKDOBMH@Ceiling@			; `string'
PUBLIC	??_C@_0CD@PCNPHEHI@Assets?1Textures?1Ceiling_Normal?4@ ; `string'
PUBLIC	??_C@_0CF@FHECHKBF@Assets?1Textures?1Ceiling_Specula@ ; `string'
PUBLIC	??_C@_04LIPBJNLA@Wall@				; `string'
PUBLIC	??_C@_0CA@HCJBGPEH@Assets?1Textures?1Wall_Normal?4png@ ; `string'
PUBLIC	??_C@_0CC@IFPJBJIL@Assets?1Textures?1Wall_Specular?4p@ ; `string'
PUBLIC	??_C@_0CJ@CGCNCJKM@Assets?1Textures?1Metal_Normal_Te@ ; `string'
PUBLIC	??_C@_0CD@OMKKCEAA@Assets?1Textures?1Metal_Specular?4@ ; `string'
PUBLIC	??_C@_04ILGMGPGA@Vent@				; `string'
PUBLIC	??_C@_0CA@FJOPCKKP@Assets?1Textures?1Vent_Normal?4png@ ; `string'
PUBLIC	??_C@_0BO@CGIIHJDO@Assets?1Textures?1Vent_Duct?4png@ ; `string'
PUBLIC	??_C@_0CP@JJIGGEEE@Assets?1Animations?1Intro_Level?1D@ ; `string'
PUBLIC	??_C@_0CP@CCDCICL@Assets?1Animations?1Intro_Level?1D@ ; `string'
PUBLIC	??_C@_0CP@HFLNPKNL@Assets?1Animations?1Intro_Level?1D@ ; `string'
PUBLIC	??_C@_0CP@OOBILGLE@Assets?1Animations?1Intro_Level?1D@ ; `string'
PUBLIC	??_C@_0CP@BCFBDFE@Assets?1Animations?1Intro_Level?1D@ ; `string'
PUBLIC	??_C@_0CP@CAAELEF@Assets?1Animations?1Intro_Level?1V@ ; `string'
PUBLIC	??_C@_0CP@CJCPJKPM@Assets?1Animations?1Intro_Level?1V@ ; `string'
PUBLIC	??_C@_0CA@BNLOAHMA@Assets?1Textures?1Stromkasten?4png@ ; `string'
PUBLIC	??_C@_0CD@KJAMMCGE@Assets?1Textures?1Toilet_Texture?4@ ; `string'
PUBLIC	??_C@_0CG@NBLOPJJD@Assets?1Audio?1Music?1Ambience_Tra@ ; `string'
PUBLIC	??_C@_0CG@NILOEBEH@Assets?1Models?1Intro_Level?1Toile@ ; `string'
PUBLIC	??_C@_0CF@LMLOKGEB@Assets?1Models?1Intro_Level?1Table@ ; `string'
PUBLIC	??_C@_0CG@FEBMCMBJ@Assets?1Models?1Intro_Level?1Heate@ ; `string'
PUBLIC	??_C@_0CP@MMDGCGIB@Assets?1Models?1Intro_Level?1Test_@ ; `string'
PUBLIC	??_C@_0CG@DAHILEAE@Assets?1Models?1Intro_Tunnel?1Tunn@ ; `string'
PUBLIC	??_C@_0CF@OEEHMKO@Assets?1Models?1Intro_Tunnel?1Fram@ ; `string'
PUBLIC	??_C@_0CF@FMBAMPPJ@Assets?1Models?1Intro_Tunnel?1Pipe@ ; `string'
PUBLIC	??_C@_0CH@LCPGKMDF@Assets?1Hitboxes?1Intro_Tunnel?1Fl@ ; `string'
PUBLIC	??_C@_0BN@IFKJENCO@Assets?1Textures?1Concrete?4jpg@ ; `string'
PUBLIC	??_C@_0CM@KBBILGL@Assets?1Models?1Intro_Tunnel?1Tunn@ ; `string'
PUBLIC	??_C@_0CJ@KCPEPHN@Assets?1Hitboxes?1Intro_Tunnel?1Cu@ ; `string'
PUBLIC	??_C@_0CC@PGMKLMNB@Assets?1Textures?1Reddened_Wall?4j@ ; `string'
PUBLIC	??_C@_0CO@ILBNDCCL@Assets?1Models?1Intro_Tunnel?1Tunn@ ; `string'
PUBLIC	??_C@_0CJ@OHEAIFOH@Assets?1Models?1Intro_Tunnel?1Exit@ ; `string'
PUBLIC	??_C@_0BO@NAFGIEJL@Assets?1Models?1Alarm_Light?4obj@ ; `string'
PUBLIC	??_C@_0CC@FMPNIHJA@Assets?1Light_Occluders?1Tunnel?4o@ ; `string'
PUBLIC	??_C@_0CO@MBNPADBP@Assets?1Light_Occluders?1Tunnel_C@ ; `string'
PUBLIC	??_C@_0CM@IBGFCKIF@Assets?1Audio?1Music?1Falling_Shep@ ; `string'
PUBLIC	??_C@_0CN@HLIPJGFE@Assets?1Models?1Intro_Level?1Bathr@ ; `string'
PUBLIC	??_C@_0CE@HNFKLGDJ@Assets?1Models?1Intro_Level?1Walls@ ; `string'
PUBLIC	??_C@_0BK@IJDMGJOB@Assets?1Textures?1Walls?4png@ ; `string'
PUBLIC	??_C@_0CG@EONHILPC@Assets?1Models?1Intro_Level?1Ceili@ ; `string'
PUBLIC	??_C@_0CE@PFOKKKIE@Assets?1Textures?1Ceiling_Texture@ ; `string'
PUBLIC	??_C@_0CM@CJKDINKD@Assets?1Models?1Intro_Level?1Ceili@ ; `string'
PUBLIC	??_C@_0CG@MCNCOAAP@Assets?1Textures?1Fire_Extinguish@ ; `string'
PUBLIC	??_C@_0DB@HANJJDDD@Assets?1Models?1Intro_Level?1Fire_@ ; `string'
PUBLIC	??_C@_0BJ@OMEJKGEC@Assets?1Textures?1Lamp?4png@	; `string'
PUBLIC	??_C@_0CN@CLGDFOE@Assets?1Hitboxes?1Intro_Level?1Tab@ ; `string'
PUBLIC	??_C@_0CH@PIMINOAB@Assets?1Hitboxes?1Intro_Level?1Tab@ ; `string'
PUBLIC	??_C@_0BL@GCKCNNEH@Assets?1Textures?1Table1?4png@ ; `string'
PUBLIC	??_C@_0CN@NJJECEKF@Assets?1Hitboxes?1Intro_Level?1She@ ; `string'
PUBLIC	??_C@_0CL@IJNIEBOP@Assets?1Hitboxes?1Intro_Level?1She@ ; `string'
PUBLIC	??_C@_0CN@NKDKHMPM@Assets?1Hitboxes?1Intro_Level?1She@ ; `string'
PUBLIC	??_C@_0CG@KMLMPMHH@Assets?1Models?1Intro_Level?1Shelv@ ; `string'
PUBLIC	??_C@_0DC@BMKGMPDG@Assets?1Hitboxes?1Intro_Level?1Bat@ ; `string'
PUBLIC	??_C@_0DB@BEDHECMP@Assets?1Hitboxes?1Intro_Level?1Ele@ ; `string'
PUBLIC	??_C@_0CP@BLINONNP@Assets?1Models?1Intro_Level?1Elect@ ; `string'
PUBLIC	??_C@_0BM@KNMILAI@Assets?1Textures?1Telefon?4png@ ; `string'
PUBLIC	??_C@_0CG@JFBNCCNO@Assets?1Models?1Intro_Level?1Phone@ ; `string'
PUBLIC	??_C@_0CL@ONAFKGLK@Assets?1Textures?1Fire_Extinguish@ ; `string'
PUBLIC	??_C@_0DG@OANECOKM@Assets?1Models?1Intro_Level?1Fire_@ ; `string'
PUBLIC	??_C@_0BK@PBPKGGPM@Assets?1Textures?1Signs?4png@ ; `string'
PUBLIC	??_C@_0CE@FJMLJCE@Assets?1Models?1Intro_Level?1Signs@ ; `string'
PUBLIC	??_C@_0CO@BDBOGCH@Assets?1Hitboxes?1Intro_Level?1Loc@ ; `string'
PUBLIC	??_C@_0CO@MKGNDFIC@Assets?1Hitboxes?1Intro_Level?1Loc@ ; `string'
PUBLIC	??_C@_0CO@EMPJEHCM@Assets?1Hitboxes?1Intro_Level?1Loc@ ; `string'
PUBLIC	??_C@_0CJ@FJOGOMHA@Assets?1Hitboxes?1Intro_Level?1Loc@ ; `string'
PUBLIC	??_C@_0CJ@JCLKDPNF@Assets?1Hitboxes?1Intro_Level?1Loc@ ; `string'
PUBLIC	??_C@_0CJ@BECOENHL@Assets?1Hitboxes?1Intro_Level?1Loc@ ; `string'
PUBLIC	??_C@_0CG@MCDJBCHP@Assets?1Models?1Intro_Level?1Locke@ ; `string'
PUBLIC	??_C@_0CM@ELKDEOGJ@Assets?1Models?1Intro_Level?1Shelf@ ; `string'
PUBLIC	??_C@_0CE@NJGAFJNP@Assets?1Models?1Intro_Level?1Vents@ ; `string'
PUBLIC	??_C@_0CJ@JLNCAIAC@Assets?1Hitboxes?1Intro_Level?1Air@ ; `string'
PUBLIC	??_C@_0CH@DFHFPKHP@Assets?1Models?1Intro_Level?1Air_D@ ; `string'
PUBLIC	??_C@_0CJ@HBNEBOJA@Assets?1Models?1Intro_Level?1Vent_@ ; `string'
PUBLIC	??_C@_0CD@ENCKGHFM@Assets?1Animations?1Intro_Level?1V@ ; `string'
PUBLIC	??_C@_0DJ@LGNLIMBI@Assets?1Hitboxes?1Intro_Level?1Int@ ; `string'
PUBLIC	??_C@_0CA@JKHOALOM@Assets?1Textures?1Floor_Tiles?4png@ ; `string'
PUBLIC	??_C@_0DF@CILPNPMK@Assets?1Models?1Intro_Level?1Test_@ ; `string'
PUBLIC	??_C@_0DA@IHEACPAO@Assets?1Hitboxes?1Intro_Level?1Sta@ ; `string'
PUBLIC	??_C@_0DA@FKNGPGIL@Assets?1Hitboxes?1Intro_Level?1Sta@ ; `string'
PUBLIC	??_C@_0CO@PCLPJBOD@Assets?1Hitboxes?1Intro_Level?1Doo@ ; `string'
PUBLIC	??_C@_0CH@FFFGGMOJ@Assets?1Hitboxes?1Intro_Level?1Doo@ ; `string'
PUBLIC	??_C@_0CH@JOAKLPEM@Assets?1Hitboxes?1Intro_Level?1Doo@ ; `string'
PUBLIC	??_C@_0CH@BIJOMNOC@Assets?1Hitboxes?1Intro_Level?1Doo@ ; `string'
PUBLIC	??_C@_0CH@IDAPIPPE@Assets?1Hitboxes?1Intro_Level?1Doo@ ; `string'
PUBLIC	??_C@_0CH@EIFDFMFB@Assets?1Hitboxes?1Intro_Level?1Doo@ ; `string'
PUBLIC	??_C@_0CH@NDMCBOEH@Assets?1Hitboxes?1Intro_Level?1Doo@ ; `string'
PUBLIC	??_C@_0BO@MGLFMNJA@Intro_Level?1Rubble_Stairs?4txt@ ; `string'
PUBLIC	??_C@_0BP@DOJNFPIF@Intro_Level?1Rubble_Hallway?4txt@ ; `string'
PUBLIC	??_C@_0DB@GOCMJLF@Assets?1Models?1Intro_Level?1Intro@ ; `string'
PUBLIC	??_C@_0DA@MKPENOOA@Assets?1Hitboxes?1Intro_Level?1Rub@ ; `string'
PUBLIC	??_C@_0DA@BHGCAHGF@Assets?1Hitboxes?1Intro_Level?1Rub@ ; `string'
PUBLIC	??_C@_0DF@FNGKCLI@Assets?1Hitboxes?1Intro_Level?1Rub@ ; `string'
PUBLIC	??_C@_0BL@JKEDBCBH@Assets?1Textures?1Rubble?4jpg@ ; `string'
PUBLIC	??_C@_0DB@KOCHFLMN@Assets?1Models?1Intro_Level?1Intro@ ; `string'
PUBLIC	??_C@_0BJ@DCLOCAIE@Assets?1Hitboxes?1Cube?4obj@	; `string'
PUBLIC	??_C@_0DA@NAGEJJDL@Assets?1Models?1Intro_Level?1Intro@ ; `string'
PUBLIC	??_C@_0DB@FONFDFMB@Assets?1Hitboxes?1Intro_Level?1Rub@ ; `string'
PUBLIC	??_C@_0DC@HGGMKMAG@Assets?1Models?1Intro_Level?1Intro@ ; `string'
PUBLIC	??_C@_0CF@BBCABEKJ@Assets?1Models?1Intro_Level?1Door_@ ; `string'
PUBLIC	??_C@_0CF@NKHMMHAM@Assets?1Models?1Intro_Level?1Door_@ ; `string'
PUBLIC	??_C@_0CF@FMOILFKC@Assets?1Models?1Intro_Level?1Door_@ ; `string'
PUBLIC	??_C@_0CF@JHLEGGAH@Assets?1Models?1Intro_Level?1Door_@ ; `string'
PUBLIC	??_C@_0CF@IKLBFGLP@Assets?1Models?1Intro_Level?1Door_@ ; `string'
PUBLIC	??_C@_0CF@EBONIFBK@Assets?1Models?1Intro_Level?1Door_@ ; `string'
PUBLIC	??_C@_0CP@HGLLMBKE@Assets?1Animations?1Intro_Level?1D@ ; `string'
PUBLIC	??_C@_0CF@MHHJPHLE@Assets?1Models?1Intro_Level?1Door_@ ; `string'
PUBLIC	??_C@_0CP@ONBOINML@Assets?1Animations?1Intro_Level?1D@ ; `string'
PUBLIC	??_C@_0CF@MCFCEBB@Assets?1Models?1Intro_Level?1Door_@ ; `string'
PUBLIC	??_C@_0CB@JPBPLECI@Assets?1Textures?1Rutschgefahr?4pn@ ; `string'
PUBLIC	??_C@_0CL@JJJOKDNJ@Assets?1Models?1Intro_Level?1Rutsc@ ; `string'
PUBLIC	??_C@_0BJ@LJLDFFNE@Assets?1Models?1Bubble?4obj@	; `string'
PUBLIC	??_C@_0BO@HEEPNPCJ@Assets?1Models?1Test_Person?4obj@ ; `string'
PUBLIC	??_C@_0CF@IFIBFPNG@Assets?1Textures?1Person_Texture_@ ; `string'
PUBLIC	??_C@_0BL@OPPAEBBM@Assets?1Hitboxes?1Barrel?4obj@ ; `string'
PUBLIC	??_C@_0BP@OPPNPMCK@Assets?1Textures?1Barrel_UVs?4png@ ; `string'
PUBLIC	??_C@_0BJ@PFBKBDAH@Assets?1Models?1Barrel?4obj@	; `string'
PUBLIC	??_C@_0CH@EGKABGAM@Assets?1Light_Occluders?1Intro_Le@ ; `string'
PUBLIC	??_C@_0DD@MFJHCHAB@Assets?1Light_Occluders?1Intro_Le@ ; `string'
PUBLIC	??_C@_0BL@ELDIMEF@Assets?1UI?1Title_Screen?4png@ ; `string'
PUBLIC	??_C@_0CA@DEKJCLII@Assets?1UI?1Radiophobia_Title?4png@ ; `string'
PUBLIC	??_C@_0P@MGAMPAJK@Start_Game?4txt@		; `string'
PUBLIC	??_C@_08GIGNPDCB@Test?4txt@			; `string'
PUBLIC	??_C@_0CH@LBDDBFCF@Assets?1Audio?1Impact?1Metal_Impac@ ; `string'
PUBLIC	??_C@_0CH@HKGPMGIA@Assets?1Audio?1Impact?1Metal_Impac@ ; `string'
PUBLIC	??_C@_0CH@PMPLLECO@Assets?1Audio?1Impact?1Metal_Impac@ ; `string'
PUBLIC	??_C@_0BP@GKKHBEL@Assets?1Audio?1Impact?1Wood_0?4wav@ ; `string'
PUBLIC	??_C@_0BP@MNPGKCOO@Assets?1Audio?1Impact?1Wood_1?4wav@ ; `string'
PUBLIC	??_C@_0BP@GFMBOCLK@Assets?1Audio?1IMpact?1Wood_2?4wav@ ; `string'
PUBLIC	??_C@_0CB@IIPPPFGO@Assets?1Audio?1Impact?1Barrel_0?4wa@ ; `string'
PUBLIC	??_C@_0CB@EDKDCGML@Assets?1Audio?1Impact?1Barrel_1?4wa@ ; `string'
PUBLIC	??_C@_0CB@MFDHFEGF@Assets?1Audio?1Impact?1Barrel_2?4wa@ ; `string'
PUBLIC	??_C@_0CH@GPDFKMDH@Assets?1Audio?1Impact?1Bullet_Woun@ ; `string'
PUBLIC	??_C@_0CH@OJKBNOJJ@Assets?1Audio?1Impact?1Bullet_Woun@ ; `string'
PUBLIC	??_C@_0CH@CCPNANDM@Assets?1Audio?1Impact?1Bullet_Woun@ ; `string'
PUBLIC	??_C@_0CI@PGKNFBEN@Assets?1Audio?1Impact?1Concrete_Im@ ; `string'
PUBLIC	??_C@_0CC@IJHPPHNP@Assets?1Hitboxes?1Player_Hitbox?4o@ ; `string'
PUBLIC	??_C@_0BI@LNFHCIEJ@Assets?1Font?1georgia?4ttf@	; `string'
PUBLIC	??_C@_0BI@FCKKPEKH@Assets?1Font?1COPRGTL?4ttf@	; `string'
PUBLIC	??_C@_0BG@OODIIEIJ@Assets?1Font?1lucon?4ttf@	; `string'
PUBLIC	??_C@_0BK@FEEDPOFB@Shader_Code?1Particle?4frag@	; `string'
PUBLIC	??_C@_0CA@BPMOHFAL@Shader_Code?1Smoke_Particle?4vert@ ; `string'
PUBLIC	??_C@_0CA@NNDFHDNE@Assets?1Textures?1Smoke_Noise?4png@ ; `string'
PUBLIC	??_C@_0BI@ECIKBBBO@Assets?1Models?1Smoke?4obj@	; `string'
PUBLIC	??_C@_0CE@GNFNGBJN@Shader_Code?1Lightless_Particle?4@ ; `string'
PUBLIC	??_C@_0CK@PAPAAFBN@Shader_Code?1Billboard_Smoke_Par@ ; `string'
PUBLIC	??_C@_0BK@PIEEOCGE@Assets?1Textures?1Smoke?4png@ ; `string'
PUBLIC	??_C@_0CJ@HELGKLAN@Shader_Code?1Billboard_Fire_Part@ ; `string'
PUBLIC	??_C@_0BL@LOOHDBFB@Assets?1Textures?1Fire_2?4png@ ; `string'
PUBLIC	??_C@_0DB@BBCHBPI@Shader_Code?1Billboard_Muzzle_Fl@ ; `string'
PUBLIC	??_C@_0CL@CMNJPBMJ@Shader_Code?1Billboard_Galaxy_Pa@ ; `string'
PUBLIC	??_C@_0CC@NDMDOPDB@Assets?1Textures?1Galaxy_Test_2?4p@ ; `string'
PUBLIC	??_C@_0CL@CEMCMBLK@Shader_Code?1Volumetric_Cone_Par@ ; `string'
PUBLIC	??_C@_0CK@DIMHDONB@Shader_Code?1Volumetric_Cone_Par@ ; `string'
PUBLIC	??_C@_0CC@JCKEEOPC@Assets?1Models?1Normalised_Cone?4o@ ; `string'
PUBLIC	??_C@_0CB@HCOMIBLO@Shader_Code?1Bubble_Particle?4fra@ ; `string'
PUBLIC	??_C@_0CB@KAENCFKB@Shader_Code?1Bubble_Particle?4ver@ ; `string'
PUBLIC	??_C@_0CI@JEHCHLI@Shader_Code?1Colour_Bubble_Parti@ ; `string'
PUBLIC	??_C@_0CA@HEOPCHLM@Shader_Code?1Spark_Particle?4vert@ ; `string'
PUBLIC	??_C@_0CL@CNELCBCO@Shader_Code?1Loading_Screen_Back@ ; `string'
PUBLIC	??_C@_0CH@PBOEPIGD@Shader_Code?1Loading_Screen_Spir@ ; `string'
PUBLIC	??_C@_0CH@CDEFFMHM@Shader_Code?1Loading_Screen_Spir@ ; `string'
PUBLIC	??_C@_0BN@BCAEMBIO@Shader_Code?1Vertex_Test?4vert@ ; `string'
PUBLIC	??_C@_0CF@IJKGENLD@Assets?1Cubemap?1Test?1Cubemap_Lef@ ; `string'
PUBLIC	??_C@_0CG@FOPLEMGI@Assets?1Cubemap?1Test?1Cubemap_Rig@ ; `string'
PUBLIC	??_C@_0CE@OGBKKJPM@Assets?1Cubemap?1Test?1Cubemap_Top@ ; `string'
PUBLIC	??_C@_0CH@KABLNLGF@Assets?1Cubemap?1Test?1Cubemap_Bot@ ; `string'
PUBLIC	??_C@_0CF@GFJGAHDC@Assets?1Cubemap?1Test?1Cubemap_Bac@ ; `string'
PUBLIC	??_C@_0CG@OOBOJPNJ@Assets?1Cubemap?1Test?1Cubemap_Fro@ ; `string'
PUBLIC	??_C@_0BK@DLDMCBNE@Assets?1Textures?1Black?4png@ ; `string'
PUBLIC	??_C@_0M@LCOLHOCF@?5?$DO?$DO?5Hello?$CB?6@	; `string'
PUBLIC	??_C@_0BG@KJJFBNMH@Inv_Window_Dimensions@	; `string'
PUBLIC	??_C@_0BJ@DHFDPMIM@invalid?5vector?5subscript@	; `string'
PUBLIC	??_C@_0BA@FOIKENOD@vector?5too?5long@		; `string'
PUBLIC	??_C@_0BI@CFPLBAOH@invalid?5string?5position@	; `string'
PUBLIC	??_C@_0O@LGFJHKKO@Particle_Data@		; `string'
PUBLIC	??_C@_0BL@GOIGLPKN@unordered_map?1set?5too?5long@ ; `string'
PUBLIC	??_C@_0BK@OGNNAFAB@invalid?5hash?5bucket?5count@ ; `string'
PUBLIC	??_R3?$basic_iostream@DU?$char_traits@D@std@@@std@@8 ; std::basic_iostream<char,std::char_traits<char> >::`RTTI Class Hierarchy Descriptor'
PUBLIC	??_R3?$basic_istream@DU?$char_traits@D@std@@@std@@8 ; std::basic_istream<char,std::char_traits<char> >::`RTTI Class Hierarchy Descriptor'
PUBLIC	??_R0?AV?$basic_stringstream@DU?$char_traits@D@std@@V?$allocator@D@2@@std@@@8 ; std::basic_stringstream<char,std::char_traits<char>,std::allocator<char> > `RTTI Type Descriptor'
PUBLIC	??_R4Controller@@6B@				; Controller::`RTTI Complete Object Locator'
PUBLIC	??_R2Hitbox@@8					; Hitbox::`RTTI Base Class Array'
PUBLIC	??_R1A@?0A@EA@UI_Loading_Screen_Icon_Controller@@8 ; UI_Loading_Screen_Icon_Controller::`RTTI Base Class Descriptor at (0,-1,0,64)'
PUBLIC	??_R4UI_Element@@6B@				; UI_Element::`RTTI Complete Object Locator'
PUBLIC	?Camera_Up_Direction@@3U?$vec@$02M$0A@@glm@@A	; Camera_Up_Direction
PUBLIC	??_R2Mesh_Hitbox@@8				; Mesh_Hitbox::`RTTI Base Class Array'
PUBLIC	??_R3Flicker_Light_Controller@@8		; Flicker_Light_Controller::`RTTI Class Hierarchy Descriptor'
PUBLIC	??_R0?AV?$basic_filebuf@DU?$char_traits@D@std@@@std@@@8 ; std::basic_filebuf<char,std::char_traits<char> > `RTTI Type Descriptor'
PUBLIC	??_R2MaterialReader@tinyobj@@8			; tinyobj::MaterialReader::`RTTI Base Class Array'
PUBLIC	??_R3Thought_Popups_Controller@@8		; Thought_Popups_Controller::`RTTI Class Hierarchy Descriptor'
PUBLIC	??_R4exception@std@@6B@				; std::exception::`RTTI Complete Object Locator'
PUBLIC	??_R1A@?0A@EA@?$basic_istringstream@DU?$char_traits@D@std@@V?$allocator@D@2@@std@@8 ; std::basic_istringstream<char,std::char_traits<char>,std::allocator<char> >::`RTTI Base Class Descriptor at (0,-1,0,64)'
PUBLIC	??_R0?AVUI_Filling_Bar_Controller@@@8		; UI_Filling_Bar_Controller `RTTI Type Descriptor'
PUBLIC	??_R0?AVUI_Element@@@8				; UI_Element `RTTI Type Descriptor'
PUBLIC	??_R4Thought_Popups_Controller@@6B@		; Thought_Popups_Controller::`RTTI Complete Object Locator'
PUBLIC	??_R1A@?0A@EA@Base_Vertex_Buffer@@8		; Base_Vertex_Buffer::`RTTI Base Class Descriptor at (0,-1,0,64)'
PUBLIC	??_R2?$basic_istringstream@DU?$char_traits@D@std@@V?$allocator@D@2@@std@@8 ; std::basic_istringstream<char,std::char_traits<char>,std::allocator<char> >::`RTTI Base Class Array'
PUBLIC	??_R2bad_array_new_length@std@@8		; std::bad_array_new_length::`RTTI Base Class Array'
PUBLIC	??_R0?AVPhone_Controller@@@8			; Phone_Controller `RTTI Type Descriptor'
PUBLIC	?Use@Controls@@3EA				; Controls::Use
PUBLIC	?Forwards@Controls@@3EA				; Controls::Forwards
PUBLIC	?Auxilliary@Controls@@3EA			; Controls::Auxilliary
PUBLIC	?Down@Controls@@3EA				; Controls::Down
PUBLIC	?Item_1@Controls@@3EA				; Controls::Item_1
PUBLIC	?Up@Controls@@3EA				; Controls::Up
PUBLIC	?Right@Controls@@3EA				; Controls::Right
PUBLIC	?Backwards@Controls@@3EA			; Controls::Backwards
PUBLIC	?Left@Controls@@3EA				; Controls::Left
PUBLIC	?Pause@Controls@@3EA				; Controls::Pause
PUBLIC	??_7AABB_Hitbox@@6B@				; AABB_Hitbox::`vftable'
PUBLIC	??_R0?AVHitbox@@@8				; Hitbox `RTTI Type Descriptor'
PUBLIC	??_R0?AVbad_alloc@std@@@8			; std::bad_alloc `RTTI Type Descriptor'
PUBLIC	??_R3Button_UI_Element@@8			; Button_UI_Element::`RTTI Class Hierarchy Descriptor'
PUBLIC	??_R2UI_Fade_Effect_Controller@@8		; UI_Fade_Effect_Controller::`RTTI Base Class Array'
PUBLIC	??_R1A@?0A@EA@?$basic_istream@DU?$char_traits@D@std@@@std@@8 ; std::basic_istream<char,std::char_traits<char> >::`RTTI Base Class Descriptor at (0,-1,0,64)'
PUBLIC	??_R3UI_Controller@@8				; UI_Controller::`RTTI Class Hierarchy Descriptor'
PUBLIC	?Text_Shader@@3VShader@@A			; Text_Shader
PUBLIC	??_R1A@?0A@EA@UI_Fade_Out_Effect_Controller@@8	; UI_Fade_Out_Effect_Controller::`RTTI Base Class Descriptor at (0,-1,0,64)'
PUBLIC	??_R1A@?0A@EA@UI_Fade_In_Effect_Controller@@8	; UI_Fade_In_Effect_Controller::`RTTI Base Class Descriptor at (0,-1,0,64)'
PUBLIC	??_7Mesh_Hitbox@@6B@				; Mesh_Hitbox::`vftable'
PUBLIC	??_R0?AV?$basic_ifstream@DU?$char_traits@D@std@@@std@@@8 ; std::basic_ifstream<char,std::char_traits<char> > `RTTI Type Descriptor'
PUBLIC	??_7Pistol@@6B@					; Pistol::`vftable'
PUBLIC	??_R4Button_UI_Element@@6B@			; Button_UI_Element::`RTTI Complete Object Locator'
PUBLIC	??_7Base_Vertex_Buffer@@6B@			; Base_Vertex_Buffer::`vftable'
PUBLIC	??_R1A@?0A@EA@Physics_Object@Physics@@8		; Physics::Physics_Object::`RTTI Base Class Descriptor at (0,-1,0,64)'
PUBLIC	??_R2Text_UI_Element@@8				; Text_UI_Element::`RTTI Base Class Array'
PUBLIC	??_R2MaterialStreamReader@tinyobj@@8		; tinyobj::MaterialStreamReader::`RTTI Base Class Array'
PUBLIC	?Player_Viewmodel_Walk_Magnitude@@3MA		; Player_Viewmodel_Walk_Magnitude
PUBLIC	??_R0?AVButton_Text_UI_Element@@@8		; Button_Text_UI_Element `RTTI Type Descriptor'
PUBLIC	??_R0?AVMesh_Hitbox@@@8				; Mesh_Hitbox `RTTI Type Descriptor'
PUBLIC	??_R3Alarm_Light_Controller@@8			; Alarm_Light_Controller::`RTTI Class Hierarchy Descriptor'
PUBLIC	??_R1A@?0A@EA@bad_cast@std@@8			; std::bad_cast::`RTTI Base Class Descriptor at (0,-1,0,64)'
PUBLIC	??_7MaterialReader@tinyobj@@6B@			; tinyobj::MaterialReader::`vftable'
PUBLIC	??_R3?$basic_ifstream@DU?$char_traits@D@std@@@std@@8 ; std::basic_ifstream<char,std::char_traits<char> >::`RTTI Class Hierarchy Descriptor'
PUBLIC	??_7Billboard_Vertex_Buffer@@6B@		; Billboard_Vertex_Buffer::`vftable'
PUBLIC	??_7UI_Fade_Out_Effect_Controller@@6B@		; UI_Fade_Out_Effect_Controller::`vftable'
PUBLIC	??_R1A@?0A@EA@MaterialReader@tinyobj@@8		; tinyobj::MaterialReader::`RTTI Base Class Descriptor at (0,-1,0,64)'
PUBLIC	?Loading_Screen_Spiral_Shader@@3VShader@@A	; Loading_Screen_Spiral_Shader
PUBLIC	??_R4Item@@6B@					; Item::`RTTI Complete Object Locator'
PUBLIC	??_R3Item@@8					; Item::`RTTI Class Hierarchy Descriptor'
PUBLIC	??_R0?AV?$basic_stringbuf@DU?$char_traits@D@std@@V?$allocator@D@2@@std@@@8 ; std::basic_stringbuf<char,std::char_traits<char>,std::allocator<char> > `RTTI Type Descriptor'
PUBLIC	??_R2bad_alloc@std@@8				; std::bad_alloc::`RTTI Base Class Array'
PUBLIC	?UI_Shader@@3VShader@@A				; UI_Shader
PUBLIC	??_R3MaterialFileReader@tinyobj@@8		; tinyobj::MaterialFileReader::`RTTI Class Hierarchy Descriptor'
PUBLIC	??_R0?AVios_base@std@@@8			; std::ios_base `RTTI Type Descriptor'
PUBLIC	??_R3Text_UI_Element@@8				; Text_UI_Element::`RTTI Class Hierarchy Descriptor'
PUBLIC	??_R2?$basic_stringbuf@DU?$char_traits@D@std@@V?$allocator@D@2@@std@@8 ; std::basic_stringbuf<char,std::char_traits<char>,std::allocator<char> >::`RTTI Base Class Array'
PUBLIC	??_R0?AVUI_Loading_Screen_Icon_Controller@@@8	; UI_Loading_Screen_Icon_Controller `RTTI Type Descriptor'
PUBLIC	??_R4Damageable_Vent_Controller@@6B@		; Damageable_Vent_Controller::`RTTI Complete Object Locator'
PUBLIC	??_R0?AVMaterialStreamReader@tinyobj@@@8	; tinyobj::MaterialStreamReader `RTTI Type Descriptor'
PUBLIC	??_R2Controller@@8				; Controller::`RTTI Base Class Array'
PUBLIC	??_R2UI_Fade_Out_Effect_Controller@@8		; UI_Fade_Out_Effect_Controller::`RTTI Base Class Array'
PUBLIC	?Frame_Counter@@3_KA				; Frame_Counter
PUBLIC	?Threads_Working_On_Physics@Physics@@3DA	; Physics::Threads_Working_On_Physics
PUBLIC	?Jump_Timer@@3MA				; Jump_Timer
PUBLIC	_CTA3?AVbad_array_new_length@std@@
PUBLIC	??_R4Physics_Object@Physics@@6B@		; Physics::Physics_Object::`RTTI Complete Object Locator'
PUBLIC	??_R0?AVDoor_Controller@@@8			; Door_Controller `RTTI Type Descriptor'
PUBLIC	??_7bad_array_new_length@std@@6B@		; std::bad_array_new_length::`vftable'
PUBLIC	??_R4Hitbox@@6B@				; Hitbox::`RTTI Complete Object Locator'
PUBLIC	??_R1A@?0A@EA@?$basic_ifstream@DU?$char_traits@D@std@@@std@@8 ; std::basic_ifstream<char,std::char_traits<char> >::`RTTI Base Class Descriptor at (0,-1,0,64)'
PUBLIC	??_7MaterialStreamReader@tinyobj@@6B@		; tinyobj::MaterialStreamReader::`vftable'
PUBLIC	??_R4Decal_Vertex_Buffer@@6B@			; Decal_Vertex_Buffer::`RTTI Complete Object Locator'
PUBLIC	??_R4Sphere_Hitbox@@6B@				; Sphere_Hitbox::`RTTI Complete Object Locator'
PUBLIC	??_R0?AV?$basic_iostream@DU?$char_traits@D@std@@@std@@@8 ; std::basic_iostream<char,std::char_traits<char> > `RTTI Type Descriptor'
PUBLIC	??_R0?AVBillboard_Vertex_Buffer@@@8		; Billboard_Vertex_Buffer `RTTI Type Descriptor'
PUBLIC	??_R17A@3EA@?$_Iosb@H@std@@8			; std::_Iosb<int>::`RTTI Base Class Descriptor at (8,0,4,64)'
PUBLIC	??_R3Damageable_Vent_Controller@@8		; Damageable_Vent_Controller::`RTTI Class Hierarchy Descriptor'
PUBLIC	??_R0?AVSphere_Hitbox@@@8			; Sphere_Hitbox `RTTI Type Descriptor'
PUBLIC	??_R1A@?0A@EA@?$basic_stringstream@DU?$char_traits@D@std@@V?$allocator@D@2@@std@@8 ; std::basic_stringstream<char,std::char_traits<char>,std::allocator<char> >::`RTTI Base Class Descriptor at (0,-1,0,64)'
PUBLIC	?Last_Job_Submitted_Index@Job_System@@3EA	; Job_System::Last_Job_Submitted_Index
PUBLIC	?Working@Job_System@@3_NA			; Job_System::Working
PUBLIC	??_R0?AVUI_Fade_Out_Effect_Controller@@@8	; UI_Fade_Out_Effect_Controller `RTTI Type Descriptor'
PUBLIC	??_R4UI_Loading_Screen_Icon_Controller@@6B@	; UI_Loading_Screen_Icon_Controller::`RTTI Complete Object Locator'
PUBLIC	??_R1A@?0A@EA@exception@std@@8			; std::exception::`RTTI Base Class Descriptor at (0,-1,0,64)'
PUBLIC	??_R1A@?0A@EA@Decal_Vertex_Buffer@@8		; Decal_Vertex_Buffer::`RTTI Base Class Descriptor at (0,-1,0,64)'
PUBLIC	??_R3Base_Vertex_Buffer@@8			; Base_Vertex_Buffer::`RTTI Class Hierarchy Descriptor'
PUBLIC	??_R2Base_Vertex_Buffer@@8			; Base_Vertex_Buffer::`RTTI Base Class Array'
PUBLIC	??_R3Model_Vertex_Buffer@@8			; Model_Vertex_Buffer::`RTTI Class Hierarchy Descriptor'
PUBLIC	??_R2Vent_Smoke_Controller@@8			; Vent_Smoke_Controller::`RTTI Base Class Array'
PUBLIC	??_R1A@?0A@EA@UI_Element@@8			; UI_Element::`RTTI Base Class Descriptor at (0,-1,0,64)'
PUBLIC	??_R4Test_Enemy_Controller@@6B@			; Test_Enemy_Controller::`RTTI Complete Object Locator'
PUBLIC	??_R1A@?0A@EA@Controller@@8			; Controller::`RTTI Base Class Descriptor at (0,-1,0,64)'
PUBLIC	??_R1A@?0A@EA@?$basic_streambuf@DU?$char_traits@D@std@@@std@@8 ; std::basic_streambuf<char,std::char_traits<char> >::`RTTI Base Class Descriptor at (0,-1,0,64)'
PUBLIC	??_R3Phone_Controller@@8			; Phone_Controller::`RTTI Class Hierarchy Descriptor'
PUBLIC	??_R1A@?0A@EA@bad_alloc@std@@8			; std::bad_alloc::`RTTI Base Class Descriptor at (0,-1,0,64)'
PUBLIC	??_7?$basic_filebuf@DU?$char_traits@D@std@@@std@@6B@ ; std::basic_filebuf<char,std::char_traits<char> >::`vftable'
PUBLIC	??_R4UI_Filling_Bar_Controller@@6B@		; UI_Filling_Bar_Controller::`RTTI Complete Object Locator'
PUBLIC	??_7Phone_Controller@@6B@			; Phone_Controller::`vftable'
PUBLIC	??_8?$basic_stringstream@DU?$char_traits@D@std@@V?$allocator@D@2@@std@@7B?$basic_ostream@DU?$char_traits@D@std@@@1@@ ; std::basic_stringstream<char,std::char_traits<char>,std::allocator<char> >::`vbtable'
PUBLIC	??_R3Vent_Smoke_Controller@@8			; Vent_Smoke_Controller::`RTTI Class Hierarchy Descriptor'
PUBLIC	??_R2?$basic_istream@DU?$char_traits@D@std@@@std@@8 ; std::basic_istream<char,std::char_traits<char> >::`RTTI Base Class Array'
PUBLIC	??_R2Pistol@@8					; Pistol::`RTTI Base Class Array'
PUBLIC	?Inputs_Keycode@@3V?$array@G$0M@@std@@A		; Inputs_Keycode
PUBLIC	??_R0?AVPhysics_Object@Physics@@@8		; Physics::Physics_Object `RTTI Type Descriptor'
PUBLIC	??_R2Button_Text_UI_Element@@8			; Button_Text_UI_Element::`RTTI Base Class Array'
PUBLIC	??_R0?AVUI_Controller@@@8			; UI_Controller `RTTI Type Descriptor'
PUBLIC	??_7UI_Filling_Bar_Controller@@6B@		; UI_Filling_Bar_Controller::`vftable'
PUBLIC	??_R0?AV?$_Iosb@H@std@@@8			; std::_Iosb<int> `RTTI Type Descriptor'
PUBLIC	?Leaf_Nodes@Lighting_BVH@@3PAULeaf_Node@1@A	; Lighting_BVH::Leaf_Nodes
PUBLIC	?Leaf_Nodes_Info@Lighting_BVH@@3PAULeaf_Node_Bounds@1@A ; Lighting_BVH::Leaf_Nodes_Info
PUBLIC	?Boundary_Max_Value@Lighting_BVH@@3MA		; Lighting_BVH::Boundary_Max_Value
PUBLIC	??_R4Button_Text_UI_Element@@6B@		; Button_Text_UI_Element::`RTTI Complete Object Locator'
PUBLIC	??_R3UI_Fade_Effect_Controller@@8		; UI_Fade_Effect_Controller::`RTTI Class Hierarchy Descriptor'
PUBLIC	??_R0?AVUI_Fade_In_Effect_Controller@@@8	; UI_Fade_In_Effect_Controller `RTTI Type Descriptor'
PUBLIC	??_R2UI_Fade_In_Effect_Controller@@8		; UI_Fade_In_Effect_Controller::`RTTI Base Class Array'
PUBLIC	??_R1A@?0A@EA@Physics_Object_Controller@@8	; Physics_Object_Controller::`RTTI Base Class Descriptor at (0,-1,0,64)'
PUBLIC	??_R2Physics_Object@Physics@@8			; Physics::Physics_Object::`RTTI Base Class Array'
PUBLIC	??_R3UI_Filling_Bar_Controller@@8		; UI_Filling_Bar_Controller::`RTTI Class Hierarchy Descriptor'
PUBLIC	_CTA2?AVbad_cast@std@@
PUBLIC	??_R1A@?0A@EA@Button_Text_UI_Element@@8		; Button_Text_UI_Element::`RTTI Base Class Descriptor at (0,-1,0,64)'
PUBLIC	??_R1A@?0A@EA@Billboard_Vertex_Buffer@@8	; Billboard_Vertex_Buffer::`RTTI Base Class Descriptor at (0,-1,0,64)'
PUBLIC	??_R2UI_Loading_Screen_Icon_Controller@@8	; UI_Loading_Screen_Icon_Controller::`RTTI Base Class Array'
PUBLIC	??_R2UI_Filling_Bar_Controller@@8		; UI_Filling_Bar_Controller::`RTTI Base Class Array'
PUBLIC	??_R4Door_Controller@@6B@			; Door_Controller::`RTTI Complete Object Locator'
PUBLIC	??_R1A@?0A@EA@Vent_Smoke_Controller@@8		; Vent_Smoke_Controller::`RTTI Base Class Descriptor at (0,-1,0,64)'
PUBLIC	??_7bad_alloc@std@@6B@				; std::bad_alloc::`vftable'
PUBLIC	??_R2Sphere_Hitbox@@8				; Sphere_Hitbox::`RTTI Base Class Array'
PUBLIC	??_R0?AV?$basic_streambuf@DU?$char_traits@D@std@@@std@@@8 ; std::basic_streambuf<char,std::char_traits<char> > `RTTI Type Descriptor'
PUBLIC	??_7Hitbox@@6B@					; Hitbox::`vftable'
PUBLIC	??_R1A@?0A@EA@Model_Vertex_Buffer@@8		; Model_Vertex_Buffer::`RTTI Base Class Descriptor at (0,-1,0,64)'
PUBLIC	??_7Button_Text_UI_Element@@6B@			; Button_Text_UI_Element::`vftable'
PUBLIC	??_R3?$basic_stringbuf@DU?$char_traits@D@std@@V?$allocator@D@2@@std@@8 ; std::basic_stringbuf<char,std::char_traits<char>,std::allocator<char> >::`RTTI Class Hierarchy Descriptor'
PUBLIC	??_7Physics_Object@Physics@@6B@			; Physics::Physics_Object::`vftable'
PUBLIC	??_R2bad_cast@std@@8				; std::bad_cast::`RTTI Base Class Array'
PUBLIC	??_R2exception@std@@8				; std::exception::`RTTI Base Class Array'
PUBLIC	??_R2Item@@8					; Item::`RTTI Base Class Array'
PUBLIC	??_R2?$basic_ostream@DU?$char_traits@D@std@@@std@@8 ; std::basic_ostream<char,std::char_traits<char> >::`RTTI Base Class Array'
PUBLIC	??_7bad_cast@std@@6B@				; std::bad_cast::`vftable'
PUBLIC	??_R1A@?0A@EA@AABB_Hitbox@@8			; AABB_Hitbox::`RTTI Base Class Descriptor at (0,-1,0,64)'
PUBLIC	??_R3?$basic_ios@DU?$char_traits@D@std@@@std@@8	; std::basic_ios<char,std::char_traits<char> >::`RTTI Class Hierarchy Descriptor'
PUBLIC	?Control_Key_Inputs@UI_Typing@@3PAUKey_Press_Info@1@A ; UI_Typing::Control_Key_Inputs
PUBLIC	??_R4UI_Controller@@6B@				; UI_Controller::`RTTI Complete Object Locator'
PUBLIC	??_R2UI_Controller@@8				; UI_Controller::`RTTI Base Class Array'
PUBLIC	??_R3?$basic_istringstream@DU?$char_traits@D@std@@V?$allocator@D@2@@std@@8 ; std::basic_istringstream<char,std::char_traits<char>,std::allocator<char> >::`RTTI Class Hierarchy Descriptor'
PUBLIC	??_R2MaterialFileReader@tinyobj@@8		; tinyobj::MaterialFileReader::`RTTI Base Class Array'
PUBLIC	??_R1A@?0A@EA@Alarm_Light_Controller@@8		; Alarm_Light_Controller::`RTTI Base Class Descriptor at (0,-1,0,64)'
PUBLIC	??_R3Button_Text_UI_Element@@8			; Button_Text_UI_Element::`RTTI Class Hierarchy Descriptor'
PUBLIC	?Music_Volume@@3MA				; Music_Volume
PUBLIC	?Camera_Uniform_Location@@3UCamera_Uniform_Location_Object@@A ; Camera_Uniform_Location
PUBLIC	?Window@@3PEAUGLFWwindow@@EA			; Window
PUBLIC	??_R0?AVVent_Smoke_Controller@@@8		; Vent_Smoke_Controller `RTTI Type Descriptor'
PUBLIC	??_R0?AVText_UI_Element@@@8			; Text_UI_Element `RTTI Type Descriptor'
PUBLIC	??_R3Physics_Object_Controller@@8		; Physics_Object_Controller::`RTTI Class Hierarchy Descriptor'
PUBLIC	??_7UI_Fade_In_Effect_Controller@@6B@		; UI_Fade_In_Effect_Controller::`vftable'
PUBLIC	??_R1A@?0A@EA@UI_Controller@@8			; UI_Controller::`RTTI Base Class Descriptor at (0,-1,0,64)'
PUBLIC	??_R2Test_Enemy_Controller@@8			; Test_Enemy_Controller::`RTTI Base Class Array'
PUBLIC	?Window_Aspect_Ratio@@3MA			; Window_Aspect_Ratio
PUBLIC	??_R1A@?0A@EA@Sphere_Hitbox@@8			; Sphere_Hitbox::`RTTI Base Class Descriptor at (0,-1,0,64)'
PUBLIC	??_R0?AVbad_cast@std@@@8			; std::bad_cast `RTTI Type Descriptor'
PUBLIC	?Cursor@@3U?$vec@$01M$0A@@glm@@A		; Cursor
PUBLIC	_TI2?AVbad_cast@std@@
PUBLIC	??_R0?AVItem@@@8				; Item `RTTI Type Descriptor'
PUBLIC	??_R4Pistol@@6B@				; Pistol::`RTTI Complete Object Locator'
PUBLIC	?Scene_Object_Shader@@3VShader@@A		; Scene_Object_Shader
PUBLIC	??_R1A@?0A@EA@Button_UI_Element@@8		; Button_UI_Element::`RTTI Base Class Descriptor at (0,-1,0,64)'
PUBLIC	??_7?$basic_stringbuf@DU?$char_traits@D@std@@V?$allocator@D@2@@std@@6B@ ; std::basic_stringbuf<char,std::char_traits<char>,std::allocator<char> >::`vftable'
PUBLIC	?Inputs@@3PA_NA					; Inputs
PUBLIC	??_7Item@@6B@					; Item::`vftable'
PUBLIC	??_R1A@?0A@EA@Damageable_Vent_Controller@@8	; Damageable_Vent_Controller::`RTTI Base Class Descriptor at (0,-1,0,64)'
PUBLIC	??_R1A@?0A@EA@Damageable_Controller@@8		; Damageable_Controller::`RTTI Base Class Descriptor at (0,-1,0,64)'
PUBLIC	??_R1A@?0A@EA@Pistol@@8				; Pistol::`RTTI Base Class Descriptor at (0,-1,0,64)'
PUBLIC	??_R4Vent_Smoke_Controller@@6B@			; Vent_Smoke_Controller::`RTTI Complete Object Locator'
PUBLIC	??_R1A@?0A@EA@Hitbox@@8				; Hitbox::`RTTI Base Class Descriptor at (0,-1,0,64)'
PUBLIC	?Light_Uniform_Location@@3ULight_Uniform_Location_Object@@A ; Light_Uniform_Location
PUBLIC	?Loading_Progress@Context_Interface@@3_KA	; Context_Interface::Loading_Progress
PUBLIC	?Loading_Progress_Total@Context_Interface@@3_KA	; Context_Interface::Loading_Progress_Total
PUBLIC	??_R3UI_Fade_In_Effect_Controller@@8		; UI_Fade_In_Effect_Controller::`RTTI Class Hierarchy Descriptor'
PUBLIC	??_R1A@?0A@EA@Thought_Popups_Controller@@8	; Thought_Popups_Controller::`RTTI Base Class Descriptor at (0,-1,0,64)'
PUBLIC	??_R1A@?0A@EA@MaterialStreamReader@tinyobj@@8	; tinyobj::MaterialStreamReader::`RTTI Base Class Descriptor at (0,-1,0,64)'
PUBLIC	??_R4Damageable_Controller@@6B@			; Damageable_Controller::`RTTI Complete Object Locator'
PUBLIC	??_R3Billboard_Vertex_Buffer@@8			; Billboard_Vertex_Buffer::`RTTI Class Hierarchy Descriptor'
PUBLIC	?Player_Desired_Item@@3PEAVItem@@EA		; Player_Desired_Item
PUBLIC	??_7Button_UI_Element@@6B@			; Button_UI_Element::`vftable'
PUBLIC	?Player_Object_Spawn_Timer@@3MA			; Player_Object_Spawn_Timer
PUBLIC	??_7exception@std@@6B@				; std::exception::`vftable'
PUBLIC	??_R4Alarm_Light_Controller@@6B@		; Alarm_Light_Controller::`RTTI Complete Object Locator'
PUBLIC	??_R3Sphere_Hitbox@@8				; Sphere_Hitbox::`RTTI Class Hierarchy Descriptor'
PUBLIC	??_R0?AV?$basic_istringstream@DU?$char_traits@D@std@@V?$allocator@D@2@@std@@@8 ; std::basic_istringstream<char,std::char_traits<char>,std::allocator<char> > `RTTI Type Descriptor'
PUBLIC	??_7MaterialFileReader@tinyobj@@6B@		; tinyobj::MaterialFileReader::`vftable'
PUBLIC	??_R0?AVMaterialReader@tinyobj@@@8		; tinyobj::MaterialReader `RTTI Type Descriptor'
PUBLIC	??_R1BA@?0A@EA@?$basic_ostream@DU?$char_traits@D@std@@@std@@8 ; std::basic_ostream<char,std::char_traits<char> >::`RTTI Base Class Descriptor at (16,-1,0,64)'
PUBLIC	??_R0?AV?$basic_istream@DU?$char_traits@D@std@@@std@@@8 ; std::basic_istream<char,std::char_traits<char> > `RTTI Type Descriptor'
PUBLIC	??_R0?AVMaterialFileReader@tinyobj@@@8		; tinyobj::MaterialFileReader `RTTI Type Descriptor'
PUBLIC	??_R0?AVDamageable_Vent_Controller@@@8		; Damageable_Vent_Controller `RTTI Type Descriptor'
PUBLIC	??_R1A@?0A@EA@Phone_Controller@@8		; Phone_Controller::`RTTI Base Class Descriptor at (0,-1,0,64)'
PUBLIC	??_R4?$basic_ifstream@DU?$char_traits@D@std@@@std@@6B@ ; std::basic_ifstream<char,std::char_traits<char> >::`RTTI Complete Object Locator'
PUBLIC	??_R3MaterialStreamReader@tinyobj@@8		; tinyobj::MaterialStreamReader::`RTTI Class Hierarchy Descriptor'
PUBLIC	??_R0?AVButton_UI_Element@@@8			; Button_UI_Element `RTTI Type Descriptor'
PUBLIC	??_R1A@?0A@EA@ios_base@std@@8			; std::ios_base::`RTTI Base Class Descriptor at (0,-1,0,64)'
PUBLIC	??_R2Button_UI_Element@@8			; Button_UI_Element::`RTTI Base Class Array'
PUBLIC	??_R3exception@std@@8				; std::exception::`RTTI Class Hierarchy Descriptor'
PUBLIC	??_R4Mesh_Hitbox@@6B@				; Mesh_Hitbox::`RTTI Complete Object Locator'
PUBLIC	??_R4UI_Fade_In_Effect_Controller@@6B@		; UI_Fade_In_Effect_Controller::`RTTI Complete Object Locator'
PUBLIC	_CT??_R0?AVbad_array_new_length@std@@@8??0bad_array_new_length@std@@QEAA@AEBV01@@Z24
PUBLIC	??_R1A@?0A@EA@?$basic_ostream@DU?$char_traits@D@std@@@std@@8 ; std::basic_ostream<char,std::char_traits<char> >::`RTTI Base Class Descriptor at (0,-1,0,64)'
PUBLIC	?Light_Uniforms@@3VLight_Uniform_Buffer@@A	; Light_Uniforms
PUBLIC	??_R2Alarm_Light_Controller@@8			; Alarm_Light_Controller::`RTTI Base Class Array'
PUBLIC	??_R4?$basic_filebuf@DU?$char_traits@D@std@@@std@@6B@ ; std::basic_filebuf<char,std::char_traits<char> >::`RTTI Complete Object Locator'
PUBLIC	??_R0?AV?$basic_ios@DU?$char_traits@D@std@@@std@@@8 ; std::basic_ios<char,std::char_traits<char> > `RTTI Type Descriptor'
PUBLIC	??_7Test_Enemy_Controller@@6B@			; Test_Enemy_Controller::`vftable'
PUBLIC	??_7Door_Controller@@6B@			; Door_Controller::`vftable'
PUBLIC	??_7?$basic_stringstream@DU?$char_traits@D@std@@V?$allocator@D@2@@std@@6B@ ; std::basic_stringstream<char,std::char_traits<char>,std::allocator<char> >::`vftable'
PUBLIC	?Loading_Screen_Background_Shader@@3VShader@@A	; Loading_Screen_Background_Shader
PUBLIC	??_R0?AVDamageable_Controller@@@8		; Damageable_Controller `RTTI Type Descriptor'
PUBLIC	??_7Decal_Vertex_Buffer@@6B@			; Decal_Vertex_Buffer::`vftable'
PUBLIC	??_R3Hitbox@@8					; Hitbox::`RTTI Class Hierarchy Descriptor'
PUBLIC	??_R4MaterialFileReader@tinyobj@@6B@		; tinyobj::MaterialFileReader::`RTTI Complete Object Locator'
PUBLIC	??_R3Test_Enemy_Controller@@8			; Test_Enemy_Controller::`RTTI Class Hierarchy Descriptor'
PUBLIC	??_R2?$basic_streambuf@DU?$char_traits@D@std@@@std@@8 ; std::basic_streambuf<char,std::char_traits<char> >::`RTTI Base Class Array'
PUBLIC	??_R4UI_Fade_Out_Effect_Controller@@6B@		; UI_Fade_Out_Effect_Controller::`RTTI Complete Object Locator'
PUBLIC	?Mouse_Last_Clicked_Flags@@3PA_NA		; Mouse_Last_Clicked_Flags
PUBLIC	??_7Thought_Popups_Controller@@6B@		; Thought_Popups_Controller::`vftable'
PUBLIC	??_R1A@?0A@EA@?$_Iosb@H@std@@8			; std::_Iosb<int>::`RTTI Base Class Descriptor at (0,-1,0,64)'
PUBLIC	??_8?$basic_ifstream@DU?$char_traits@D@std@@@std@@7B@ ; std::basic_ifstream<char,std::char_traits<char> >::`vbtable'
PUBLIC	??_R0?AVController@@@8				; Controller `RTTI Type Descriptor'
PUBLIC	??_R1A@?0A@EA@Item@@8				; Item::`RTTI Base Class Descriptor at (0,-1,0,64)'
PUBLIC	??_R4Billboard_Vertex_Buffer@@6B@		; Billboard_Vertex_Buffer::`RTTI Complete Object Locator'
PUBLIC	??_R0?AVAlarm_Light_Controller@@@8		; Alarm_Light_Controller `RTTI Type Descriptor'
PUBLIC	??_R1A@?0A@EA@?$basic_stringbuf@DU?$char_traits@D@std@@V?$allocator@D@2@@std@@8 ; std::basic_stringbuf<char,std::char_traits<char>,std::allocator<char> >::`RTTI Base Class Descriptor at (0,-1,0,64)'
PUBLIC	??_7UI_Fade_Effect_Controller@@6B@		; UI_Fade_Effect_Controller::`vftable'
PUBLIC	??_R3Mesh_Hitbox@@8				; Mesh_Hitbox::`RTTI Class Hierarchy Descriptor'
PUBLIC	??_R4MaterialStreamReader@tinyobj@@6B@		; tinyobj::MaterialStreamReader::`RTTI Complete Object Locator'
PUBLIC	??_R2Phone_Controller@@8			; Phone_Controller::`RTTI Base Class Array'
PUBLIC	?Position_Buffer_Texture@Post_Processor@@3IA	; Post_Processor::Position_Buffer_Texture
PUBLIC	?Deferred_Lighting_Uniform_Locations@Post_Processor@@3ULight_Uniform_Location_Object@@A ; Post_Processor::Deferred_Lighting_Uniform_Locations
PUBLIC	?Frame_Buffer_ID@Post_Processor@@3IA		; Post_Processor::Frame_Buffer_ID
PUBLIC	?Material_Buffer_Texture@Post_Processor@@3IA	; Post_Processor::Material_Buffer_Texture
PUBLIC	?Camera_Uniform_Locations@Post_Processor@@3UCamera_Uniform_Location_Object@@A ; Post_Processor::Camera_Uniform_Locations
PUBLIC	?Shader_Program@Post_Processor@@3VShader@@A	; Post_Processor::Shader_Program
PUBLIC	?Shader_Time@Post_Processor@@3MA		; Post_Processor::Shader_Time
PUBLIC	?Frame_Buffer_Texture@Post_Processor@@3IA	; Post_Processor::Frame_Buffer_Texture
PUBLIC	?Normal_Buffer_Texture@Post_Processor@@3IA	; Post_Processor::Normal_Buffer_Texture
PUBLIC	?Render_Buffer_ID@Post_Processor@@3IA		; Post_Processor::Render_Buffer_ID
PUBLIC	??_R0?AVDecal_Vertex_Buffer@@@8			; Decal_Vertex_Buffer `RTTI Type Descriptor'
PUBLIC	?_Psave@?$_Facetptr@V?$codecvt@DDU_Mbstatet@@@std@@@std@@2PEBVfacet@locale@2@EB ; std::_Facetptr<std::codecvt<char,char,_Mbstatet> >::_Psave
PUBLIC	?_Min_buckets@?$_Hash@V?$_Umap_traits@UModel_Vertex@@IV?$_Uhash_compare@UModel_Vertex@@U?$hash@UModel_Vertex@@@std@@U?$equal_to@UModel_Vertex@@@3@@std@@V?$allocator@U?$pair@$$CBUModel_Vertex@@I@std@@@3@$0A@@std@@@std@@2_KB ; std::_Hash<std::_Umap_traits<Model_Vertex,unsigned int,std::_Uhash_compare<Model_Vertex,std::hash<Model_Vertex>,std::equal_to<Model_Vertex> >,std::allocator<std::pair<Model_Vertex const ,unsigned int> >,0> >::_Min_buckets
PUBLIC	?_Psave@?$_Facetptr@V?$ctype@D@std@@@std@@2PEBVfacet@locale@2@EB ; std::_Facetptr<std::ctype<char> >::_Psave
PUBLIC	?Window_Width@@3HA				; Window_Width
PUBLIC	??_R2?$basic_iostream@DU?$char_traits@D@std@@@std@@8 ; std::basic_iostream<char,std::char_traits<char> >::`RTTI Base Class Array'
PUBLIC	??_R3bad_cast@std@@8				; std::bad_cast::`RTTI Class Hierarchy Descriptor'
PUBLIC	??_R3Decal_Vertex_Buffer@@8			; Decal_Vertex_Buffer::`RTTI Class Hierarchy Descriptor'
PUBLIC	??_R4bad_alloc@std@@6B@				; std::bad_alloc::`RTTI Complete Object Locator'
PUBLIC	??_R2?$basic_stringstream@DU?$char_traits@D@std@@V?$allocator@D@2@@std@@8 ; std::basic_stringstream<char,std::char_traits<char>,std::allocator<char> >::`RTTI Base Class Array'
PUBLIC	?Player_Viewmodel_Walk_Timer@@3MA		; Player_Viewmodel_Walk_Timer
PUBLIC	??_R0?AVPhysics_Object_Controller@@@8		; Physics_Object_Controller `RTTI Type Descriptor'
PUBLIC	?Camera_Direction@@3U?$vec@$02M$0A@@glm@@A	; Camera_Direction
PUBLIC	??_R2Damageable_Controller@@8			; Damageable_Controller::`RTTI Base Class Array'
PUBLIC	??_7Damageable_Controller@@6B@			; Damageable_Controller::`vftable'
PUBLIC	?Cursor_Reset@@3_NA				; Cursor_Reset
PUBLIC	??_R4UI_Fade_Effect_Controller@@6B@		; UI_Fade_Effect_Controller::`RTTI Complete Object Locator'
PUBLIC	?Auxilliary@Gamepad_Controls@@3EA		; Gamepad_Controls::Auxilliary
PUBLIC	?Up@Gamepad_Controls@@3EA			; Gamepad_Controls::Up
PUBLIC	?Attack@Gamepad_Controls@@3EA			; Gamepad_Controls::Attack
PUBLIC	??_R4bad_cast@std@@6B@				; std::bad_cast::`RTTI Complete Object Locator'
PUBLIC	?Projection_Matrix@@3U?$mat@$03$03M$0A@@glm@@A	; Projection_Matrix
PUBLIC	??_R4Base_Vertex_Buffer@@6B@			; Base_Vertex_Buffer::`RTTI Complete Object Locator'
PUBLIC	??_R4MaterialReader@tinyobj@@6B@		; tinyobj::MaterialReader::`RTTI Complete Object Locator'
PUBLIC	??_R1A@?0A@EA@UI_Filling_Bar_Controller@@8	; UI_Filling_Bar_Controller::`RTTI Base Class Descriptor at (0,-1,0,64)'
PUBLIC	??_R3Physics_Object@Physics@@8			; Physics::Physics_Object::`RTTI Class Hierarchy Descriptor'
PUBLIC	??_8?$basic_istringstream@DU?$char_traits@D@std@@V?$allocator@D@2@@std@@7B@ ; std::basic_istringstream<char,std::char_traits<char>,std::allocator<char> >::`vbtable'
PUBLIC	_CT??_R0?AVbad_cast@std@@@8??0bad_cast@std@@QEAA@AEBV01@@Z24
PUBLIC	??_R3bad_array_new_length@std@@8		; std::bad_array_new_length::`RTTI Class Hierarchy Descriptor'
PUBLIC	??_R0?AVThought_Popups_Controller@@@8		; Thought_Popups_Controller `RTTI Type Descriptor'
PUBLIC	??_R1A@?0A@EA@Flicker_Light_Controller@@8	; Flicker_Light_Controller::`RTTI Base Class Descriptor at (0,-1,0,64)'
PUBLIC	_CT??_R0?AVbad_alloc@std@@@8??0bad_alloc@std@@QEAA@AEBV01@@Z24
PUBLIC	??_R3UI_Loading_Screen_Icon_Controller@@8	; UI_Loading_Screen_Icon_Controller::`RTTI Class Hierarchy Descriptor'
PUBLIC	??_R4?$basic_stringbuf@DU?$char_traits@D@std@@V?$allocator@D@2@@std@@6B@ ; std::basic_stringbuf<char,std::char_traits<char>,std::allocator<char> >::`RTTI Complete Object Locator'
PUBLIC	??_R4Phone_Controller@@6B@			; Phone_Controller::`RTTI Complete Object Locator'
PUBLIC	??_R4?$basic_stringstream@DU?$char_traits@D@std@@V?$allocator@D@2@@std@@6B@ ; std::basic_stringstream<char,std::char_traits<char>,std::allocator<char> >::`RTTI Complete Object Locator'
PUBLIC	??_R3MaterialReader@tinyobj@@8			; tinyobj::MaterialReader::`RTTI Class Hierarchy Descriptor'
PUBLIC	?Sound_Engine@@3PEAVISoundEngine@irrklang@@EA	; Sound_Engine
PUBLIC	??_R3bad_alloc@std@@8				; std::bad_alloc::`RTTI Class Hierarchy Descriptor'
PUBLIC	??_R2Thought_Popups_Controller@@8		; Thought_Popups_Controller::`RTTI Base Class Array'
PUBLIC	??_7Physics_Object_Controller@@6B@		; Physics_Object_Controller::`vftable'
PUBLIC	?Controller_Inputs@@3UGLFWgamepadstate@@A	; Controller_Inputs
PUBLIC	??_R3Pistol@@8					; Pistol::`RTTI Class Hierarchy Descriptor'
PUBLIC	??_R1A@?0A@EA@?$basic_filebuf@DU?$char_traits@D@std@@@std@@8 ; std::basic_filebuf<char,std::char_traits<char> >::`RTTI Base Class Descriptor at (0,-1,0,64)'
PUBLIC	??_R1A@?0A@EA@Mesh_Hitbox@@8			; Mesh_Hitbox::`RTTI Base Class Descriptor at (0,-1,0,64)'
PUBLIC	??_7Model_Vertex_Buffer@@6B@			; Model_Vertex_Buffer::`vftable'
PUBLIC	??_R0?AVFlicker_Light_Controller@@@8		; Flicker_Light_Controller `RTTI Type Descriptor'
PUBLIC	??_R1A@A@3FA@?$basic_ios@DU?$char_traits@D@std@@@std@@8 ; std::basic_ios<char,std::char_traits<char> >::`RTTI Base Class Descriptor at (0,0,4,80)'
PUBLIC	??_7UI_Controller@@6B@				; UI_Controller::`vftable'
PUBLIC	??_R4bad_array_new_length@std@@6B@		; std::bad_array_new_length::`RTTI Complete Object Locator'
PUBLIC	??_R3?$basic_filebuf@DU?$char_traits@D@std@@@std@@8 ; std::basic_filebuf<char,std::char_traits<char> >::`RTTI Class Hierarchy Descriptor'
PUBLIC	??_R2Flicker_Light_Controller@@8		; Flicker_Light_Controller::`RTTI Base Class Array'
PUBLIC	??_R3UI_Element@@8				; UI_Element::`RTTI Class Hierarchy Descriptor'
PUBLIC	??_R1A@?0A@EA@Door_Controller@@8		; Door_Controller::`RTTI Base Class Descriptor at (0,-1,0,64)'
PUBLIC	??_R2UI_Element@@8				; UI_Element::`RTTI Base Class Array'
PUBLIC	??_R0?AVBase_Vertex_Buffer@@@8			; Base_Vertex_Buffer `RTTI Type Descriptor'
PUBLIC	??_R0?AV?$basic_ostream@DU?$char_traits@D@std@@@std@@@8 ; std::basic_ostream<char,std::char_traits<char> > `RTTI Type Descriptor'
PUBLIC	??_R2ios_base@std@@8				; std::ios_base::`RTTI Base Class Array'
PUBLIC	??_7UI_Loading_Screen_Icon_Controller@@6B@	; UI_Loading_Screen_Icon_Controller::`vftable'
PUBLIC	?Selected_Difficulty@@3W4Difficulty@@A		; Selected_Difficulty
PUBLIC	??_R3?$basic_ostream@DU?$char_traits@D@std@@@std@@8 ; std::basic_ostream<char,std::char_traits<char> >::`RTTI Class Hierarchy Descriptor'
PUBLIC	??_R1A@?0A@EA@?$basic_iostream@DU?$char_traits@D@std@@@std@@8 ; std::basic_iostream<char,std::char_traits<char> >::`RTTI Base Class Descriptor at (0,-1,0,64)'
PUBLIC	??_R0?AVPistol@@@8				; Pistol `RTTI Type Descriptor'
PUBLIC	??_7Flicker_Light_Controller@@6B@		; Flicker_Light_Controller::`vftable'
PUBLIC	??_R1A@?0A@EA@UI_Fade_Effect_Controller@@8	; UI_Fade_Effect_Controller::`RTTI Base Class Descriptor at (0,-1,0,64)'
PUBLIC	??_R4?$basic_istringstream@DU?$char_traits@D@std@@V?$allocator@D@2@@std@@6B@ ; std::basic_istringstream<char,std::char_traits<char>,std::allocator<char> >::`RTTI Complete Object Locator'
PUBLIC	??_8?$basic_stringstream@DU?$char_traits@D@std@@V?$allocator@D@2@@std@@7B?$basic_istream@DU?$char_traits@D@std@@@1@@ ; std::basic_stringstream<char,std::char_traits<char>,std::allocator<char> >::`vbtable'
PUBLIC	??_7Vent_Smoke_Controller@@6B@			; Vent_Smoke_Controller::`vftable'
PUBLIC	?Last_Time@@3NA					; Last_Time
PUBLIC	??_R3ios_base@std@@8				; std::ios_base::`RTTI Class Hierarchy Descriptor'
PUBLIC	??_R3Controller@@8				; Controller::`RTTI Class Hierarchy Descriptor'
PUBLIC	??_R2Door_Controller@@8				; Door_Controller::`RTTI Base Class Array'
PUBLIC	?Fullscreen@@3_NA				; Fullscreen
PUBLIC	??_7Alarm_Light_Controller@@6B@			; Alarm_Light_Controller::`vftable'
PUBLIC	??_R2?$basic_filebuf@DU?$char_traits@D@std@@@std@@8 ; std::basic_filebuf<char,std::char_traits<char> >::`RTTI Base Class Array'
PUBLIC	??_R3?$basic_streambuf@DU?$char_traits@D@std@@@std@@8 ; std::basic_streambuf<char,std::char_traits<char> >::`RTTI Class Hierarchy Descriptor'
PUBLIC	??_R1A@?0A@EA@bad_array_new_length@std@@8	; std::bad_array_new_length::`RTTI Base Class Descriptor at (0,-1,0,64)'
PUBLIC	??_R1A@?0A@EA@MaterialFileReader@tinyobj@@8	; tinyobj::MaterialFileReader::`RTTI Base Class Descriptor at (0,-1,0,64)'
PUBLIC	?Window_Height@@3HA				; Window_Height
PUBLIC	??_R4AABB_Hitbox@@6B@				; AABB_Hitbox::`RTTI Complete Object Locator'
PUBLIC	?Tick@@3MA					; Tick
PUBLIC	?Blockmap_Height@Blockmap@@3_KA			; Blockmap::Blockmap_Height
PUBLIC	?Blockmap_A@Blockmap@@3U?$vec@$01M$0A@@glm@@A	; Blockmap::Blockmap_A
PUBLIC	?Blockmap_Width@Blockmap@@3_KA			; Blockmap::Blockmap_Width
PUBLIC	?Blockmap_B@Blockmap@@3U?$vec@$01M$0A@@glm@@A	; Blockmap::Blockmap_B
PUBLIC	?Block_Size@Blockmap@@3MA			; Blockmap::Block_Size
PUBLIC	??_R1A@?0A@EA@Text_UI_Element@@8		; Text_UI_Element::`RTTI Base Class Descriptor at (0,-1,0,64)'
PUBLIC	??_R3?$basic_stringstream@DU?$char_traits@D@std@@V?$allocator@D@2@@std@@8 ; std::basic_stringstream<char,std::char_traits<char>,std::allocator<char> >::`RTTI Class Hierarchy Descriptor'
PUBLIC	??_R0?AVAABB_Hitbox@@@8				; AABB_Hitbox `RTTI Type Descriptor'
PUBLIC	??_R3Door_Controller@@8				; Door_Controller::`RTTI Class Hierarchy Descriptor'
PUBLIC	??_7?$basic_ifstream@DU?$char_traits@D@std@@@std@@6B@ ; std::basic_ifstream<char,std::char_traits<char> >::`vftable'
PUBLIC	??_R1A@?0A@EA@Test_Enemy_Controller@@8		; Test_Enemy_Controller::`RTTI Base Class Descriptor at (0,-1,0,64)'
PUBLIC	??_R2?$_Iosb@H@std@@8				; std::_Iosb<int>::`RTTI Base Class Array'
PUBLIC	_CT??_R0?AVexception@std@@@8??0exception@std@@QEAA@AEBV01@@Z24
PUBLIC	??_R1A@A@3EA@ios_base@std@@8			; std::ios_base::`RTTI Base Class Descriptor at (0,0,4,64)'
PUBLIC	??_7Sphere_Hitbox@@6B@				; Sphere_Hitbox::`vftable'
PUBLIC	??_R1A@?0A@EA@?$basic_ios@DU?$char_traits@D@std@@@std@@8 ; std::basic_ios<char,std::char_traits<char> >::`RTTI Base Class Descriptor at (0,-1,0,64)'
PUBLIC	_TI3?AVbad_array_new_length@std@@
PUBLIC	??_R4Text_UI_Element@@6B@			; Text_UI_Element::`RTTI Complete Object Locator'
PUBLIC	??_7Text_UI_Element@@6B@			; Text_UI_Element::`vftable'
PUBLIC	??_R2?$basic_ifstream@DU?$char_traits@D@std@@@std@@8 ; std::basic_ifstream<char,std::char_traits<char> >::`RTTI Base Class Array'
PUBLIC	?Mouse_Inputs@@3PA_NA				; Mouse_Inputs
PUBLIC	??_R2Decal_Vertex_Buffer@@8			; Decal_Vertex_Buffer::`RTTI Base Class Array'
PUBLIC	?Player_Current_Item@@3PEAVItem@@EA		; Player_Current_Item
PUBLIC	??_R3?$_Iosb@H@std@@8				; std::_Iosb<int>::`RTTI Class Hierarchy Descriptor'
PUBLIC	?UI_Continue_Looping@@3_NA			; UI_Continue_Looping
PUBLIC	??_7?$basic_istringstream@DU?$char_traits@D@std@@V?$allocator@D@2@@std@@6B@ ; std::basic_istringstream<char,std::char_traits<char>,std::allocator<char> >::`vftable'
PUBLIC	??_7UI_Element@@6B@				; UI_Element::`vftable'
PUBLIC	?Player_Flags@@3PA_NA				; Player_Flags
PUBLIC	??_R0?AVexception@std@@@8			; std::exception `RTTI Type Descriptor'
PUBLIC	??_R17?0A@EA@?$_Iosb@H@std@@8			; std::_Iosb<int>::`RTTI Base Class Descriptor at (8,-1,0,64)'
PUBLIC	??_7Controller@@6B@				; Controller::`vftable'
PUBLIC	??_7Damageable_Vent_Controller@@6B@		; Damageable_Vent_Controller::`vftable'
PUBLIC	??_R3Damageable_Controller@@8			; Damageable_Controller::`RTTI Class Hierarchy Descriptor'
PUBLIC	??_R2Billboard_Vertex_Buffer@@8			; Billboard_Vertex_Buffer::`RTTI Base Class Array'
PUBLIC	??_R2Damageable_Vent_Controller@@8		; Damageable_Vent_Controller::`RTTI Base Class Array'
PUBLIC	?Sound_Effect_Volume@@3MA			; Sound_Effect_Volume
PUBLIC	??_R3AABB_Hitbox@@8				; AABB_Hitbox::`RTTI Class Hierarchy Descriptor'
PUBLIC	??_R3UI_Fade_Out_Effect_Controller@@8		; UI_Fade_Out_Effect_Controller::`RTTI Class Hierarchy Descriptor'
PUBLIC	?Mouse_Sensitivity@@3MA				; Mouse_Sensitivity
PUBLIC	?Model_Uniform_Location@@3UModel_Uniform_Location_Object@@A ; Model_Uniform_Location
PUBLIC	??_R0?AVTest_Enemy_Controller@@@8		; Test_Enemy_Controller `RTTI Type Descriptor'
PUBLIC	?Shadow_Model_Uniform_Locations@Shadow_Mapper@@3UModel_Uniform_Location_Object@@A ; Shadow_Mapper::Shadow_Model_Uniform_Locations
PUBLIC	?Shadow_Frame_Buffer@Shadow_Mapper@@3IA		; Shadow_Mapper::Shadow_Frame_Buffer
PUBLIC	?Shadow_Object_Shader@Shadow_Mapper@@3VShader@@A ; Shadow_Mapper::Shadow_Object_Shader
PUBLIC	?Shadow_Projection_Matrix@Shadow_Mapper@@3U?$mat@$03$03M$0A@@glm@@A ; Shadow_Mapper::Shadow_Projection_Matrix
PUBLIC	??_R2?$basic_ios@DU?$char_traits@D@std@@@std@@8	; std::basic_ios<char,std::char_traits<char> >::`RTTI Base Class Array'
PUBLIC	?Language_Settings_Update_Flag@@3_NA		; Language_Settings_Update_Flag
PUBLIC	??_R0?AVbad_array_new_length@std@@@8		; std::bad_array_new_length `RTTI Type Descriptor'
PUBLIC	??_R2AABB_Hitbox@@8				; AABB_Hitbox::`RTTI Base Class Array'
PUBLIC	?Current_Listener_Right_Ear_Vector@@3U?$vec@$02M$0A@@glm@@A ; Current_Listener_Right_Ear_Vector
PUBLIC	??_R2Physics_Object_Controller@@8		; Physics_Object_Controller::`RTTI Base Class Array'
PUBLIC	??_R2Model_Vertex_Buffer@@8			; Model_Vertex_Buffer::`RTTI Base Class Array'
PUBLIC	??_R0?AVUI_Fade_Effect_Controller@@@8		; UI_Fade_Effect_Controller `RTTI Type Descriptor'
PUBLIC	?Time_Elapsed_Since_FPS_Update@@3MA		; Time_Elapsed_Since_FPS_Update
PUBLIC	??_R4Model_Vertex_Buffer@@6B@			; Model_Vertex_Buffer::`RTTI Complete Object Locator'
PUBLIC	??_R4Flicker_Light_Controller@@6B@		; Flicker_Light_Controller::`RTTI Complete Object Locator'
PUBLIC	??_R0?AVModel_Vertex_Buffer@@@8			; Model_Vertex_Buffer `RTTI Type Descriptor'
PUBLIC	??_R4Physics_Object_Controller@@6B@		; Physics_Object_Controller::`RTTI Complete Object Locator'
EXTRN	__imp_??Bid@locale@std@@QEAA_KXZ:PROC
EXTRN	__imp_?always_noconv@codecvt_base@std@@QEBA_NXZ:PROC
EXTRN	__imp_?is@?$ctype@D@std@@QEBA_NFD@Z:PROC
EXTRN	__imp_?_Getcat@?$ctype@D@std@@SA_KPEAPEBVfacet@locale@2@PEBV42@@Z:PROC
EXTRN	__imp_??Bios_base@std@@QEBA_NXZ:PROC
EXTRN	__imp_??7ios_base@std@@QEBA_NXZ:PROC
EXTRN	__imp_?good@ios_base@std@@QEBA_NXZ:PROC
EXTRN	__imp_?flags@ios_base@std@@QEBAHXZ:PROC
EXTRN	__imp_?width@ios_base@std@@QEBA_JXZ:PROC
EXTRN	__imp_?width@ios_base@std@@QEAA_J_J@Z:PROC
EXTRN	__imp_?getloc@ios_base@std@@QEBA?AVlocale@2@XZ:PROC
EXTRN	__imp_??_D?$basic_istream@DU?$char_traits@D@std@@@std@@QEAAXXZ:PROC
EXTRN	__imp_??1?$basic_iostream@DU?$char_traits@D@std@@@std@@UEAA@XZ:PROC
EXTRN	__imp_?tellg@?$basic_istream@DU?$char_traits@D@std@@@std@@QEAA?AV?$fpos@U_Mbstatet@@@2@XZ:PROC
EXTRN	__imp_?seekg@?$basic_istream@DU?$char_traits@D@std@@@std@@QEAAAEAV12@_JH@Z:PROC
EXTRN	__imp_?peek@?$basic_istream@DU?$char_traits@D@std@@@std@@QEAAHXZ:PROC
EXTRN	__imp_?read@?$basic_istream@DU?$char_traits@D@std@@@std@@QEAAAEAV12@PEAD_J@Z:PROC
EXTRN	__imp_?get@?$basic_istream@DU?$char_traits@D@std@@@std@@QEAAHXZ:PROC
EXTRN	__imp_??5?$basic_istream@DU?$char_traits@D@std@@@std@@QEAAAEAV01@AEAM@Z:PROC
EXTRN	__imp_??5?$basic_istream@DU?$char_traits@D@std@@@std@@QEAAAEAV01@AEA_K@Z:PROC
EXTRN	__imp_??1?$basic_istream@DU?$char_traits@D@std@@@std@@UEAA@XZ:PROC
EXTRN	__imp_??0?$basic_istream@DU?$char_traits@D@std@@@std@@QEAA@PEAV?$basic_streambuf@DU?$char_traits@D@std@@@1@_N@Z:PROC
EXTRN	__imp_??6?$basic_ostream@DU?$char_traits@D@std@@@std@@QEAAAEAV01@_K@Z:PROC
EXTRN	__imp_??6?$basic_ostream@DU?$char_traits@D@std@@@std@@QEAAAEAV01@P6AAEAV01@AEAV01@@Z@Z:PROC
EXTRN	__imp_?rdbuf@?$basic_ios@DU?$char_traits@D@std@@@std@@QEBAPEAV?$basic_streambuf@DU?$char_traits@D@std@@@2@XZ:PROC
EXTRN	__imp_?setstate@?$basic_ios@DU?$char_traits@D@std@@@std@@QEAAXH_N@Z:PROC
EXTRN	__imp_??1?$basic_ios@DU?$char_traits@D@std@@@std@@UEAA@XZ:PROC
EXTRN	?imbue@?$basic_streambuf@DU?$char_traits@D@std@@@std@@MEAAXAEBVlocale@2@@Z:PROC ; std::basic_streambuf<char,std::char_traits<char> >::imbue
EXTRN	__imp_?imbue@?$basic_streambuf@DU?$char_traits@D@std@@@std@@MEAAXAEBVlocale@2@@Z:PROC
EXTRN	?sync@?$basic_streambuf@DU?$char_traits@D@std@@@std@@MEAAHXZ:PROC ; std::basic_streambuf<char,std::char_traits<char> >::sync
EXTRN	__imp_?sync@?$basic_streambuf@DU?$char_traits@D@std@@@std@@MEAAHXZ:PROC
EXTRN	?setbuf@?$basic_streambuf@DU?$char_traits@D@std@@@std@@MEAAPEAV12@PEAD_J@Z:PROC ; std::basic_streambuf<char,std::char_traits<char> >::setbuf
EXTRN	__imp_?setbuf@?$basic_streambuf@DU?$char_traits@D@std@@@std@@MEAAPEAV12@PEAD_J@Z:PROC
EXTRN	?xsputn@?$basic_streambuf@DU?$char_traits@D@std@@@std@@MEAA_JPEBD_J@Z:PROC ; std::basic_streambuf<char,std::char_traits<char> >::xsputn
EXTRN	__imp_?xsputn@?$basic_streambuf@DU?$char_traits@D@std@@@std@@MEAA_JPEBD_J@Z:PROC
EXTRN	?xsgetn@?$basic_streambuf@DU?$char_traits@D@std@@@std@@MEAA_JPEAD_J@Z:PROC ; std::basic_streambuf<char,std::char_traits<char> >::xsgetn
EXTRN	__imp_?xsgetn@?$basic_streambuf@DU?$char_traits@D@std@@@std@@MEAA_JPEAD_J@Z:PROC
EXTRN	?uflow@?$basic_streambuf@DU?$char_traits@D@std@@@std@@MEAAHXZ:PROC ; std::basic_streambuf<char,std::char_traits<char> >::uflow
EXTRN	__imp_?uflow@?$basic_streambuf@DU?$char_traits@D@std@@@std@@MEAAHXZ:PROC
EXTRN	?showmanyc@?$basic_streambuf@DU?$char_traits@D@std@@@std@@MEAA_JXZ:PROC ; std::basic_streambuf<char,std::char_traits<char> >::showmanyc
EXTRN	__imp_?showmanyc@?$basic_streambuf@DU?$char_traits@D@std@@@std@@MEAA_JXZ:PROC
EXTRN	?_Unlock@?$basic_streambuf@DU?$char_traits@D@std@@@std@@UEAAXXZ:PROC ; std::basic_streambuf<char,std::char_traits<char> >::_Unlock
EXTRN	__imp_?_Unlock@?$basic_streambuf@DU?$char_traits@D@std@@@std@@UEAAXXZ:PROC
EXTRN	?_Lock@?$basic_streambuf@DU?$char_traits@D@std@@@std@@UEAAXXZ:PROC ; std::basic_streambuf<char,std::char_traits<char> >::_Lock
EXTRN	__imp_?_Lock@?$basic_streambuf@DU?$char_traits@D@std@@@std@@UEAAXXZ:PROC
EXTRN	__imp_?sgetc@?$basic_streambuf@DU?$char_traits@D@std@@@std@@QEAAHXZ:PROC
EXTRN	__imp_?sbumpc@?$basic_streambuf@DU?$char_traits@D@std@@@std@@QEAAHXZ:PROC
EXTRN	__imp_??1?$basic_streambuf@DU?$char_traits@D@std@@@std@@UEAA@XZ:PROC
EXTRN	__imp_??0?$basic_iostream@DU?$char_traits@D@std@@@std@@QEAA@PEAV?$basic_streambuf@DU?$char_traits@D@std@@@1@@Z:PROC
EXTRN	__imp_?_Ipfx@?$basic_istream@DU?$char_traits@D@std@@@std@@QEAA_N_N@Z:PROC
EXTRN	__imp_??0?$basic_ios@DU?$char_traits@D@std@@@std@@IEAA@XZ:PROC
EXTRN	__imp_?fill@?$basic_ios@DU?$char_traits@D@std@@@std@@QEBADXZ:PROC
EXTRN	__imp_?_Pnavail@?$basic_streambuf@DU?$char_traits@D@std@@@std@@IEBA_JXZ:PROC
EXTRN	__imp_?_Pninc@?$basic_streambuf@DU?$char_traits@D@std@@@std@@IEAAPEADXZ:PROC
EXTRN	__imp_?setp@?$basic_streambuf@DU?$char_traits@D@std@@@std@@IEAAXPEAD00@Z:PROC
EXTRN	__imp_?pbump@?$basic_streambuf@DU?$char_traits@D@std@@@std@@IEAAXH@Z:PROC
EXTRN	__imp_?_Gnavail@?$basic_streambuf@DU?$char_traits@D@std@@@std@@IEBA_JXZ:PROC
EXTRN	__imp_?_Gninc@?$basic_streambuf@DU?$char_traits@D@std@@@std@@IEAAPEADXZ:PROC
EXTRN	__imp_?_Gndec@?$basic_streambuf@DU?$char_traits@D@std@@@std@@IEAAPEADXZ:PROC
EXTRN	__imp_?epptr@?$basic_streambuf@DU?$char_traits@D@std@@@std@@IEBAPEADXZ:PROC
EXTRN	__imp_?setg@?$basic_streambuf@DU?$char_traits@D@std@@@std@@IEAAXPEAD00@Z:PROC
EXTRN	__imp_?gbump@?$basic_streambuf@DU?$char_traits@D@std@@@std@@IEAAXH@Z:PROC
EXTRN	__imp_?egptr@?$basic_streambuf@DU?$char_traits@D@std@@@std@@IEBAPEADXZ:PROC
EXTRN	__imp_?pptr@?$basic_streambuf@DU?$char_traits@D@std@@@std@@IEBAPEADXZ:PROC
EXTRN	__imp_?gptr@?$basic_streambuf@DU?$char_traits@D@std@@@std@@IEBAPEADXZ:PROC
EXTRN	__imp_?eback@?$basic_streambuf@DU?$char_traits@D@std@@@std@@IEBAPEADXZ:PROC
EXTRN	__imp_??0?$basic_streambuf@DU?$char_traits@D@std@@@std@@IEAA@XZ:PROC
EXTRN	__imp_?out@?$codecvt@DDU_Mbstatet@@@std@@QEBAHAEAU_Mbstatet@@PEBD1AEAPEBDPEAD3AEAPEAD@Z:PROC
EXTRN	__imp_?in@?$codecvt@DDU_Mbstatet@@@std@@QEBAHAEAU_Mbstatet@@PEBD1AEAPEBDPEAD3AEAPEAD@Z:PROC
EXTRN	__imp_?swap@?$basic_iostream@DU?$char_traits@D@std@@@std@@IEAAXAEAV12@@Z:PROC
EXTRN	__imp_?flush@?$basic_ostream@DU?$char_traits@D@std@@@std@@QEAAAEAV12@XZ:PROC
EXTRN	__imp_?_Osfx@?$basic_ostream@DU?$char_traits@D@std@@@std@@QEAAXXZ:PROC
EXTRN	__imp_?widen@?$basic_ios@DU?$char_traits@D@std@@@std@@QEBADD@Z:PROC
EXTRN	__imp_?tie@?$basic_ios@DU?$char_traits@D@std@@@std@@QEBAPEAV?$basic_ostream@DU?$char_traits@D@std@@@2@XZ:PROC
EXTRN	__imp_?_Init@?$basic_streambuf@DU?$char_traits@D@std@@@std@@IEAAXPEAPEAD0PEAH001@Z:PROC
EXTRN	__imp_?_Init@?$basic_streambuf@DU?$char_traits@D@std@@@std@@IEAAXXZ:PROC
EXTRN	__imp_?setp@?$basic_streambuf@DU?$char_traits@D@std@@@std@@IEAAXPEAD0@Z:PROC
EXTRN	__imp_?snextc@?$basic_streambuf@DU?$char_traits@D@std@@@std@@QEAAHXZ:PROC
EXTRN	__imp_?getloc@?$basic_streambuf@DU?$char_traits@D@std@@@std@@QEBA?AVlocale@2@XZ:PROC
EXTRN	__imp_?unshift@?$codecvt@DDU_Mbstatet@@@std@@QEBAHAEAU_Mbstatet@@PEAD1AEAPEAD@Z:PROC
EXTRN	__imp_?pbase@?$basic_streambuf@DU?$char_traits@D@std@@@std@@IEBAPEADXZ:PROC
EXTRN	__imp_?sputc@?$basic_streambuf@DU?$char_traits@D@std@@@std@@QEAAHD@Z:PROC
EXTRN	__imp_?swap@?$basic_streambuf@DU?$char_traits@D@std@@@std@@IEAAXAEAV12@@Z:PROC
EXTRN	__imp_?put@?$basic_ostream@DU?$char_traits@D@std@@@std@@QEAAAEAV12@D@Z:PROC
EXTRN	__imp_?sputn@?$basic_streambuf@DU?$char_traits@D@std@@@std@@QEAA_JPEBD_J@Z:PROC
EXTRN	__imp_?_Getcat@?$codecvt@DDU_Mbstatet@@@std@@SA_KPEAPEBVfacet@locale@2@PEBV42@@Z:PROC
EXTRN	__imp_FT_Set_Pixel_Sizes:PROC
EXTRN	__imp__get_stream_buffer_pointers:PROC
EXTRN	??_L@YAXPEAX_K1P6AX0@Z2@Z:PROC			; `eh vector constructor iterator'
EXTRN	__imp__invalid_parameter_noinfo_noreturn:PROC
EXTRN	__imp__Mtx_unlock:PROC
EXTRN	__imp__fseeki64:PROC
EXTRN	glfwWindowShouldClose:PROC
EXTRN	__imp_fread:PROC
EXTRN	glfwSetWindowSize:PROC
EXTRN	glfwSetWindowSizeCallback:PROC
EXTRN	??_7type_info@@6B@:BYTE				; type_info::`vftable'
EXTRN	__imp_FT_Load_Glyph:PROC
EXTRN	__imp_fminf:PROC
EXTRN	__imp_fsetpos:PROC
EXTRN	__imp_copysignf:PROC
EXTRN	glfwGetCursorPos:PROC
EXTRN	__imp_strchr:PROC
EXTRN	__imp_fmaxf:PROC
EXTRN	__imp_feof:PROC
EXTRN	__imp___std_terminate:PROC
EXTRN	__imp_strspn:PROC
EXTRN	__imp_ungetc:PROC
EXTRN	__imp_atoi:PROC
EXTRN	glfwGetPrimaryMonitor:PROC
EXTRN	__imp_ldexp:PROC
EXTRN	glfwSetWindowTitle:PROC
EXTRN	__imp_setvbuf:PROC
EXTRN	glfwGetGamepadState:PROC
EXTRN	__imp_??0Importer@Assimp@@QEAA@XZ:PROC
EXTRN	__imp_??1Importer@Assimp@@QEAA@XZ:PROC
EXTRN	__imp_?ReadFile@Importer@Assimp@@QEAAPEBUaiScene@@PEBDI@Z:PROC
EXTRN	__imp_?FreeScene@Importer@Assimp@@QEAAXXZ:PROC
EXTRN	__imp_fgetpos:PROC
EXTRN	__imp_strtol:PROC
EXTRN	__imp_?createIrrKlangDevice@irrklang@@YAPEAVISoundEngine@1@W4E_SOUND_OUTPUT_DRIVER@1@HPEBD1@Z:PROC
EXTRN	__imp_fopen_s:PROC
EXTRN	__imp_FT_Init_FreeType:PROC
EXTRN	__imp__errno:PROC
EXTRN	glfwSetCursorPos:PROC
EXTRN	__imp__Cnd_do_broadcast_at_thread_exit:PROC
EXTRN	__imp_fwrite:PROC
EXTRN	__imp__lock_file:PROC
EXTRN	__imp__Mtx_init_in_situ:PROC
EXTRN	__imp__unlock_file:PROC
EXTRN	__imp__Mtx_lock:PROC
EXTRN	glfwMakeContextCurrent:PROC
EXTRN	__imp_terminate:PROC
EXTRN	glfwSetInputMode:PROC
EXTRN	glfwWindowHint:PROC
EXTRN	__imp__purecall:PROC
EXTRN	__imp___stdio_common_vfprintf:PROC
EXTRN	??3@YAXPEAX_K@Z:PROC				; operator delete
EXTRN	glfwCreateWindow:PROC
EXTRN	__imp_fgetc:PROC
EXTRN	glfwSetWindowShouldClose:PROC
EXTRN	atexit:PROC
EXTRN	__imp__Mtx_destroy_in_situ:PROC
EXTRN	__imp_strcspn:PROC
EXTRN	__imp_FT_Done_Face:PROC
EXTRN	__imp_rand:PROC
EXTRN	glfwInit:PROC
EXTRN	__imp___std_exception_copy:PROC
EXTRN	??_M@YAXPEAX_K1P6AX0@Z@Z:PROC			; `eh vector destructor iterator'
EXTRN	glfwPollEvents:PROC
EXTRN	__imp_tolower:PROC
EXTRN	__imp_FT_Done_FreeType:PROC
EXTRN	glfwGetWindowSize:PROC
EXTRN	__imp_fseek:PROC
EXTRN	__imp_realloc:PROC
EXTRN	glfwTerminate:PROC
EXTRN	glfwGetMouseButton:PROC
EXTRN	__imp__beginthreadex:PROC
EXTRN	__imp_?_Xlength_error@std@@YAXPEBD@Z:PROC
EXTRN	__imp_?id@?$ctype@D@std@@2V0locale@2@A:QWORD
EXTRN	__imp_?_Fiopen@std@@YAPEAU_iobuf@@PEBDHH@Z:PROC
EXTRN	?_Facet_Register@std@@YAXPEAV_Facet_base@1@@Z:PROC ; std::_Facet_Register
EXTRN	__imp_?id@?$codecvt@DDU_Mbstatet@@@std@@2V0locale@2@A:QWORD
EXTRN	__imp_?_Xout_of_range@std@@YAXPEBD@Z:PROC
EXTRN	__imp_?_Xinvalid_argument@std@@YAXPEBD@Z:PROC
EXTRN	__imp_?_Xbad_alloc@std@@YAXXZ:PROC
EXTRN	__imp_?cin@std@@3V?$basic_istream@DU?$char_traits@D@std@@@1@A:BYTE
EXTRN	__imp_?uncaught_exception@std@@YA_NXZ:PROC
EXTRN	__imp_?_Getgloballocale@locale@std@@CAPEAV_Locimp@12@XZ:PROC
EXTRN	__imp_?cout@std@@3V?$basic_ostream@DU?$char_traits@D@std@@@1@A:BYTE
EXTRN	__imp_?_Throw_Cpp_error@std@@YAXH@Z:PROC
EXTRN	__imp_??0_Lockit@std@@QEAA@H@Z:PROC
EXTRN	__imp_??1_Lockit@std@@QEAA@XZ:PROC
EXTRN	__imp_fclose:PROC
EXTRN	__imp_FT_New_Face:PROC
EXTRN	??2@YAPEAX_K@Z:PROC				; operator new
EXTRN	__imp_fflush:PROC
EXTRN	glfwGetVideoMode:PROC
EXTRN	glfwGetKey:PROC
EXTRN	__imp___acrt_iob_func:PROC
EXTRN	__imp_FT_Get_Char_Index:PROC
EXTRN	glfwGetTime:PROC
EXTRN	__imp_ferror:PROC
EXTRN	__report_rangecheckfailure:PROC
EXTRN	__imp_fputc:PROC
EXTRN	glfwSwapInterval:PROC
EXTRN	__imp___std_exception_destroy:PROC
EXTRN	__imp_ftell:PROC
EXTRN	glfwSwapBuffers:PROC
EXTRN	__imp___CxxFrameHandler4:PROC
EXTRN	_purecall:PROC
?Camera_Up_Direction@@3U?$vec@$02M$0A@@glm@@A DB 0cH DUP (?) ; Camera_Up_Direction
?Forwards@Controls@@3EA DB 01H DUP (?)			; Controls::Forwards
	ALIGN	4

?Text_Shader@@3VShader@@A DD 01H DUP (?)		; Text_Shader
?Player_Viewmodel_Walk_Magnitude@@3MA DD 01H DUP (?)	; Player_Viewmodel_Walk_Magnitude
?Loading_Screen_Spiral_Shader@@3VShader@@A DD 01H DUP (?) ; Loading_Screen_Spiral_Shader
?UI_Shader@@3VShader@@A DD 01H DUP (?)			; UI_Shader
?Frame_Counter@@3_KA DQ 01H DUP (?)			; Frame_Counter
?Threads_Working_On_Physics@Physics@@3DA DB 01H DUP (?)	; Physics::Threads_Working_On_Physics
	ALIGN	4

?Jump_Timer@@3MA DD 01H DUP (?)				; Jump_Timer
?Last_Job_Submitted_Index@Job_System@@3EA DB 01H DUP (?) ; Job_System::Last_Job_Submitted_Index
	ALIGN	4

?Working@Job_System@@3_NA DB 01H DUP (?)		; Job_System::Working
	ALIGN	4

?stbi__unpremultiply_on_load_global@@3HA DD 01H DUP (?)	; stbi__unpremultiply_on_load_global
	ALIGN	8

?Leaf_Nodes@Lighting_BVH@@3PAULeaf_Node@1@A DQ 040H DUP (?) ; Lighting_BVH::Leaf_Nodes
?Camera_Uniform_Location@@3UCamera_Uniform_Location_Object@@A DB 010H DUP (?) ; Camera_Uniform_Location
?Window@@3PEAUGLFWwindow@@EA DQ 01H DUP (?)		; Window
?Cursor@@3U?$vec@$01M$0A@@glm@@A DQ 01H DUP (?)		; Cursor
?Scene_Object_Shader@@3VShader@@A DD 01H DUP (?)	; Scene_Object_Shader
?Inputs@@3PA_NA DB 0cH DUP (?)				; Inputs
?Light_Uniform_Location@@3ULight_Uniform_Location_Object@@A DB 010H DUP (?) ; Light_Uniform_Location
?Loading_Progress@Context_Interface@@3_KA DQ 01H DUP (?) ; Context_Interface::Loading_Progress
?Loading_Progress_Total@Context_Interface@@3_KA DQ 01H DUP (?) ; Context_Interface::Loading_Progress_Total
?Player_Desired_Item@@3PEAVItem@@EA DQ 01H DUP (?)	; Player_Desired_Item
?Player_Object_Spawn_Timer@@3MA DD 01H DUP (?)		; Player_Object_Spawn_Timer
?Light_Uniforms@@3VLight_Uniform_Buffer@@A DB 0600H DUP (?) ; Light_Uniforms
?Loading_Screen_Background_Shader@@3VShader@@A DD 01H DUP (?) ; Loading_Screen_Background_Shader
?Mouse_Last_Clicked_Flags@@3PA_NA DB 02H DUP (?)	; Mouse_Last_Clicked_Flags
	ALIGN	4

?Position_Buffer_Texture@Post_Processor@@3IA DD 01H DUP (?) ; Post_Processor::Position_Buffer_Texture
?Deferred_Lighting_Uniform_Locations@Post_Processor@@3ULight_Uniform_Location_Object@@A DB 010H DUP (?) ; Post_Processor::Deferred_Lighting_Uniform_Locations
?Frame_Buffer_ID@Post_Processor@@3IA DD 01H DUP (?)	; Post_Processor::Frame_Buffer_ID
?Material_Buffer_Texture@Post_Processor@@3IA DD 01H DUP (?) ; Post_Processor::Material_Buffer_Texture
?Camera_Uniform_Locations@Post_Processor@@3UCamera_Uniform_Location_Object@@A DB 010H DUP (?) ; Post_Processor::Camera_Uniform_Locations
?Shader_Program@Post_Processor@@3VShader@@A DD 01H DUP (?) ; Post_Processor::Shader_Program
?Shader_Time@Post_Processor@@3MA DD 01H DUP (?)		; Post_Processor::Shader_Time
?Frame_Buffer_Texture@Post_Processor@@3IA DD 01H DUP (?) ; Post_Processor::Frame_Buffer_Texture
?Normal_Buffer_Texture@Post_Processor@@3IA DD 01H DUP (?) ; Post_Processor::Normal_Buffer_Texture
?Render_Buffer_ID@Post_Processor@@3IA DD 01H DUP (?)	; Post_Processor::Render_Buffer_ID
_BSS	ENDS
;	COMDAT ?_Psave@?$_Facetptr@V?$codecvt@DDU_Mbstatet@@@std@@@std@@2PEBVfacet@locale@2@EB
_BSS	SEGMENT
?_Psave@?$_Facetptr@V?$codecvt@DDU_Mbstatet@@@std@@@std@@2PEBVfacet@locale@2@EB DQ 01H DUP (?) ; std::_Facetptr<std::codecvt<char,char,_Mbstatet> >::_Psave
_BSS	ENDS
;	COMDAT ?_Psave@?$_Facetptr@V?$ctype@D@std@@@std@@2PEBVfacet@locale@2@EB
_BSS	SEGMENT
?_Psave@?$_Facetptr@V?$ctype@D@std@@@std@@2PEBVfacet@locale@2@EB DQ 01H DUP (?) ; std::_Facetptr<std::ctype<char> >::_Psave
?stbi__de_iphone_flag_global@@3HA DD 01H DUP (?)	; stbi__de_iphone_flag_global
?Player_Viewmodel_Walk_Timer@@3MA DD 01H DUP (?)	; Player_Viewmodel_Walk_Timer
?Camera_Direction@@3U?$vec@$02M$0A@@glm@@A DB 0cH DUP (?) ; Camera_Direction
?Up@Gamepad_Controls@@3EA DB 01H DUP (?)		; Gamepad_Controls::Up
	ALIGN	8

?Projection_Matrix@@3U?$mat@$03$03M$0A@@glm@@A DB 040H DUP (?) ; Projection_Matrix
?Sound_Engine@@3PEAVISoundEngine@irrklang@@EA DQ 01H DUP (?) ; Sound_Engine
?Controller_Inputs@@3UGLFWgamepadstate@@A DB 028H DUP (?) ; Controller_Inputs
?Last_Time@@3NA DQ 01H DUP (?)				; Last_Time
?Fullscreen@@3_NA DB 01H DUP (?)			; Fullscreen
	ALIGN	4

?Tick@@3MA DD	01H DUP (?)				; Tick
?Blockmap_Height@Blockmap@@3_KA DQ 01H DUP (?)		; Blockmap::Blockmap_Height
?Blockmap_A@Blockmap@@3U?$vec@$01M$0A@@glm@@A DQ 01H DUP (?) ; Blockmap::Blockmap_A
?Blockmap_Width@Blockmap@@3_KA DQ 01H DUP (?)		; Blockmap::Blockmap_Width
?Blockmap_B@Blockmap@@3U?$vec@$01M$0A@@glm@@A DQ 01H DUP (?) ; Blockmap::Blockmap_B
?Mouse_Inputs@@3PA_NA DB 02H DUP (?)			; Mouse_Inputs
	ALIGN	8

?Player_Current_Item@@3PEAVItem@@EA DQ 01H DUP (?)	; Player_Current_Item
?UI_Continue_Looping@@3_NA DB 01H DUP (?)		; UI_Continue_Looping
	ALIGN	4

?Player_Flags@@3PA_NA DB 03H DUP (?)			; Player_Flags
	ALIGN	8

?Model_Uniform_Location@@3UModel_Uniform_Location_Object@@A DQ 01H DUP (?) ; Model_Uniform_Location
?Shadow_Model_Uniform_Locations@Shadow_Mapper@@3UModel_Uniform_Location_Object@@A DQ 01H DUP (?) ; Shadow_Mapper::Shadow_Model_Uniform_Locations
?Shadow_Frame_Buffer@Shadow_Mapper@@3IA DD 01H DUP (?)	; Shadow_Mapper::Shadow_Frame_Buffer
?Shadow_Object_Shader@Shadow_Mapper@@3VShader@@A DD 01H DUP (?) ; Shadow_Mapper::Shadow_Object_Shader
?Shadow_Projection_Matrix@Shadow_Mapper@@3U?$mat@$03$03M$0A@@glm@@A DB 040H DUP (?) ; Shadow_Mapper::Shadow_Projection_Matrix
?Language_Settings_Update_Flag@@3_NA DB 01H DUP (?)	; Language_Settings_Update_Flag
	ALIGN	4

?Current_Listener_Right_Ear_Vector@@3U?$vec@$02M$0A@@glm@@A DB 0cH DUP (?) ; Current_Listener_Right_Ear_Vector
?Time_Elapsed_Since_FPS_Update@@3MA DD 01H DUP (?)	; Time_Elapsed_Since_FPS_Update
_BSS	ENDS
;	COMDAT ??_R4Physics_Object_Controller@@6B@
rdata$r	SEGMENT
??_R4Physics_Object_Controller@@6B@ DD 01H		; Physics_Object_Controller::`RTTI Complete Object Locator'
	DD	00H
	DD	00H
	DD	imagerel ??_R0?AVPhysics_Object_Controller@@@8
	DD	imagerel ??_R3Physics_Object_Controller@@8
	DD	imagerel ??_R4Physics_Object_Controller@@6B@
rdata$r	ENDS
;	COMDAT ??_R0?AVModel_Vertex_Buffer@@@8
data$rs	SEGMENT
??_R0?AVModel_Vertex_Buffer@@@8 DQ FLAT:??_7type_info@@6B@ ; Model_Vertex_Buffer `RTTI Type Descriptor'
	DQ	0000000000000000H
	DB	'.?AVModel_Vertex_Buffer@@', 00H
data$rs	ENDS
;	COMDAT ??_R4Flicker_Light_Controller@@6B@
rdata$r	SEGMENT
??_R4Flicker_Light_Controller@@6B@ DD 01H		; Flicker_Light_Controller::`RTTI Complete Object Locator'
	DD	00H
	DD	00H
	DD	imagerel ??_R0?AVFlicker_Light_Controller@@@8
	DD	imagerel ??_R3Flicker_Light_Controller@@8
	DD	imagerel ??_R4Flicker_Light_Controller@@6B@
rdata$r	ENDS
;	COMDAT ?shift_table@?1??stbi__shiftsigned@@YAHIHH@Z@4PAIA
CONST	SEGMENT
?shift_table@?1??stbi__shiftsigned@@YAHIHH@Z@4PAIA DD 00H ; `stbi__shiftsigned'::`2'::shift_table
	DD	00H
	DD	00H
	DD	01H
	DD	00H
	DD	02H
	DD	04H
	DD	06H
	DD	00H
CONST	ENDS
;	COMDAT ??_R4Model_Vertex_Buffer@@6B@
rdata$r	SEGMENT
??_R4Model_Vertex_Buffer@@6B@ DD 01H			; Model_Vertex_Buffer::`RTTI Complete Object Locator'
	DD	00H
	DD	00H
	DD	imagerel ??_R0?AVModel_Vertex_Buffer@@@8
	DD	imagerel ??_R3Model_Vertex_Buffer@@8
	DD	imagerel ??_R4Model_Vertex_Buffer@@6B@
rdata$r	ENDS
;	COMDAT ??_R0?AVUI_Fade_Effect_Controller@@@8
data$rs	SEGMENT
??_R0?AVUI_Fade_Effect_Controller@@@8 DQ FLAT:??_7type_info@@6B@ ; UI_Fade_Effect_Controller `RTTI Type Descriptor'
	DQ	0000000000000000H
	DB	'.?AVUI_Fade_Effect_Controller@@', 00H
data$rs	ENDS
;	COMDAT ??_R2Model_Vertex_Buffer@@8
rdata$r	SEGMENT
??_R2Model_Vertex_Buffer@@8 DD imagerel ??_R1A@?0A@EA@Model_Vertex_Buffer@@8 ; Model_Vertex_Buffer::`RTTI Base Class Array'
	DD	imagerel ??_R1A@?0A@EA@Base_Vertex_Buffer@@8
	ORG $+3
rdata$r	ENDS
;	COMDAT ??_R2Physics_Object_Controller@@8
rdata$r	SEGMENT
??_R2Physics_Object_Controller@@8 DD imagerel ??_R1A@?0A@EA@Physics_Object_Controller@@8 ; Physics_Object_Controller::`RTTI Base Class Array'
	DD	imagerel ??_R1A@?0A@EA@Controller@@8
	ORG $+3
rdata$r	ENDS
;	COMDAT ??_R2AABB_Hitbox@@8
rdata$r	SEGMENT
??_R2AABB_Hitbox@@8 DD imagerel ??_R1A@?0A@EA@AABB_Hitbox@@8 ; AABB_Hitbox::`RTTI Base Class Array'
	DD	imagerel ??_R1A@?0A@EA@Hitbox@@8
	ORG $+3
rdata$r	ENDS
;	COMDAT ??_R0?AVbad_array_new_length@std@@@8
data$r	SEGMENT
??_R0?AVbad_array_new_length@std@@@8 DQ FLAT:??_7type_info@@6B@ ; std::bad_array_new_length `RTTI Type Descriptor'
	DQ	0000000000000000H
	DB	'.?AVbad_array_new_length@std@@', 00H
data$r	ENDS
;	COMDAT ??_R2?$basic_ios@DU?$char_traits@D@std@@@std@@8
rdata$r	SEGMENT
??_R2?$basic_ios@DU?$char_traits@D@std@@@std@@8 DD imagerel ??_R1A@?0A@EA@?$basic_ios@DU?$char_traits@D@std@@@std@@8 ; std::basic_ios<char,std::char_traits<char> >::`RTTI Base Class Array'
	DD	imagerel ??_R1A@?0A@EA@ios_base@std@@8
	DD	imagerel ??_R17?0A@EA@?$_Iosb@H@std@@8
	ORG $+3
rdata$r	ENDS
;	COMDAT ??_R0?AVTest_Enemy_Controller@@@8
data$rs	SEGMENT
??_R0?AVTest_Enemy_Controller@@@8 DQ FLAT:??_7type_info@@6B@ ; Test_Enemy_Controller `RTTI Type Descriptor'
	DQ	0000000000000000H
	DB	'.?AVTest_Enemy_Controller@@', 00H
data$rs	ENDS
;	COMDAT ??_R3UI_Fade_Out_Effect_Controller@@8
rdata$r	SEGMENT
??_R3UI_Fade_Out_Effect_Controller@@8 DD 00H		; UI_Fade_Out_Effect_Controller::`RTTI Class Hierarchy Descriptor'
	DD	00H
	DD	02H
	DD	imagerel ??_R2UI_Fade_Out_Effect_Controller@@8
rdata$r	ENDS
;	COMDAT ??_R3AABB_Hitbox@@8
rdata$r	SEGMENT
??_R3AABB_Hitbox@@8 DD 00H				; AABB_Hitbox::`RTTI Class Hierarchy Descriptor'
	DD	00H
	DD	02H
	DD	imagerel ??_R2AABB_Hitbox@@8
rdata$r	ENDS
;	COMDAT ??_R2Damageable_Vent_Controller@@8
rdata$r	SEGMENT
??_R2Damageable_Vent_Controller@@8 DD imagerel ??_R1A@?0A@EA@Damageable_Vent_Controller@@8 ; Damageable_Vent_Controller::`RTTI Base Class Array'
	DD	imagerel ??_R1A@?0A@EA@Damageable_Controller@@8
	DD	imagerel ??_R1A@?0A@EA@Controller@@8
	ORG $+3
rdata$r	ENDS
;	COMDAT ??_R2Billboard_Vertex_Buffer@@8
rdata$r	SEGMENT
??_R2Billboard_Vertex_Buffer@@8 DD imagerel ??_R1A@?0A@EA@Billboard_Vertex_Buffer@@8 ; Billboard_Vertex_Buffer::`RTTI Base Class Array'
	DD	imagerel ??_R1A@?0A@EA@Base_Vertex_Buffer@@8
	ORG $+3
rdata$r	ENDS
;	COMDAT ??_R3Damageable_Controller@@8
rdata$r	SEGMENT
??_R3Damageable_Controller@@8 DD 00H			; Damageable_Controller::`RTTI Class Hierarchy Descriptor'
	DD	00H
	DD	02H
	DD	imagerel ??_R2Damageable_Controller@@8
rdata$r	ENDS
;	COMDAT ??_7Damageable_Vent_Controller@@6B@
CONST	SEGMENT
??_7Damageable_Vent_Controller@@6B@ DQ FLAT:??_R4Damageable_Vent_Controller@@6B@ ; Damageable_Vent_Controller::`vftable'
	DQ	FLAT:?Control_Function@Damageable_Vent_Controller@@UEAAXXZ
	DQ	FLAT:?Initialise_Control@Damageable_Vent_Controller@@UEAAXPEAVModel@@@Z
	DQ	FLAT:?Damage@Damageable_Vent_Controller@@UEAAXMW4Damage_Source@Damageable_Controller@@@Z
CONST	ENDS
;	COMDAT ??_7Controller@@6B@
CONST	SEGMENT
??_7Controller@@6B@ DQ FLAT:??_R4Controller@@6B@	; Controller::`vftable'
	DQ	FLAT:?Control_Function@Controller@@UEAAXXZ
	DQ	FLAT:?Initialise_Control@Controller@@UEAAXPEAVModel@@@Z
CONST	ENDS
;	COMDAT ??_R17?0A@EA@?$_Iosb@H@std@@8
rdata$r	SEGMENT
??_R17?0A@EA@?$_Iosb@H@std@@8 DD imagerel ??_R0?AV?$_Iosb@H@std@@@8 ; std::_Iosb<int>::`RTTI Base Class Descriptor at (8,-1,0,64)'
	DD	00H
	DD	08H
	DD	0ffffffffH
	DD	00H
	DD	040H
	DD	imagerel ??_R3?$_Iosb@H@std@@8
rdata$r	ENDS
;	COMDAT ??_R0?AVexception@std@@@8
data$r	SEGMENT
??_R0?AVexception@std@@@8 DQ FLAT:??_7type_info@@6B@	; std::exception `RTTI Type Descriptor'
	DQ	0000000000000000H
	DB	'.?AVexception@std@@', 00H
data$r	ENDS
;	COMDAT ??_7UI_Element@@6B@
CONST	SEGMENT
??_7UI_Element@@6B@ DQ FLAT:??_R4UI_Element@@6B@	; UI_Element::`vftable'
	DQ	FLAT:?Render_Border@UI_Element@@UEAAXVUI_Transformed_Coordinates@@@Z
	DQ	FLAT:?Render@UI_Element@@UEAAXVUI_Transformed_Coordinates@@@Z
	DQ	FLAT:?Update_UI@UI_Element@@UEAAXXZ
CONST	ENDS
;	COMDAT ??_7?$basic_istringstream@DU?$char_traits@D@std@@V?$allocator@D@2@@std@@6B@
CONST	SEGMENT
??_7?$basic_istringstream@DU?$char_traits@D@std@@V?$allocator@D@2@@std@@6B@ DQ FLAT:??_R4?$basic_istringstream@DU?$char_traits@D@std@@V?$allocator@D@2@@std@@6B@ ; std::basic_istringstream<char,std::char_traits<char>,std::allocator<char> >::`vftable'
	DQ	FLAT:??_E?$basic_istringstream@DU?$char_traits@D@std@@V?$allocator@D@2@@std@@$4PPPPPPPM@A@EAAPEAXI@Z
CONST	ENDS
;	COMDAT ??_R3?$_Iosb@H@std@@8
rdata$r	SEGMENT
??_R3?$_Iosb@H@std@@8 DD 00H				; std::_Iosb<int>::`RTTI Class Hierarchy Descriptor'
	DD	00H
	DD	01H
	DD	imagerel ??_R2?$_Iosb@H@std@@8
rdata$r	ENDS
;	COMDAT ??_R2Decal_Vertex_Buffer@@8
rdata$r	SEGMENT
??_R2Decal_Vertex_Buffer@@8 DD imagerel ??_R1A@?0A@EA@Decal_Vertex_Buffer@@8 ; Decal_Vertex_Buffer::`RTTI Base Class Array'
	DD	imagerel ??_R1A@?0A@EA@Base_Vertex_Buffer@@8
	ORG $+3
rdata$r	ENDS
;	COMDAT ??_R2?$basic_ifstream@DU?$char_traits@D@std@@@std@@8
rdata$r	SEGMENT
??_R2?$basic_ifstream@DU?$char_traits@D@std@@@std@@8 DD imagerel ??_R1A@?0A@EA@?$basic_ifstream@DU?$char_traits@D@std@@@std@@8 ; std::basic_ifstream<char,std::char_traits<char> >::`RTTI Base Class Array'
	DD	imagerel ??_R1A@?0A@EA@?$basic_istream@DU?$char_traits@D@std@@@std@@8
	DD	imagerel ??_R1A@A@3FA@?$basic_ios@DU?$char_traits@D@std@@@std@@8
	DD	imagerel ??_R1A@A@3EA@ios_base@std@@8
	DD	imagerel ??_R17A@3EA@?$_Iosb@H@std@@8
	ORG $+3
rdata$r	ENDS
;	COMDAT ??_7Text_UI_Element@@6B@
CONST	SEGMENT
??_7Text_UI_Element@@6B@ DQ FLAT:??_R4Text_UI_Element@@6B@ ; Text_UI_Element::`vftable'
	DQ	FLAT:?Render_Border@UI_Element@@UEAAXVUI_Transformed_Coordinates@@@Z
	DQ	FLAT:?Render@Text_UI_Element@@UEAAXVUI_Transformed_Coordinates@@@Z
	DQ	FLAT:?Update_UI@UI_Element@@UEAAXXZ
	DQ	FLAT:?Render_Text@Text_UI_Element@@UEAAXV?$basic_string@DU?$char_traits@D@std@@V?$allocator@D@2@@std@@VUI_Transformed_Coordinates@@M@Z
CONST	ENDS
;	COMDAT ??_R4Text_UI_Element@@6B@
rdata$r	SEGMENT
??_R4Text_UI_Element@@6B@ DD 01H			; Text_UI_Element::`RTTI Complete Object Locator'
	DD	00H
	DD	00H
	DD	imagerel ??_R0?AVText_UI_Element@@@8
	DD	imagerel ??_R3Text_UI_Element@@8
	DD	imagerel ??_R4Text_UI_Element@@6B@
rdata$r	ENDS
;	COMDAT _TI3?AVbad_array_new_length@std@@
xdata$x	SEGMENT
_TI3?AVbad_array_new_length@std@@ DD 00H
	DD	imagerel ??1bad_array_new_length@std@@UEAA@XZ
	DD	00H
	DD	imagerel _CTA3?AVbad_array_new_length@std@@
xdata$x	ENDS
;	COMDAT ??_R1A@?0A@EA@?$basic_ios@DU?$char_traits@D@std@@@std@@8
rdata$r	SEGMENT
??_R1A@?0A@EA@?$basic_ios@DU?$char_traits@D@std@@@std@@8 DD imagerel ??_R0?AV?$basic_ios@DU?$char_traits@D@std@@@std@@@8 ; std::basic_ios<char,std::char_traits<char> >::`RTTI Base Class Descriptor at (0,-1,0,64)'
	DD	02H
	DD	00H
	DD	0ffffffffH
	DD	00H
	DD	040H
	DD	imagerel ??_R3?$basic_ios@DU?$char_traits@D@std@@@std@@8
rdata$r	ENDS
;	COMDAT ??_7Sphere_Hitbox@@6B@
CONST	SEGMENT
??_7Sphere_Hitbox@@6B@ DQ FLAT:??_R4Sphere_Hitbox@@6B@	; Sphere_Hitbox::`vftable'
	DQ	FLAT:?Hitdetection@Sphere_Hitbox@@UEAA?AVCollision_Info@@PEAVHitbox@@@Z
	DQ	FLAT:?AABB_Hitdetection@Sphere_Hitbox@@UEAA?AVCollision_Info@@PEAVAABB_Hitbox@@@Z
	DQ	FLAT:?Sphere_Hitdetection@Sphere_Hitbox@@UEAA?AVCollision_Info@@PEAV1@@Z
	DQ	FLAT:?Mesh_Hitdetection@Sphere_Hitbox@@UEAA?AVCollision_Info@@PEAVMesh_Hitbox@@@Z
	DQ	FLAT:?Get_Bounds@Sphere_Hitbox@@UEAA?AUBlockmap_Bounds@@XZ
	DQ	FLAT:?Update_Hitbox@Hitbox@@UEAAXXZ
CONST	ENDS
;	COMDAT ??_R1A@A@3EA@ios_base@std@@8
rdata$r	SEGMENT
??_R1A@A@3EA@ios_base@std@@8 DD imagerel ??_R0?AVios_base@std@@@8 ; std::ios_base::`RTTI Base Class Descriptor at (0,0,4,64)'
	DD	01H
	DD	00H
	DD	00H
	DD	04H
	DD	040H
	DD	imagerel ??_R3ios_base@std@@8
rdata$r	ENDS
;	COMDAT _CT??_R0?AVexception@std@@@8??0exception@std@@QEAA@AEBV01@@Z24
xdata$x	SEGMENT
_CT??_R0?AVexception@std@@@8??0exception@std@@QEAA@AEBV01@@Z24 DD 00H
	DD	imagerel ??_R0?AVexception@std@@@8
	DD	00H
	DD	0ffffffffH
	ORG $+4
	DD	018H
	DD	imagerel ??0exception@std@@QEAA@AEBV01@@Z
xdata$x	ENDS
;	COMDAT ??_R2?$_Iosb@H@std@@8
rdata$r	SEGMENT
??_R2?$_Iosb@H@std@@8 DD imagerel ??_R1A@?0A@EA@?$_Iosb@H@std@@8 ; std::_Iosb<int>::`RTTI Base Class Array'
	ORG $+3
rdata$r	ENDS
;	COMDAT ??_R1A@?0A@EA@Test_Enemy_Controller@@8
rdata$r	SEGMENT
??_R1A@?0A@EA@Test_Enemy_Controller@@8 DD imagerel ??_R0?AVTest_Enemy_Controller@@@8 ; Test_Enemy_Controller::`RTTI Base Class Descriptor at (0,-1,0,64)'
	DD	02H
	DD	00H
	DD	0ffffffffH
	DD	00H
	DD	040H
	DD	imagerel ??_R3Test_Enemy_Controller@@8
rdata$r	ENDS
;	COMDAT ??_7?$basic_ifstream@DU?$char_traits@D@std@@@std@@6B@
CONST	SEGMENT
??_7?$basic_ifstream@DU?$char_traits@D@std@@@std@@6B@ DQ FLAT:??_R4?$basic_ifstream@DU?$char_traits@D@std@@@std@@6B@ ; std::basic_ifstream<char,std::char_traits<char> >::`vftable'
	DQ	FLAT:??_E?$basic_ifstream@DU?$char_traits@D@std@@@std@@$4PPPPPPPM@A@EAAPEAXI@Z
CONST	ENDS
;	COMDAT ??_R3Door_Controller@@8
rdata$r	SEGMENT
??_R3Door_Controller@@8 DD 00H				; Door_Controller::`RTTI Class Hierarchy Descriptor'
	DD	00H
	DD	02H
	DD	imagerel ??_R2Door_Controller@@8
rdata$r	ENDS
;	COMDAT ??_R0?AVAABB_Hitbox@@@8
data$rs	SEGMENT
??_R0?AVAABB_Hitbox@@@8 DQ FLAT:??_7type_info@@6B@	; AABB_Hitbox `RTTI Type Descriptor'
	DQ	0000000000000000H
	DB	'.?AVAABB_Hitbox@@', 00H
data$rs	ENDS
;	COMDAT ??_R3?$basic_stringstream@DU?$char_traits@D@std@@V?$allocator@D@2@@std@@8
rdata$r	SEGMENT
??_R3?$basic_stringstream@DU?$char_traits@D@std@@V?$allocator@D@2@@std@@8 DD 00H ; std::basic_stringstream<char,std::char_traits<char>,std::allocator<char> >::`RTTI Class Hierarchy Descriptor'
	DD	03H
	DD	0aH
	DD	imagerel ??_R2?$basic_stringstream@DU?$char_traits@D@std@@V?$allocator@D@2@@std@@8
rdata$r	ENDS
;	COMDAT ??_R1A@?0A@EA@Text_UI_Element@@8
rdata$r	SEGMENT
??_R1A@?0A@EA@Text_UI_Element@@8 DD imagerel ??_R0?AVText_UI_Element@@@8 ; Text_UI_Element::`RTTI Base Class Descriptor at (0,-1,0,64)'
	DD	01H
	DD	00H
	DD	0ffffffffH
	DD	00H
	DD	040H
	DD	imagerel ??_R3Text_UI_Element@@8
rdata$r	ENDS
;	COMDAT ??_R4AABB_Hitbox@@6B@
rdata$r	SEGMENT
??_R4AABB_Hitbox@@6B@ DD 01H				; AABB_Hitbox::`RTTI Complete Object Locator'
	DD	00H
	DD	00H
	DD	imagerel ??_R0?AVAABB_Hitbox@@@8
	DD	imagerel ??_R3AABB_Hitbox@@8
	DD	imagerel ??_R4AABB_Hitbox@@6B@
rdata$r	ENDS
;	COMDAT ??_R1A@?0A@EA@MaterialFileReader@tinyobj@@8
rdata$r	SEGMENT
??_R1A@?0A@EA@MaterialFileReader@tinyobj@@8 DD imagerel ??_R0?AVMaterialFileReader@tinyobj@@@8 ; tinyobj::MaterialFileReader::`RTTI Base Class Descriptor at (0,-1,0,64)'
	DD	01H
	DD	00H
	DD	0ffffffffH
	DD	00H
	DD	040H
	DD	imagerel ??_R3MaterialFileReader@tinyobj@@8
rdata$r	ENDS
;	COMDAT ??_R1A@?0A@EA@bad_array_new_length@std@@8
rdata$r	SEGMENT
??_R1A@?0A@EA@bad_array_new_length@std@@8 DD imagerel ??_R0?AVbad_array_new_length@std@@@8 ; std::bad_array_new_length::`RTTI Base Class Descriptor at (0,-1,0,64)'
	DD	02H
	DD	00H
	DD	0ffffffffH
	DD	00H
	DD	040H
	DD	imagerel ??_R3bad_array_new_length@std@@8
rdata$r	ENDS
;	COMDAT ??_R3?$basic_streambuf@DU?$char_traits@D@std@@@std@@8
rdata$r	SEGMENT
??_R3?$basic_streambuf@DU?$char_traits@D@std@@@std@@8 DD 00H ; std::basic_streambuf<char,std::char_traits<char> >::`RTTI Class Hierarchy Descriptor'
	DD	00H
	DD	01H
	DD	imagerel ??_R2?$basic_streambuf@DU?$char_traits@D@std@@@std@@8
rdata$r	ENDS
;	COMDAT ??_R2?$basic_filebuf@DU?$char_traits@D@std@@@std@@8
rdata$r	SEGMENT
??_R2?$basic_filebuf@DU?$char_traits@D@std@@@std@@8 DD imagerel ??_R1A@?0A@EA@?$basic_filebuf@DU?$char_traits@D@std@@@std@@8 ; std::basic_filebuf<char,std::char_traits<char> >::`RTTI Base Class Array'
	DD	imagerel ??_R1A@?0A@EA@?$basic_streambuf@DU?$char_traits@D@std@@@std@@8
	ORG $+3
rdata$r	ENDS
;	COMDAT ??_7Alarm_Light_Controller@@6B@
CONST	SEGMENT
??_7Alarm_Light_Controller@@6B@ DQ FLAT:??_R4Alarm_Light_Controller@@6B@ ; Alarm_Light_Controller::`vftable'
	DQ	FLAT:?Control_Function@Alarm_Light_Controller@@UEAAXXZ
	DQ	FLAT:?Initialise_Control@Alarm_Light_Controller@@UEAAXPEAVModel@@@Z
CONST	ENDS
;	COMDAT ??_R2Door_Controller@@8
rdata$r	SEGMENT
??_R2Door_Controller@@8 DD imagerel ??_R1A@?0A@EA@Door_Controller@@8 ; Door_Controller::`RTTI Base Class Array'
	DD	imagerel ??_R1A@?0A@EA@Controller@@8
	ORG $+3
rdata$r	ENDS
;	COMDAT ??_R3Controller@@8
rdata$r	SEGMENT
??_R3Controller@@8 DD 00H				; Controller::`RTTI Class Hierarchy Descriptor'
	DD	00H
	DD	01H
	DD	imagerel ??_R2Controller@@8
rdata$r	ENDS
;	COMDAT ??_R3ios_base@std@@8
rdata$r	SEGMENT
??_R3ios_base@std@@8 DD 00H				; std::ios_base::`RTTI Class Hierarchy Descriptor'
	DD	00H
	DD	02H
	DD	imagerel ??_R2ios_base@std@@8
rdata$r	ENDS
;	COMDAT ??_7Vent_Smoke_Controller@@6B@
CONST	SEGMENT
??_7Vent_Smoke_Controller@@6B@ DQ FLAT:??_R4Vent_Smoke_Controller@@6B@ ; Vent_Smoke_Controller::`vftable'
	DQ	FLAT:?Control_Function@Vent_Smoke_Controller@@UEAAXXZ
	DQ	FLAT:?Initialise_Control@Vent_Smoke_Controller@@UEAAXPEAVModel@@@Z
CONST	ENDS
;	COMDAT ??_8?$basic_stringstream@DU?$char_traits@D@std@@V?$allocator@D@2@@std@@7B?$basic_istream@DU?$char_traits@D@std@@@1@@
CONST	SEGMENT
??_8?$basic_stringstream@DU?$char_traits@D@std@@V?$allocator@D@2@@std@@7B?$basic_istream@DU?$char_traits@D@std@@@1@@ DD 00H ; std::basic_stringstream<char,std::char_traits<char>,std::allocator<char> >::`vbtable'
	DD	098H
CONST	ENDS
;	COMDAT ??_R4?$basic_istringstream@DU?$char_traits@D@std@@V?$allocator@D@2@@std@@6B@
rdata$r	SEGMENT
??_R4?$basic_istringstream@DU?$char_traits@D@std@@V?$allocator@D@2@@std@@6B@ DD 01H ; std::basic_istringstream<char,std::char_traits<char>,std::allocator<char> >::`RTTI Complete Object Locator'
	DD	090H
	DD	04H
	DD	imagerel ??_R0?AV?$basic_istringstream@DU?$char_traits@D@std@@V?$allocator@D@2@@std@@@8
	DD	imagerel ??_R3?$basic_istringstream@DU?$char_traits@D@std@@V?$allocator@D@2@@std@@8
	DD	imagerel ??_R4?$basic_istringstream@DU?$char_traits@D@std@@V?$allocator@D@2@@std@@6B@
rdata$r	ENDS
;	COMDAT ??_R1A@?0A@EA@UI_Fade_Effect_Controller@@8
rdata$r	SEGMENT
??_R1A@?0A@EA@UI_Fade_Effect_Controller@@8 DD imagerel ??_R0?AVUI_Fade_Effect_Controller@@@8 ; UI_Fade_Effect_Controller::`RTTI Base Class Descriptor at (0,-1,0,64)'
	DD	01H
	DD	00H
	DD	0ffffffffH
	DD	00H
	DD	040H
	DD	imagerel ??_R3UI_Fade_Effect_Controller@@8
rdata$r	ENDS
;	COMDAT ??_7Flicker_Light_Controller@@6B@
CONST	SEGMENT
??_7Flicker_Light_Controller@@6B@ DQ FLAT:??_R4Flicker_Light_Controller@@6B@ ; Flicker_Light_Controller::`vftable'
	DQ	FLAT:?Control_Function@Flicker_Light_Controller@@UEAAXXZ
	DQ	FLAT:?Initialise_Control@Flicker_Light_Controller@@UEAAXPEAVModel@@@Z
CONST	ENDS
;	COMDAT ??_R0?AVPistol@@@8
data$rs	SEGMENT
??_R0?AVPistol@@@8 DQ FLAT:??_7type_info@@6B@		; Pistol `RTTI Type Descriptor'
	DQ	0000000000000000H
	DB	'.?AVPistol@@', 00H
data$rs	ENDS
;	COMDAT ??_R1A@?0A@EA@?$basic_iostream@DU?$char_traits@D@std@@@std@@8
rdata$r	SEGMENT
??_R1A@?0A@EA@?$basic_iostream@DU?$char_traits@D@std@@@std@@8 DD imagerel ??_R0?AV?$basic_iostream@DU?$char_traits@D@std@@@std@@@8 ; std::basic_iostream<char,std::char_traits<char> >::`RTTI Base Class Descriptor at (0,-1,0,64)'
	DD	08H
	DD	00H
	DD	0ffffffffH
	DD	00H
	DD	040H
	DD	imagerel ??_R3?$basic_iostream@DU?$char_traits@D@std@@@std@@8
rdata$r	ENDS
;	COMDAT ??_R3?$basic_ostream@DU?$char_traits@D@std@@@std@@8
rdata$r	SEGMENT
??_R3?$basic_ostream@DU?$char_traits@D@std@@@std@@8 DD 00H ; std::basic_ostream<char,std::char_traits<char> >::`RTTI Class Hierarchy Descriptor'
	DD	00H
	DD	04H
	DD	imagerel ??_R2?$basic_ostream@DU?$char_traits@D@std@@@std@@8
rdata$r	ENDS
;	COMDAT ??_7UI_Loading_Screen_Icon_Controller@@6B@
CONST	SEGMENT
??_7UI_Loading_Screen_Icon_Controller@@6B@ DQ FLAT:??_R4UI_Loading_Screen_Icon_Controller@@6B@ ; UI_Loading_Screen_Icon_Controller::`vftable'
	DQ	FLAT:?Control_Function@UI_Loading_Screen_Icon_Controller@@UEAAXPEAVUI_Element@@@Z
CONST	ENDS
;	COMDAT ?pow_lut@?CD@??tryParseDouble@tinyobj@@YA_NPEBD0PEAN@Z@4QBNB
CONST	SEGMENT
?pow_lut@?CD@??tryParseDouble@tinyobj@@YA_NPEBD0PEAN@Z@4QBNB DQ 03ff0000000000000r ; 1 ; `tinyobj::tryParseDouble'::`35'::pow_lut
	DQ	03fb999999999999ar		; 0.1
	DQ	03f847ae147ae147br		; 0.01
	DQ	03f50624dd2f1a9fcr		; 0.001
	DQ	03f1a36e2eb1c432dr		; 0.0001
	DQ	03ee4f8b588e368f1r		; 1e-05
	DQ	03eb0c6f7a0b5ed8dr		; 1e-06
	DQ	03e7ad7f29abcaf48r		; 1e-07
CONST	ENDS
;	COMDAT ??_R2ios_base@std@@8
rdata$r	SEGMENT
??_R2ios_base@std@@8 DD imagerel ??_R1A@?0A@EA@ios_base@std@@8 ; std::ios_base::`RTTI Base Class Array'
	DD	imagerel ??_R17?0A@EA@?$_Iosb@H@std@@8
	ORG $+3
rdata$r	ENDS
;	COMDAT ??_R0?AV?$basic_ostream@DU?$char_traits@D@std@@@std@@@8
data$rs	SEGMENT
??_R0?AV?$basic_ostream@DU?$char_traits@D@std@@@std@@@8 DQ FLAT:??_7type_info@@6B@ ; std::basic_ostream<char,std::char_traits<char> > `RTTI Type Descriptor'
	DQ	0000000000000000H
	DB	'.?AV?$basic_ostream@DU?$char_traits@D@std@@@std@@', 00H
data$rs	ENDS
;	COMDAT ??_R0?AVBase_Vertex_Buffer@@@8
data$rs	SEGMENT
??_R0?AVBase_Vertex_Buffer@@@8 DQ FLAT:??_7type_info@@6B@ ; Base_Vertex_Buffer `RTTI Type Descriptor'
	DQ	0000000000000000H
	DB	'.?AVBase_Vertex_Buffer@@', 00H
data$rs	ENDS
;	COMDAT ??_R2UI_Element@@8
rdata$r	SEGMENT
??_R2UI_Element@@8 DD imagerel ??_R1A@?0A@EA@UI_Element@@8 ; UI_Element::`RTTI Base Class Array'
	ORG $+3
rdata$r	ENDS
;	COMDAT ??_R1A@?0A@EA@Door_Controller@@8
rdata$r	SEGMENT
??_R1A@?0A@EA@Door_Controller@@8 DD imagerel ??_R0?AVDoor_Controller@@@8 ; Door_Controller::`RTTI Base Class Descriptor at (0,-1,0,64)'
	DD	01H
	DD	00H
	DD	0ffffffffH
	DD	00H
	DD	040H
	DD	imagerel ??_R3Door_Controller@@8
rdata$r	ENDS
;	COMDAT ??_R3UI_Element@@8
rdata$r	SEGMENT
??_R3UI_Element@@8 DD 00H				; UI_Element::`RTTI Class Hierarchy Descriptor'
	DD	00H
	DD	01H
	DD	imagerel ??_R2UI_Element@@8
rdata$r	ENDS
;	COMDAT ??_R2Flicker_Light_Controller@@8
rdata$r	SEGMENT
??_R2Flicker_Light_Controller@@8 DD imagerel ??_R1A@?0A@EA@Flicker_Light_Controller@@8 ; Flicker_Light_Controller::`RTTI Base Class Array'
	DD	imagerel ??_R1A@?0A@EA@Controller@@8
	ORG $+3
rdata$r	ENDS
;	COMDAT ??_R3?$basic_filebuf@DU?$char_traits@D@std@@@std@@8
rdata$r	SEGMENT
??_R3?$basic_filebuf@DU?$char_traits@D@std@@@std@@8 DD 00H ; std::basic_filebuf<char,std::char_traits<char> >::`RTTI Class Hierarchy Descriptor'
	DD	00H
	DD	02H
	DD	imagerel ??_R2?$basic_filebuf@DU?$char_traits@D@std@@@std@@8
rdata$r	ENDS
;	COMDAT ??_R4bad_array_new_length@std@@6B@
rdata$r	SEGMENT
??_R4bad_array_new_length@std@@6B@ DD 01H		; std::bad_array_new_length::`RTTI Complete Object Locator'
	DD	00H
	DD	00H
	DD	imagerel ??_R0?AVbad_array_new_length@std@@@8
	DD	imagerel ??_R3bad_array_new_length@std@@8
	DD	imagerel ??_R4bad_array_new_length@std@@6B@
rdata$r	ENDS
;	COMDAT ??_7UI_Controller@@6B@
CONST	SEGMENT
??_7UI_Controller@@6B@ DQ FLAT:??_R4UI_Controller@@6B@	; UI_Controller::`vftable'
	DQ	FLAT:?Control_Function@UI_Controller@@UEAAXPEAVUI_Element@@@Z
CONST	ENDS
;	COMDAT ??_R1A@A@3FA@?$basic_ios@DU?$char_traits@D@std@@@std@@8
rdata$r	SEGMENT
??_R1A@A@3FA@?$basic_ios@DU?$char_traits@D@std@@@std@@8 DD imagerel ??_R0?AV?$basic_ios@DU?$char_traits@D@std@@@std@@@8 ; std::basic_ios<char,std::char_traits<char> >::`RTTI Base Class Descriptor at (0,0,4,80)'
	DD	02H
	DD	00H
	DD	00H
	DD	04H
	DD	050H
	DD	imagerel ??_R3?$basic_ios@DU?$char_traits@D@std@@@std@@8
rdata$r	ENDS
;	COMDAT ??_R0?AVFlicker_Light_Controller@@@8
data$rs	SEGMENT
??_R0?AVFlicker_Light_Controller@@@8 DQ FLAT:??_7type_info@@6B@ ; Flicker_Light_Controller `RTTI Type Descriptor'
	DQ	0000000000000000H
	DB	'.?AVFlicker_Light_Controller@@', 00H
data$rs	ENDS
;	COMDAT ??_7Model_Vertex_Buffer@@6B@
CONST	SEGMENT
??_7Model_Vertex_Buffer@@6B@ DQ FLAT:??_R4Model_Vertex_Buffer@@6B@ ; Model_Vertex_Buffer::`vftable'
	DQ	FLAT:?Create_Buffer@Model_Vertex_Buffer@@UEAAXXZ
	DQ	FLAT:?Bind_Buffer@Model_Vertex_Buffer@@UEAAXXZ
	DQ	FLAT:?Update_Vertices@Model_Vertex_Buffer@@UEAAXXZ
	DQ	FLAT:?Update_Buffer@Model_Vertex_Buffer@@UEAAXXZ
	DQ	FLAT:?Delete_Buffer@Model_Vertex_Buffer@@UEAAXXZ
CONST	ENDS
;	COMDAT ??_R1A@?0A@EA@Mesh_Hitbox@@8
rdata$r	SEGMENT
??_R1A@?0A@EA@Mesh_Hitbox@@8 DD imagerel ??_R0?AVMesh_Hitbox@@@8 ; Mesh_Hitbox::`RTTI Base Class Descriptor at (0,-1,0,64)'
	DD	01H
	DD	00H
	DD	0ffffffffH
	DD	00H
	DD	040H
	DD	imagerel ??_R3Mesh_Hitbox@@8
rdata$r	ENDS
;	COMDAT ??_R1A@?0A@EA@?$basic_filebuf@DU?$char_traits@D@std@@@std@@8
rdata$r	SEGMENT
??_R1A@?0A@EA@?$basic_filebuf@DU?$char_traits@D@std@@@std@@8 DD imagerel ??_R0?AV?$basic_filebuf@DU?$char_traits@D@std@@@std@@@8 ; std::basic_filebuf<char,std::char_traits<char> >::`RTTI Base Class Descriptor at (0,-1,0,64)'
	DD	01H
	DD	00H
	DD	0ffffffffH
	DD	00H
	DD	040H
	DD	imagerel ??_R3?$basic_filebuf@DU?$char_traits@D@std@@@std@@8
rdata$r	ENDS
;	COMDAT ??_R3Pistol@@8
rdata$r	SEGMENT
??_R3Pistol@@8 DD 00H					; Pistol::`RTTI Class Hierarchy Descriptor'
	DD	00H
	DD	02H
	DD	imagerel ??_R2Pistol@@8
rdata$r	ENDS
;	COMDAT ??_7Physics_Object_Controller@@6B@
CONST	SEGMENT
??_7Physics_Object_Controller@@6B@ DQ FLAT:??_R4Physics_Object_Controller@@6B@ ; Physics_Object_Controller::`vftable'
	DQ	FLAT:?Control_Function@Physics_Object_Controller@@UEAAXXZ
	DQ	FLAT:?Initialise_Control@Physics_Object_Controller@@UEAAXPEAVModel@@@Z
CONST	ENDS
;	COMDAT ??_R2Thought_Popups_Controller@@8
rdata$r	SEGMENT
??_R2Thought_Popups_Controller@@8 DD imagerel ??_R1A@?0A@EA@Thought_Popups_Controller@@8 ; Thought_Popups_Controller::`RTTI Base Class Array'
	DD	imagerel ??_R1A@?0A@EA@Controller@@8
	ORG $+3
rdata$r	ENDS
;	COMDAT ??_R3bad_alloc@std@@8
rdata$r	SEGMENT
??_R3bad_alloc@std@@8 DD 00H				; std::bad_alloc::`RTTI Class Hierarchy Descriptor'
	DD	00H
	DD	02H
	DD	imagerel ??_R2bad_alloc@std@@8
rdata$r	ENDS
;	COMDAT ??_R3MaterialReader@tinyobj@@8
rdata$r	SEGMENT
??_R3MaterialReader@tinyobj@@8 DD 00H			; tinyobj::MaterialReader::`RTTI Class Hierarchy Descriptor'
	DD	00H
	DD	01H
	DD	imagerel ??_R2MaterialReader@tinyobj@@8
rdata$r	ENDS
;	COMDAT ??_R4?$basic_stringstream@DU?$char_traits@D@std@@V?$allocator@D@2@@std@@6B@
rdata$r	SEGMENT
??_R4?$basic_stringstream@DU?$char_traits@D@std@@V?$allocator@D@2@@std@@6B@ DD 01H ; std::basic_stringstream<char,std::char_traits<char>,std::allocator<char> >::`RTTI Complete Object Locator'
	DD	098H
	DD	04H
	DD	imagerel ??_R0?AV?$basic_stringstream@DU?$char_traits@D@std@@V?$allocator@D@2@@std@@@8
	DD	imagerel ??_R3?$basic_stringstream@DU?$char_traits@D@std@@V?$allocator@D@2@@std@@8
	DD	imagerel ??_R4?$basic_stringstream@DU?$char_traits@D@std@@V?$allocator@D@2@@std@@6B@
rdata$r	ENDS
;	COMDAT ??_R4Phone_Controller@@6B@
rdata$r	SEGMENT
??_R4Phone_Controller@@6B@ DD 01H			; Phone_Controller::`RTTI Complete Object Locator'
	DD	00H
	DD	00H
	DD	imagerel ??_R0?AVPhone_Controller@@@8
	DD	imagerel ??_R3Phone_Controller@@8
	DD	imagerel ??_R4Phone_Controller@@6B@
rdata$r	ENDS
;	COMDAT ??_R4?$basic_stringbuf@DU?$char_traits@D@std@@V?$allocator@D@2@@std@@6B@
rdata$r	SEGMENT
??_R4?$basic_stringbuf@DU?$char_traits@D@std@@V?$allocator@D@2@@std@@6B@ DD 01H ; std::basic_stringbuf<char,std::char_traits<char>,std::allocator<char> >::`RTTI Complete Object Locator'
	DD	00H
	DD	00H
	DD	imagerel ??_R0?AV?$basic_stringbuf@DU?$char_traits@D@std@@V?$allocator@D@2@@std@@@8
	DD	imagerel ??_R3?$basic_stringbuf@DU?$char_traits@D@std@@V?$allocator@D@2@@std@@8
	DD	imagerel ??_R4?$basic_stringbuf@DU?$char_traits@D@std@@V?$allocator@D@2@@std@@6B@
rdata$r	ENDS
;	COMDAT ?png_sig@?1??stbi__check_png_header@@YAHPEAUstbi__context@@@Z@4QBEB
CONST	SEGMENT
?png_sig@?1??stbi__check_png_header@@YAHPEAUstbi__context@@@Z@4QBEB DB 089H ; `stbi__check_png_header'::`2'::png_sig
	DB	050H
	DB	04eH
	DB	047H
	DB	0dH
	DB	0aH
	DB	01aH
	DB	0aH
CONST	ENDS
;	COMDAT ??_R3UI_Loading_Screen_Icon_Controller@@8
rdata$r	SEGMENT
??_R3UI_Loading_Screen_Icon_Controller@@8 DD 00H	; UI_Loading_Screen_Icon_Controller::`RTTI Class Hierarchy Descriptor'
	DD	00H
	DD	02H
	DD	imagerel ??_R2UI_Loading_Screen_Icon_Controller@@8
rdata$r	ENDS
;	COMDAT _CT??_R0?AVbad_alloc@std@@@8??0bad_alloc@std@@QEAA@AEBV01@@Z24
xdata$x	SEGMENT
_CT??_R0?AVbad_alloc@std@@@8??0bad_alloc@std@@QEAA@AEBV01@@Z24 DD 010H
	DD	imagerel ??_R0?AVbad_alloc@std@@@8
	DD	00H
	DD	0ffffffffH
	ORG $+4
	DD	018H
	DD	imagerel ??0bad_alloc@std@@QEAA@AEBV01@@Z
xdata$x	ENDS
;	COMDAT ??_R1A@?0A@EA@Flicker_Light_Controller@@8
rdata$r	SEGMENT
??_R1A@?0A@EA@Flicker_Light_Controller@@8 DD imagerel ??_R0?AVFlicker_Light_Controller@@@8 ; Flicker_Light_Controller::`RTTI Base Class Descriptor at (0,-1,0,64)'
	DD	01H
	DD	00H
	DD	0ffffffffH
	DD	00H
	DD	040H
	DD	imagerel ??_R3Flicker_Light_Controller@@8
rdata$r	ENDS
;	COMDAT ??_R0?AVThought_Popups_Controller@@@8
data$rs	SEGMENT
??_R0?AVThought_Popups_Controller@@@8 DQ FLAT:??_7type_info@@6B@ ; Thought_Popups_Controller `RTTI Type Descriptor'
	DQ	0000000000000000H
	DB	'.?AVThought_Popups_Controller@@', 00H
data$rs	ENDS
;	COMDAT ??_R3bad_array_new_length@std@@8
rdata$r	SEGMENT
??_R3bad_array_new_length@std@@8 DD 00H			; std::bad_array_new_length::`RTTI Class Hierarchy Descriptor'
	DD	00H
	DD	03H
	DD	imagerel ??_R2bad_array_new_length@std@@8
rdata$r	ENDS
;	COMDAT _CT??_R0?AVbad_cast@std@@@8??0bad_cast@std@@QEAA@AEBV01@@Z24
xdata$x	SEGMENT
_CT??_R0?AVbad_cast@std@@@8??0bad_cast@std@@QEAA@AEBV01@@Z24 DD 00H
	DD	imagerel ??_R0?AVbad_cast@std@@@8
	DD	00H
	DD	0ffffffffH
	ORG $+4
	DD	018H
	DD	imagerel ??0bad_cast@std@@QEAA@AEBV01@@Z
xdata$x	ENDS
;	COMDAT ??_8?$basic_istringstream@DU?$char_traits@D@std@@V?$allocator@D@2@@std@@7B@
CONST	SEGMENT
??_8?$basic_istringstream@DU?$char_traits@D@std@@V?$allocator@D@2@@std@@7B@ DD 00H ; std::basic_istringstream<char,std::char_traits<char>,std::allocator<char> >::`vbtable'
	DD	090H
CONST	ENDS
;	COMDAT ??_R3Physics_Object@Physics@@8
rdata$r	SEGMENT
??_R3Physics_Object@Physics@@8 DD 00H			; Physics::Physics_Object::`RTTI Class Hierarchy Descriptor'
	DD	00H
	DD	01H
	DD	imagerel ??_R2Physics_Object@Physics@@8
rdata$r	ENDS
;	COMDAT ??_R1A@?0A@EA@UI_Filling_Bar_Controller@@8
rdata$r	SEGMENT
??_R1A@?0A@EA@UI_Filling_Bar_Controller@@8 DD imagerel ??_R0?AVUI_Filling_Bar_Controller@@@8 ; UI_Filling_Bar_Controller::`RTTI Base Class Descriptor at (0,-1,0,64)'
	DD	01H
	DD	00H
	DD	0ffffffffH
	DD	00H
	DD	040H
	DD	imagerel ??_R3UI_Filling_Bar_Controller@@8
rdata$r	ENDS
;	COMDAT ??_R4MaterialReader@tinyobj@@6B@
rdata$r	SEGMENT
??_R4MaterialReader@tinyobj@@6B@ DD 01H			; tinyobj::MaterialReader::`RTTI Complete Object Locator'
	DD	00H
	DD	00H
	DD	imagerel ??_R0?AVMaterialReader@tinyobj@@@8
	DD	imagerel ??_R3MaterialReader@tinyobj@@8
	DD	imagerel ??_R4MaterialReader@tinyobj@@6B@
rdata$r	ENDS
;	COMDAT ??_R4Base_Vertex_Buffer@@6B@
rdata$r	SEGMENT
??_R4Base_Vertex_Buffer@@6B@ DD 01H			; Base_Vertex_Buffer::`RTTI Complete Object Locator'
	DD	00H
	DD	00H
	DD	imagerel ??_R0?AVBase_Vertex_Buffer@@@8
	DD	imagerel ??_R3Base_Vertex_Buffer@@8
	DD	imagerel ??_R4Base_Vertex_Buffer@@6B@
rdata$r	ENDS
;	COMDAT ?rgb@?BG@??stbi__process_frame_header@@YAHPEAUstbi__jpeg@@H@Z@4QBEB
CONST	SEGMENT
?rgb@?BG@??stbi__process_frame_header@@YAHPEAUstbi__jpeg@@H@Z@4QBEB DB 052H ; `stbi__process_frame_header'::`22'::rgb
	DB	047H
	DB	042H
CONST	ENDS
;	COMDAT ??_R4bad_cast@std@@6B@
rdata$r	SEGMENT
??_R4bad_cast@std@@6B@ DD 01H				; std::bad_cast::`RTTI Complete Object Locator'
	DD	00H
	DD	00H
	DD	imagerel ??_R0?AVbad_cast@std@@@8
	DD	imagerel ??_R3bad_cast@std@@8
	DD	imagerel ??_R4bad_cast@std@@6B@
rdata$r	ENDS
;	COMDAT ??_R4UI_Fade_Effect_Controller@@6B@
rdata$r	SEGMENT
??_R4UI_Fade_Effect_Controller@@6B@ DD 01H		; UI_Fade_Effect_Controller::`RTTI Complete Object Locator'
	DD	00H
	DD	00H
	DD	imagerel ??_R0?AVUI_Fade_Effect_Controller@@@8
	DD	imagerel ??_R3UI_Fade_Effect_Controller@@8
	DD	imagerel ??_R4UI_Fade_Effect_Controller@@6B@
rdata$r	ENDS
;	COMDAT ??_7Damageable_Controller@@6B@
CONST	SEGMENT
??_7Damageable_Controller@@6B@ DQ FLAT:??_R4Damageable_Controller@@6B@ ; Damageable_Controller::`vftable'
	DQ	FLAT:?Control_Function@Controller@@UEAAXXZ
	DQ	FLAT:?Initialise_Control@Damageable_Controller@@UEAAXPEAVModel@@@Z
	DQ	FLAT:?Damage@Damageable_Controller@@UEAAXMW4Damage_Source@1@@Z
CONST	ENDS
;	COMDAT ??_R2Damageable_Controller@@8
rdata$r	SEGMENT
??_R2Damageable_Controller@@8 DD imagerel ??_R1A@?0A@EA@Damageable_Controller@@8 ; Damageable_Controller::`RTTI Base Class Array'
	DD	imagerel ??_R1A@?0A@EA@Controller@@8
	ORG $+3
rdata$r	ENDS
;	COMDAT ??_R0?AVPhysics_Object_Controller@@@8
data$rs	SEGMENT
??_R0?AVPhysics_Object_Controller@@@8 DQ FLAT:??_7type_info@@6B@ ; Physics_Object_Controller `RTTI Type Descriptor'
	DQ	0000000000000000H
	DB	'.?AVPhysics_Object_Controller@@', 00H
data$rs	ENDS
;	COMDAT ??_R2?$basic_stringstream@DU?$char_traits@D@std@@V?$allocator@D@2@@std@@8
rdata$r	SEGMENT
??_R2?$basic_stringstream@DU?$char_traits@D@std@@V?$allocator@D@2@@std@@8 DD imagerel ??_R1A@?0A@EA@?$basic_stringstream@DU?$char_traits@D@std@@V?$allocator@D@2@@std@@8 ; std::basic_stringstream<char,std::char_traits<char>,std::allocator<char> >::`RTTI Base Class Array'
	DD	imagerel ??_R1A@?0A@EA@?$basic_iostream@DU?$char_traits@D@std@@@std@@8
	DD	imagerel ??_R1A@?0A@EA@?$basic_istream@DU?$char_traits@D@std@@@std@@8
	DD	imagerel ??_R1A@A@3FA@?$basic_ios@DU?$char_traits@D@std@@@std@@8
	DD	imagerel ??_R1A@A@3EA@ios_base@std@@8
	DD	imagerel ??_R17A@3EA@?$_Iosb@H@std@@8
	DD	imagerel ??_R1BA@?0A@EA@?$basic_ostream@DU?$char_traits@D@std@@@std@@8
	DD	imagerel ??_R1A@A@3FA@?$basic_ios@DU?$char_traits@D@std@@@std@@8
	DD	imagerel ??_R1A@A@3EA@ios_base@std@@8
	DD	imagerel ??_R17A@3EA@?$_Iosb@H@std@@8
	ORG $+3
rdata$r	ENDS
;	COMDAT ??_R4bad_alloc@std@@6B@
rdata$r	SEGMENT
??_R4bad_alloc@std@@6B@ DD 01H				; std::bad_alloc::`RTTI Complete Object Locator'
	DD	00H
	DD	00H
	DD	imagerel ??_R0?AVbad_alloc@std@@@8
	DD	imagerel ??_R3bad_alloc@std@@8
	DD	imagerel ??_R4bad_alloc@std@@6B@
rdata$r	ENDS
;	COMDAT ??_R3Decal_Vertex_Buffer@@8
rdata$r	SEGMENT
??_R3Decal_Vertex_Buffer@@8 DD 00H			; Decal_Vertex_Buffer::`RTTI Class Hierarchy Descriptor'
	DD	00H
	DD	02H
	DD	imagerel ??_R2Decal_Vertex_Buffer@@8
rdata$r	ENDS
;	COMDAT ??_R3bad_cast@std@@8
rdata$r	SEGMENT
??_R3bad_cast@std@@8 DD 00H				; std::bad_cast::`RTTI Class Hierarchy Descriptor'
	DD	00H
	DD	02H
	DD	imagerel ??_R2bad_cast@std@@8
rdata$r	ENDS
;	COMDAT ??_R2?$basic_iostream@DU?$char_traits@D@std@@@std@@8
rdata$r	SEGMENT
??_R2?$basic_iostream@DU?$char_traits@D@std@@@std@@8 DD imagerel ??_R1A@?0A@EA@?$basic_iostream@DU?$char_traits@D@std@@@std@@8 ; std::basic_iostream<char,std::char_traits<char> >::`RTTI Base Class Array'
	DD	imagerel ??_R1A@?0A@EA@?$basic_istream@DU?$char_traits@D@std@@@std@@8
	DD	imagerel ??_R1A@A@3FA@?$basic_ios@DU?$char_traits@D@std@@@std@@8
	DD	imagerel ??_R1A@A@3EA@ios_base@std@@8
	DD	imagerel ??_R17A@3EA@?$_Iosb@H@std@@8
	DD	imagerel ??_R1BA@?0A@EA@?$basic_ostream@DU?$char_traits@D@std@@@std@@8
	DD	imagerel ??_R1A@A@3FA@?$basic_ios@DU?$char_traits@D@std@@@std@@8
	DD	imagerel ??_R1A@A@3EA@ios_base@std@@8
	DD	imagerel ??_R17A@3EA@?$_Iosb@H@std@@8
	ORG $+3
rdata$r	ENDS
;	COMDAT ?_Min_buckets@?$_Hash@V?$_Umap_traits@UModel_Vertex@@IV?$_Uhash_compare@UModel_Vertex@@U?$hash@UModel_Vertex@@@std@@U?$equal_to@UModel_Vertex@@@3@@std@@V?$allocator@U?$pair@$$CBUModel_Vertex@@I@std@@@3@$0A@@std@@@std@@2_KB
CONST	SEGMENT
?_Min_buckets@?$_Hash@V?$_Umap_traits@UModel_Vertex@@IV?$_Uhash_compare@UModel_Vertex@@U?$hash@UModel_Vertex@@@std@@U?$equal_to@UModel_Vertex@@@3@@std@@V?$allocator@U?$pair@$$CBUModel_Vertex@@I@std@@@3@$0A@@std@@@std@@2_KB DQ 0000000000000008H ; std::_Hash<std::_Umap_traits<Model_Vertex,unsigned int,std::_Uhash_compare<Model_Vertex,std::hash<Model_Vertex>,std::equal_to<Model_Vertex> >,std::allocator<std::pair<Model_Vertex const ,unsigned int> >,0> >::_Min_buckets
CONST	ENDS
;	COMDAT ??_R0?AVDecal_Vertex_Buffer@@@8
data$rs	SEGMENT
??_R0?AVDecal_Vertex_Buffer@@@8 DQ FLAT:??_7type_info@@6B@ ; Decal_Vertex_Buffer `RTTI Type Descriptor'
	DQ	0000000000000000H
	DB	'.?AVDecal_Vertex_Buffer@@', 00H
data$rs	ENDS
;	COMDAT ??_R2Phone_Controller@@8
rdata$r	SEGMENT
??_R2Phone_Controller@@8 DD imagerel ??_R1A@?0A@EA@Phone_Controller@@8 ; Phone_Controller::`RTTI Base Class Array'
	DD	imagerel ??_R1A@?0A@EA@Controller@@8
	ORG $+3
rdata$r	ENDS
;	COMDAT ??_R4MaterialStreamReader@tinyobj@@6B@
rdata$r	SEGMENT
??_R4MaterialStreamReader@tinyobj@@6B@ DD 01H		; tinyobj::MaterialStreamReader::`RTTI Complete Object Locator'
	DD	00H
	DD	00H
	DD	imagerel ??_R0?AVMaterialStreamReader@tinyobj@@@8
	DD	imagerel ??_R3MaterialStreamReader@tinyobj@@8
	DD	imagerel ??_R4MaterialStreamReader@tinyobj@@6B@
rdata$r	ENDS
;	COMDAT ??_R3Mesh_Hitbox@@8
rdata$r	SEGMENT
??_R3Mesh_Hitbox@@8 DD 00H				; Mesh_Hitbox::`RTTI Class Hierarchy Descriptor'
	DD	00H
	DD	02H
	DD	imagerel ??_R2Mesh_Hitbox@@8
rdata$r	ENDS
;	COMDAT ??_7UI_Fade_Effect_Controller@@6B@
CONST	SEGMENT
??_7UI_Fade_Effect_Controller@@6B@ DQ FLAT:??_R4UI_Fade_Effect_Controller@@6B@ ; UI_Fade_Effect_Controller::`vftable'
	DQ	FLAT:?Control_Function@UI_Fade_Effect_Controller@@UEAAXPEAVUI_Element@@@Z
CONST	ENDS
;	COMDAT ??_R1A@?0A@EA@?$basic_stringbuf@DU?$char_traits@D@std@@V?$allocator@D@2@@std@@8
rdata$r	SEGMENT
??_R1A@?0A@EA@?$basic_stringbuf@DU?$char_traits@D@std@@V?$allocator@D@2@@std@@8 DD imagerel ??_R0?AV?$basic_stringbuf@DU?$char_traits@D@std@@V?$allocator@D@2@@std@@@8 ; std::basic_stringbuf<char,std::char_traits<char>,std::allocator<char> >::`RTTI Base Class Descriptor at (0,-1,0,64)'
	DD	01H
	DD	00H
	DD	0ffffffffH
	DD	00H
	DD	040H
	DD	imagerel ??_R3?$basic_stringbuf@DU?$char_traits@D@std@@V?$allocator@D@2@@std@@8
rdata$r	ENDS
;	COMDAT ??_R0?AVAlarm_Light_Controller@@@8
data$rs	SEGMENT
??_R0?AVAlarm_Light_Controller@@@8 DQ FLAT:??_7type_info@@6B@ ; Alarm_Light_Controller `RTTI Type Descriptor'
	DQ	0000000000000000H
	DB	'.?AVAlarm_Light_Controller@@', 00H
data$rs	ENDS
;	COMDAT ??_R4Billboard_Vertex_Buffer@@6B@
rdata$r	SEGMENT
??_R4Billboard_Vertex_Buffer@@6B@ DD 01H		; Billboard_Vertex_Buffer::`RTTI Complete Object Locator'
	DD	00H
	DD	00H
	DD	imagerel ??_R0?AVBillboard_Vertex_Buffer@@@8
	DD	imagerel ??_R3Billboard_Vertex_Buffer@@8
	DD	imagerel ??_R4Billboard_Vertex_Buffer@@6B@
rdata$r	ENDS
;	COMDAT ??_R1A@?0A@EA@Item@@8
rdata$r	SEGMENT
??_R1A@?0A@EA@Item@@8 DD imagerel ??_R0?AVItem@@@8	; Item::`RTTI Base Class Descriptor at (0,-1,0,64)'
	DD	00H
	DD	00H
	DD	0ffffffffH
	DD	00H
	DD	040H
	DD	imagerel ??_R3Item@@8
rdata$r	ENDS
;	COMDAT ??_R0?AVController@@@8
data$rs	SEGMENT
??_R0?AVController@@@8 DQ FLAT:??_7type_info@@6B@	; Controller `RTTI Type Descriptor'
	DQ	0000000000000000H
	DB	'.?AVController@@', 00H
data$rs	ENDS
;	COMDAT ??_8?$basic_ifstream@DU?$char_traits@D@std@@@std@@7B@
CONST	SEGMENT
??_8?$basic_ifstream@DU?$char_traits@D@std@@@std@@7B@ DD 00H ; std::basic_ifstream<char,std::char_traits<char> >::`vbtable'
	DD	0b0H
CONST	ENDS
;	COMDAT ??_R1A@?0A@EA@?$_Iosb@H@std@@8
rdata$r	SEGMENT
??_R1A@?0A@EA@?$_Iosb@H@std@@8 DD imagerel ??_R0?AV?$_Iosb@H@std@@@8 ; std::_Iosb<int>::`RTTI Base Class Descriptor at (0,-1,0,64)'
	DD	00H
	DD	00H
	DD	0ffffffffH
	DD	00H
	DD	040H
	DD	imagerel ??_R3?$_Iosb@H@std@@8
rdata$r	ENDS
;	COMDAT ??_7Thought_Popups_Controller@@6B@
CONST	SEGMENT
??_7Thought_Popups_Controller@@6B@ DQ FLAT:??_R4Thought_Popups_Controller@@6B@ ; Thought_Popups_Controller::`vftable'
	DQ	FLAT:?Control_Function@Thought_Popups_Controller@@UEAAXXZ
	DQ	FLAT:?Initialise_Control@Thought_Popups_Controller@@UEAAXPEAVModel@@@Z
CONST	ENDS
;	COMDAT ??_R4UI_Fade_Out_Effect_Controller@@6B@
rdata$r	SEGMENT
??_R4UI_Fade_Out_Effect_Controller@@6B@ DD 01H		; UI_Fade_Out_Effect_Controller::`RTTI Complete Object Locator'
	DD	00H
	DD	00H
	DD	imagerel ??_R0?AVUI_Fade_Out_Effect_Controller@@@8
	DD	imagerel ??_R3UI_Fade_Out_Effect_Controller@@8
	DD	imagerel ??_R4UI_Fade_Out_Effect_Controller@@6B@
rdata$r	ENDS
;	COMDAT ??_R2?$basic_streambuf@DU?$char_traits@D@std@@@std@@8
rdata$r	SEGMENT
??_R2?$basic_streambuf@DU?$char_traits@D@std@@@std@@8 DD imagerel ??_R1A@?0A@EA@?$basic_streambuf@DU?$char_traits@D@std@@@std@@8 ; std::basic_streambuf<char,std::char_traits<char> >::`RTTI Base Class Array'
	ORG $+3
rdata$r	ENDS
;	COMDAT ??_R3Test_Enemy_Controller@@8
rdata$r	SEGMENT
??_R3Test_Enemy_Controller@@8 DD 00H			; Test_Enemy_Controller::`RTTI Class Hierarchy Descriptor'
	DD	00H
	DD	03H
	DD	imagerel ??_R2Test_Enemy_Controller@@8
rdata$r	ENDS
;	COMDAT ??_R4MaterialFileReader@tinyobj@@6B@
rdata$r	SEGMENT
??_R4MaterialFileReader@tinyobj@@6B@ DD 01H		; tinyobj::MaterialFileReader::`RTTI Complete Object Locator'
	DD	00H
	DD	00H
	DD	imagerel ??_R0?AVMaterialFileReader@tinyobj@@@8
	DD	imagerel ??_R3MaterialFileReader@tinyobj@@8
	DD	imagerel ??_R4MaterialFileReader@tinyobj@@6B@
rdata$r	ENDS
;	COMDAT ??_R3Hitbox@@8
rdata$r	SEGMENT
??_R3Hitbox@@8 DD 00H					; Hitbox::`RTTI Class Hierarchy Descriptor'
	DD	00H
	DD	01H
	DD	imagerel ??_R2Hitbox@@8
rdata$r	ENDS
;	COMDAT ??_7Decal_Vertex_Buffer@@6B@
CONST	SEGMENT
??_7Decal_Vertex_Buffer@@6B@ DQ FLAT:??_R4Decal_Vertex_Buffer@@6B@ ; Decal_Vertex_Buffer::`vftable'
	DQ	FLAT:?Create_Buffer@Decal_Vertex_Buffer@@UEAAXXZ
	DQ	FLAT:?Bind_Buffer@Decal_Vertex_Buffer@@UEAAXXZ
	DQ	FLAT:?Update_Vertices@Base_Vertex_Buffer@@UEAAXXZ
	DQ	FLAT:?Update_Buffer@Decal_Vertex_Buffer@@UEAAXXZ
	DQ	FLAT:?Delete_Buffer@Base_Vertex_Buffer@@UEAAXXZ
CONST	ENDS
;	COMDAT ??_R0?AVDamageable_Controller@@@8
data$rs	SEGMENT
??_R0?AVDamageable_Controller@@@8 DQ FLAT:??_7type_info@@6B@ ; Damageable_Controller `RTTI Type Descriptor'
	DQ	0000000000000000H
	DB	'.?AVDamageable_Controller@@', 00H
data$rs	ENDS
;	COMDAT ??_7?$basic_stringstream@DU?$char_traits@D@std@@V?$allocator@D@2@@std@@6B@
CONST	SEGMENT
??_7?$basic_stringstream@DU?$char_traits@D@std@@V?$allocator@D@2@@std@@6B@ DQ FLAT:??_R4?$basic_stringstream@DU?$char_traits@D@std@@V?$allocator@D@2@@std@@6B@ ; std::basic_stringstream<char,std::char_traits<char>,std::allocator<char> >::`vftable'
	DQ	FLAT:??_E?$basic_stringstream@DU?$char_traits@D@std@@V?$allocator@D@2@@std@@$4PPPPPPPM@A@EAAPEAXI@Z
CONST	ENDS
;	COMDAT ??_7Door_Controller@@6B@
CONST	SEGMENT
??_7Door_Controller@@6B@ DQ FLAT:??_R4Door_Controller@@6B@ ; Door_Controller::`vftable'
	DQ	FLAT:?Control_Function@Door_Controller@@UEAAXXZ
	DQ	FLAT:?Initialise_Control@Door_Controller@@UEAAXPEAVModel@@@Z
CONST	ENDS
;	COMDAT ??_7Test_Enemy_Controller@@6B@
CONST	SEGMENT
??_7Test_Enemy_Controller@@6B@ DQ FLAT:??_R4Test_Enemy_Controller@@6B@ ; Test_Enemy_Controller::`vftable'
	DQ	FLAT:?Control_Function@Test_Enemy_Controller@@UEAAXXZ
	DQ	FLAT:?Initialise_Control@Test_Enemy_Controller@@UEAAXPEAVModel@@@Z
	DQ	FLAT:?Damage@Damageable_Controller@@UEAAXMW4Damage_Source@1@@Z
CONST	ENDS
;	COMDAT ??_R0?AV?$basic_ios@DU?$char_traits@D@std@@@std@@@8
data$rs	SEGMENT
??_R0?AV?$basic_ios@DU?$char_traits@D@std@@@std@@@8 DQ FLAT:??_7type_info@@6B@ ; std::basic_ios<char,std::char_traits<char> > `RTTI Type Descriptor'
	DQ	0000000000000000H
	DB	'.?AV?$basic_ios@DU?$char_traits@D@std@@@std@@', 00H
data$rs	ENDS
;	COMDAT ??_R4?$basic_filebuf@DU?$char_traits@D@std@@@std@@6B@
rdata$r	SEGMENT
??_R4?$basic_filebuf@DU?$char_traits@D@std@@@std@@6B@ DD 01H ; std::basic_filebuf<char,std::char_traits<char> >::`RTTI Complete Object Locator'
	DD	00H
	DD	00H
	DD	imagerel ??_R0?AV?$basic_filebuf@DU?$char_traits@D@std@@@std@@@8
	DD	imagerel ??_R3?$basic_filebuf@DU?$char_traits@D@std@@@std@@8
	DD	imagerel ??_R4?$basic_filebuf@DU?$char_traits@D@std@@@std@@6B@
rdata$r	ENDS
;	COMDAT ??_R2Alarm_Light_Controller@@8
rdata$r	SEGMENT
??_R2Alarm_Light_Controller@@8 DD imagerel ??_R1A@?0A@EA@Alarm_Light_Controller@@8 ; Alarm_Light_Controller::`RTTI Base Class Array'
	DD	imagerel ??_R1A@?0A@EA@Controller@@8
	ORG $+3
rdata$r	ENDS
;	COMDAT ??_R1A@?0A@EA@?$basic_ostream@DU?$char_traits@D@std@@@std@@8
rdata$r	SEGMENT
??_R1A@?0A@EA@?$basic_ostream@DU?$char_traits@D@std@@@std@@8 DD imagerel ??_R0?AV?$basic_ostream@DU?$char_traits@D@std@@@std@@@8 ; std::basic_ostream<char,std::char_traits<char> >::`RTTI Base Class Descriptor at (0,-1,0,64)'
	DD	03H
	DD	00H
	DD	0ffffffffH
	DD	00H
	DD	040H
	DD	imagerel ??_R3?$basic_ostream@DU?$char_traits@D@std@@@std@@8
rdata$r	ENDS
;	COMDAT _CT??_R0?AVbad_array_new_length@std@@@8??0bad_array_new_length@std@@QEAA@AEBV01@@Z24
xdata$x	SEGMENT
_CT??_R0?AVbad_array_new_length@std@@@8??0bad_array_new_length@std@@QEAA@AEBV01@@Z24 DD 00H
	DD	imagerel ??_R0?AVbad_array_new_length@std@@@8
	DD	00H
	DD	0ffffffffH
	ORG $+4
	DD	018H
	DD	imagerel ??0bad_array_new_length@std@@QEAA@AEBV01@@Z
xdata$x	ENDS
;	COMDAT ??_R4UI_Fade_In_Effect_Controller@@6B@
rdata$r	SEGMENT
??_R4UI_Fade_In_Effect_Controller@@6B@ DD 01H		; UI_Fade_In_Effect_Controller::`RTTI Complete Object Locator'
	DD	00H
	DD	00H
	DD	imagerel ??_R0?AVUI_Fade_In_Effect_Controller@@@8
	DD	imagerel ??_R3UI_Fade_In_Effect_Controller@@8
	DD	imagerel ??_R4UI_Fade_In_Effect_Controller@@6B@
rdata$r	ENDS
;	COMDAT ??_R4Mesh_Hitbox@@6B@
rdata$r	SEGMENT
??_R4Mesh_Hitbox@@6B@ DD 01H				; Mesh_Hitbox::`RTTI Complete Object Locator'
	DD	00H
	DD	00H
	DD	imagerel ??_R0?AVMesh_Hitbox@@@8
	DD	imagerel ??_R3Mesh_Hitbox@@8
	DD	imagerel ??_R4Mesh_Hitbox@@6B@
rdata$r	ENDS
;	COMDAT ??_R3exception@std@@8
rdata$r	SEGMENT
??_R3exception@std@@8 DD 00H				; std::exception::`RTTI Class Hierarchy Descriptor'
	DD	00H
	DD	01H
	DD	imagerel ??_R2exception@std@@8
rdata$r	ENDS
;	COMDAT ??_R2Button_UI_Element@@8
rdata$r	SEGMENT
??_R2Button_UI_Element@@8 DD imagerel ??_R1A@?0A@EA@Button_UI_Element@@8 ; Button_UI_Element::`RTTI Base Class Array'
	DD	imagerel ??_R1A@?0A@EA@UI_Element@@8
	ORG $+3
rdata$r	ENDS
;	COMDAT ??_R1A@?0A@EA@ios_base@std@@8
rdata$r	SEGMENT
??_R1A@?0A@EA@ios_base@std@@8 DD imagerel ??_R0?AVios_base@std@@@8 ; std::ios_base::`RTTI Base Class Descriptor at (0,-1,0,64)'
	DD	01H
	DD	00H
	DD	0ffffffffH
	DD	00H
	DD	040H
	DD	imagerel ??_R3ios_base@std@@8
rdata$r	ENDS
;	COMDAT ??_R0?AVButton_UI_Element@@@8
data$rs	SEGMENT
??_R0?AVButton_UI_Element@@@8 DQ FLAT:??_7type_info@@6B@ ; Button_UI_Element `RTTI Type Descriptor'
	DQ	0000000000000000H
	DB	'.?AVButton_UI_Element@@', 00H
data$rs	ENDS
;	COMDAT ??_R3MaterialStreamReader@tinyobj@@8
rdata$r	SEGMENT
??_R3MaterialStreamReader@tinyobj@@8 DD 00H		; tinyobj::MaterialStreamReader::`RTTI Class Hierarchy Descriptor'
	DD	00H
	DD	02H
	DD	imagerel ??_R2MaterialStreamReader@tinyobj@@8
rdata$r	ENDS
;	COMDAT ??_R4?$basic_ifstream@DU?$char_traits@D@std@@@std@@6B@
rdata$r	SEGMENT
??_R4?$basic_ifstream@DU?$char_traits@D@std@@@std@@6B@ DD 01H ; std::basic_ifstream<char,std::char_traits<char> >::`RTTI Complete Object Locator'
	DD	0b0H
	DD	04H
	DD	imagerel ??_R0?AV?$basic_ifstream@DU?$char_traits@D@std@@@std@@@8
	DD	imagerel ??_R3?$basic_ifstream@DU?$char_traits@D@std@@@std@@8
	DD	imagerel ??_R4?$basic_ifstream@DU?$char_traits@D@std@@@std@@6B@
rdata$r	ENDS
;	COMDAT ??_R1A@?0A@EA@Phone_Controller@@8
rdata$r	SEGMENT
??_R1A@?0A@EA@Phone_Controller@@8 DD imagerel ??_R0?AVPhone_Controller@@@8 ; Phone_Controller::`RTTI Base Class Descriptor at (0,-1,0,64)'
	DD	01H
	DD	00H
	DD	0ffffffffH
	DD	00H
	DD	040H
	DD	imagerel ??_R3Phone_Controller@@8
rdata$r	ENDS
;	COMDAT ??_R0?AVDamageable_Vent_Controller@@@8
data$rs	SEGMENT
??_R0?AVDamageable_Vent_Controller@@@8 DQ FLAT:??_7type_info@@6B@ ; Damageable_Vent_Controller `RTTI Type Descriptor'
	DQ	0000000000000000H
	DB	'.?AVDamageable_Vent_Controller@@', 00H
data$rs	ENDS
;	COMDAT ??_R0?AVMaterialFileReader@tinyobj@@@8
data$rs	SEGMENT
??_R0?AVMaterialFileReader@tinyobj@@@8 DQ FLAT:??_7type_info@@6B@ ; tinyobj::MaterialFileReader `RTTI Type Descriptor'
	DQ	0000000000000000H
	DB	'.?AVMaterialFileReader@tinyobj@@', 00H
data$rs	ENDS
;	COMDAT ??_R0?AV?$basic_istream@DU?$char_traits@D@std@@@std@@@8
data$rs	SEGMENT
??_R0?AV?$basic_istream@DU?$char_traits@D@std@@@std@@@8 DQ FLAT:??_7type_info@@6B@ ; std::basic_istream<char,std::char_traits<char> > `RTTI Type Descriptor'
	DQ	0000000000000000H
	DB	'.?AV?$basic_istream@DU?$char_traits@D@std@@@std@@', 00H
data$rs	ENDS
;	COMDAT ??_R1BA@?0A@EA@?$basic_ostream@DU?$char_traits@D@std@@@std@@8
rdata$r	SEGMENT
??_R1BA@?0A@EA@?$basic_ostream@DU?$char_traits@D@std@@@std@@8 DD imagerel ??_R0?AV?$basic_ostream@DU?$char_traits@D@std@@@std@@@8 ; std::basic_ostream<char,std::char_traits<char> >::`RTTI Base Class Descriptor at (16,-1,0,64)'
	DD	03H
	DD	010H
	DD	0ffffffffH
	DD	00H
	DD	040H
	DD	imagerel ??_R3?$basic_ostream@DU?$char_traits@D@std@@@std@@8
rdata$r	ENDS
;	COMDAT ??_R0?AVMaterialReader@tinyobj@@@8
data$rs	SEGMENT
??_R0?AVMaterialReader@tinyobj@@@8 DQ FLAT:??_7type_info@@6B@ ; tinyobj::MaterialReader `RTTI Type Descriptor'
	DQ	0000000000000000H
	DB	'.?AVMaterialReader@tinyobj@@', 00H
data$rs	ENDS
;	COMDAT ??_7MaterialFileReader@tinyobj@@6B@
CONST	SEGMENT
??_7MaterialFileReader@tinyobj@@6B@ DQ FLAT:??_R4MaterialFileReader@tinyobj@@6B@ ; tinyobj::MaterialFileReader::`vftable'
	DQ	FLAT:??_EMaterialFileReader@tinyobj@@UEAAPEAXI@Z
	DQ	FLAT:??RMaterialFileReader@tinyobj@@UEAA_NAEBV?$basic_string@DU?$char_traits@D@std@@V?$allocator@D@2@@std@@PEAV?$vector@Umaterial_t@tinyobj@@V?$allocator@Umaterial_t@tinyobj@@@std@@@3@PEAV?$map@V?$basic_string@DU?$char_traits@D@std@@V?$allocator@D@2@@std@@HU?$less@V?$basic_string@DU?$char_traits@D@std@@V?$allocator@D@2@@std@@@2@V?$allocator@U?$pair@$$CBV?$basic_string@DU?$char_traits@D@std@@V?$allocator@D@2@@std@@H@std@@@2@@3@PEAV23@3@Z
CONST	ENDS
;	COMDAT ??_R0?AV?$basic_istringstream@DU?$char_traits@D@std@@V?$allocator@D@2@@std@@@8
data$rs	SEGMENT
??_R0?AV?$basic_istringstream@DU?$char_traits@D@std@@V?$allocator@D@2@@std@@@8 DQ FLAT:??_7type_info@@6B@ ; std::basic_istringstream<char,std::char_traits<char>,std::allocator<char> > `RTTI Type Descriptor'
	DQ	0000000000000000H
	DB	'.?AV?$basic_istringstream@DU?$char_traits@D@std@@V?$allo'
	DB	'cator@D@2@@std@@', 00H
data$rs	ENDS
;	COMDAT ??_R3Sphere_Hitbox@@8
rdata$r	SEGMENT
??_R3Sphere_Hitbox@@8 DD 00H				; Sphere_Hitbox::`RTTI Class Hierarchy Descriptor'
	DD	00H
	DD	02H
	DD	imagerel ??_R2Sphere_Hitbox@@8
rdata$r	ENDS
;	COMDAT ??_R4Alarm_Light_Controller@@6B@
rdata$r	SEGMENT
??_R4Alarm_Light_Controller@@6B@ DD 01H			; Alarm_Light_Controller::`RTTI Complete Object Locator'
	DD	00H
	DD	00H
	DD	imagerel ??_R0?AVAlarm_Light_Controller@@@8
	DD	imagerel ??_R3Alarm_Light_Controller@@8
	DD	imagerel ??_R4Alarm_Light_Controller@@6B@
rdata$r	ENDS
;	COMDAT ??_7exception@std@@6B@
CONST	SEGMENT
??_7exception@std@@6B@ DQ FLAT:??_R4exception@std@@6B@	; std::exception::`vftable'
	DQ	FLAT:??_Eexception@std@@UEAAPEAXI@Z
	DQ	FLAT:?what@exception@std@@UEBAPEBDXZ
CONST	ENDS
;	COMDAT ??_7Button_UI_Element@@6B@
CONST	SEGMENT
??_7Button_UI_Element@@6B@ DQ FLAT:??_R4Button_UI_Element@@6B@ ; Button_UI_Element::`vftable'
	DQ	FLAT:?Render_Border@UI_Element@@UEAAXVUI_Transformed_Coordinates@@@Z
	DQ	FLAT:?Render@UI_Element@@UEAAXVUI_Transformed_Coordinates@@@Z
	DQ	FLAT:?Update_UI@Button_UI_Element@@UEAAXXZ
CONST	ENDS
;	COMDAT ??_R3Billboard_Vertex_Buffer@@8
rdata$r	SEGMENT
??_R3Billboard_Vertex_Buffer@@8 DD 00H			; Billboard_Vertex_Buffer::`RTTI Class Hierarchy Descriptor'
	DD	00H
	DD	02H
	DD	imagerel ??_R2Billboard_Vertex_Buffer@@8
rdata$r	ENDS
;	COMDAT ??_R4Damageable_Controller@@6B@
rdata$r	SEGMENT
??_R4Damageable_Controller@@6B@ DD 01H			; Damageable_Controller::`RTTI Complete Object Locator'
	DD	00H
	DD	00H
	DD	imagerel ??_R0?AVDamageable_Controller@@@8
	DD	imagerel ??_R3Damageable_Controller@@8
	DD	imagerel ??_R4Damageable_Controller@@6B@
rdata$r	ENDS
;	COMDAT ??_R1A@?0A@EA@MaterialStreamReader@tinyobj@@8
rdata$r	SEGMENT
??_R1A@?0A@EA@MaterialStreamReader@tinyobj@@8 DD imagerel ??_R0?AVMaterialStreamReader@tinyobj@@@8 ; tinyobj::MaterialStreamReader::`RTTI Base Class Descriptor at (0,-1,0,64)'
	DD	01H
	DD	00H
	DD	0ffffffffH
	DD	00H
	DD	040H
	DD	imagerel ??_R3MaterialStreamReader@tinyobj@@8
rdata$r	ENDS
;	COMDAT ??_R1A@?0A@EA@Thought_Popups_Controller@@8
rdata$r	SEGMENT
??_R1A@?0A@EA@Thought_Popups_Controller@@8 DD imagerel ??_R0?AVThought_Popups_Controller@@@8 ; Thought_Popups_Controller::`RTTI Base Class Descriptor at (0,-1,0,64)'
	DD	01H
	DD	00H
	DD	0ffffffffH
	DD	00H
	DD	040H
	DD	imagerel ??_R3Thought_Popups_Controller@@8
rdata$r	ENDS
;	COMDAT ??_R3UI_Fade_In_Effect_Controller@@8
rdata$r	SEGMENT
??_R3UI_Fade_In_Effect_Controller@@8 DD 00H		; UI_Fade_In_Effect_Controller::`RTTI Class Hierarchy Descriptor'
	DD	00H
	DD	02H
	DD	imagerel ??_R2UI_Fade_In_Effect_Controller@@8
rdata$r	ENDS
;	COMDAT ??_R1A@?0A@EA@Hitbox@@8
rdata$r	SEGMENT
??_R1A@?0A@EA@Hitbox@@8 DD imagerel ??_R0?AVHitbox@@@8	; Hitbox::`RTTI Base Class Descriptor at (0,-1,0,64)'
	DD	00H
	DD	00H
	DD	0ffffffffH
	DD	00H
	DD	040H
	DD	imagerel ??_R3Hitbox@@8
rdata$r	ENDS
;	COMDAT ??_R4Vent_Smoke_Controller@@6B@
rdata$r	SEGMENT
??_R4Vent_Smoke_Controller@@6B@ DD 01H			; Vent_Smoke_Controller::`RTTI Complete Object Locator'
	DD	00H
	DD	00H
	DD	imagerel ??_R0?AVVent_Smoke_Controller@@@8
	DD	imagerel ??_R3Vent_Smoke_Controller@@8
	DD	imagerel ??_R4Vent_Smoke_Controller@@6B@
rdata$r	ENDS
;	COMDAT ??_R1A@?0A@EA@Pistol@@8
rdata$r	SEGMENT
??_R1A@?0A@EA@Pistol@@8 DD imagerel ??_R0?AVPistol@@@8	; Pistol::`RTTI Base Class Descriptor at (0,-1,0,64)'
	DD	01H
	DD	00H
	DD	0ffffffffH
	DD	00H
	DD	040H
	DD	imagerel ??_R3Pistol@@8
rdata$r	ENDS
;	COMDAT ??_R1A@?0A@EA@Damageable_Controller@@8
rdata$r	SEGMENT
??_R1A@?0A@EA@Damageable_Controller@@8 DD imagerel ??_R0?AVDamageable_Controller@@@8 ; Damageable_Controller::`RTTI Base Class Descriptor at (0,-1,0,64)'
	DD	01H
	DD	00H
	DD	0ffffffffH
	DD	00H
	DD	040H
	DD	imagerel ??_R3Damageable_Controller@@8
rdata$r	ENDS
;	COMDAT ??_R1A@?0A@EA@Damageable_Vent_Controller@@8
rdata$r	SEGMENT
??_R1A@?0A@EA@Damageable_Vent_Controller@@8 DD imagerel ??_R0?AVDamageable_Vent_Controller@@@8 ; Damageable_Vent_Controller::`RTTI Base Class Descriptor at (0,-1,0,64)'
	DD	02H
	DD	00H
	DD	0ffffffffH
	DD	00H
	DD	040H
	DD	imagerel ??_R3Damageable_Vent_Controller@@8
rdata$r	ENDS
;	COMDAT ??_7Item@@6B@
CONST	SEGMENT
??_7Item@@6B@ DQ FLAT:??_R4Item@@6B@			; Item::`vftable'
	DQ	FLAT:?Handle_Viewmodel_States@Item@@UEAAXXZ
	DQ	FLAT:?Render_Viewmodel@Item@@UEAAXXZ
	DQ	FLAT:?Equip_Item@Item@@UEAAXXZ
	DQ	FLAT:?Holster@Item@@UEAAXXZ
CONST	ENDS
;	COMDAT ??_7?$basic_stringbuf@DU?$char_traits@D@std@@V?$allocator@D@2@@std@@6B@
CONST	SEGMENT
??_7?$basic_stringbuf@DU?$char_traits@D@std@@V?$allocator@D@2@@std@@6B@ DQ FLAT:??_R4?$basic_stringbuf@DU?$char_traits@D@std@@V?$allocator@D@2@@std@@6B@ ; std::basic_stringbuf<char,std::char_traits<char>,std::allocator<char> >::`vftable'
	DQ	FLAT:??_E?$basic_stringbuf@DU?$char_traits@D@std@@V?$allocator@D@2@@std@@UEAAPEAXI@Z
	DQ	FLAT:?_Lock@?$basic_streambuf@DU?$char_traits@D@std@@@std@@UEAAXXZ
	DQ	FLAT:?_Unlock@?$basic_streambuf@DU?$char_traits@D@std@@@std@@UEAAXXZ
	DQ	FLAT:?overflow@?$basic_stringbuf@DU?$char_traits@D@std@@V?$allocator@D@2@@std@@MEAAHH@Z
	DQ	FLAT:?pbackfail@?$basic_stringbuf@DU?$char_traits@D@std@@V?$allocator@D@2@@std@@MEAAHH@Z
	DQ	FLAT:?showmanyc@?$basic_streambuf@DU?$char_traits@D@std@@@std@@MEAA_JXZ
	DQ	FLAT:?underflow@?$basic_stringbuf@DU?$char_traits@D@std@@V?$allocator@D@2@@std@@MEAAHXZ
	DQ	FLAT:?uflow@?$basic_streambuf@DU?$char_traits@D@std@@@std@@MEAAHXZ
	DQ	FLAT:?xsgetn@?$basic_streambuf@DU?$char_traits@D@std@@@std@@MEAA_JPEAD_J@Z
	DQ	FLAT:?xsputn@?$basic_streambuf@DU?$char_traits@D@std@@@std@@MEAA_JPEBD_J@Z
	DQ	FLAT:?seekoff@?$basic_stringbuf@DU?$char_traits@D@std@@V?$allocator@D@2@@std@@MEAA?AV?$fpos@U_Mbstatet@@@2@_JHH@Z
	DQ	FLAT:?seekpos@?$basic_stringbuf@DU?$char_traits@D@std@@V?$allocator@D@2@@std@@MEAA?AV?$fpos@U_Mbstatet@@@2@V32@H@Z
	DQ	FLAT:?setbuf@?$basic_streambuf@DU?$char_traits@D@std@@@std@@MEAAPEAV12@PEAD_J@Z
	DQ	FLAT:?sync@?$basic_streambuf@DU?$char_traits@D@std@@@std@@MEAAHXZ
	DQ	FLAT:?imbue@?$basic_streambuf@DU?$char_traits@D@std@@@std@@MEAAXAEBVlocale@2@@Z
CONST	ENDS
;	COMDAT ??_R1A@?0A@EA@Button_UI_Element@@8
rdata$r	SEGMENT
??_R1A@?0A@EA@Button_UI_Element@@8 DD imagerel ??_R0?AVButton_UI_Element@@@8 ; Button_UI_Element::`RTTI Base Class Descriptor at (0,-1,0,64)'
	DD	01H
	DD	00H
	DD	0ffffffffH
	DD	00H
	DD	040H
	DD	imagerel ??_R3Button_UI_Element@@8
rdata$r	ENDS
;	COMDAT ??_R4Pistol@@6B@
rdata$r	SEGMENT
??_R4Pistol@@6B@ DD 01H					; Pistol::`RTTI Complete Object Locator'
	DD	00H
	DD	00H
	DD	imagerel ??_R0?AVPistol@@@8
	DD	imagerel ??_R3Pistol@@8
	DD	imagerel ??_R4Pistol@@6B@
rdata$r	ENDS
;	COMDAT ??_R0?AVItem@@@8
data$rs	SEGMENT
??_R0?AVItem@@@8 DQ FLAT:??_7type_info@@6B@		; Item `RTTI Type Descriptor'
	DQ	0000000000000000H
	DB	'.?AVItem@@', 00H
data$rs	ENDS
;	COMDAT _TI2?AVbad_cast@std@@
xdata$x	SEGMENT
_TI2?AVbad_cast@std@@ DD 00H
	DD	imagerel ??1bad_cast@std@@UEAA@XZ
	DD	00H
	DD	imagerel _CTA2?AVbad_cast@std@@
xdata$x	ENDS
;	COMDAT ??_R0?AVbad_cast@std@@@8
data$r	SEGMENT
??_R0?AVbad_cast@std@@@8 DQ FLAT:??_7type_info@@6B@	; std::bad_cast `RTTI Type Descriptor'
	DQ	0000000000000000H
	DB	'.?AVbad_cast@std@@', 00H
data$r	ENDS
;	COMDAT ??_R1A@?0A@EA@Sphere_Hitbox@@8
rdata$r	SEGMENT
??_R1A@?0A@EA@Sphere_Hitbox@@8 DD imagerel ??_R0?AVSphere_Hitbox@@@8 ; Sphere_Hitbox::`RTTI Base Class Descriptor at (0,-1,0,64)'
	DD	01H
	DD	00H
	DD	0ffffffffH
	DD	00H
	DD	040H
	DD	imagerel ??_R3Sphere_Hitbox@@8
rdata$r	ENDS
;	COMDAT ??_R2Test_Enemy_Controller@@8
rdata$r	SEGMENT
??_R2Test_Enemy_Controller@@8 DD imagerel ??_R1A@?0A@EA@Test_Enemy_Controller@@8 ; Test_Enemy_Controller::`RTTI Base Class Array'
	DD	imagerel ??_R1A@?0A@EA@Damageable_Controller@@8
	DD	imagerel ??_R1A@?0A@EA@Controller@@8
	ORG $+3
rdata$r	ENDS
;	COMDAT ??_R1A@?0A@EA@UI_Controller@@8
rdata$r	SEGMENT
??_R1A@?0A@EA@UI_Controller@@8 DD imagerel ??_R0?AVUI_Controller@@@8 ; UI_Controller::`RTTI Base Class Descriptor at (0,-1,0,64)'
	DD	00H
	DD	00H
	DD	0ffffffffH
	DD	00H
	DD	040H
	DD	imagerel ??_R3UI_Controller@@8
rdata$r	ENDS
;	COMDAT ??_7UI_Fade_In_Effect_Controller@@6B@
CONST	SEGMENT
??_7UI_Fade_In_Effect_Controller@@6B@ DQ FLAT:??_R4UI_Fade_In_Effect_Controller@@6B@ ; UI_Fade_In_Effect_Controller::`vftable'
	DQ	FLAT:?Control_Function@UI_Fade_In_Effect_Controller@@UEAAXPEAVUI_Element@@@Z
CONST	ENDS
;	COMDAT ??_R3Physics_Object_Controller@@8
rdata$r	SEGMENT
??_R3Physics_Object_Controller@@8 DD 00H		; Physics_Object_Controller::`RTTI Class Hierarchy Descriptor'
	DD	00H
	DD	02H
	DD	imagerel ??_R2Physics_Object_Controller@@8
rdata$r	ENDS
;	COMDAT ??_R0?AVText_UI_Element@@@8
data$rs	SEGMENT
??_R0?AVText_UI_Element@@@8 DQ FLAT:??_7type_info@@6B@	; Text_UI_Element `RTTI Type Descriptor'
	DQ	0000000000000000H
	DB	'.?AVText_UI_Element@@', 00H
data$rs	ENDS
;	COMDAT ??_R0?AVVent_Smoke_Controller@@@8
data$rs	SEGMENT
??_R0?AVVent_Smoke_Controller@@@8 DQ FLAT:??_7type_info@@6B@ ; Vent_Smoke_Controller `RTTI Type Descriptor'
	DQ	0000000000000000H
	DB	'.?AVVent_Smoke_Controller@@', 00H
data$rs	ENDS
;	COMDAT ??_R3Button_Text_UI_Element@@8
rdata$r	SEGMENT
??_R3Button_Text_UI_Element@@8 DD 00H			; Button_Text_UI_Element::`RTTI Class Hierarchy Descriptor'
	DD	00H
	DD	03H
	DD	imagerel ??_R2Button_Text_UI_Element@@8
rdata$r	ENDS
;	COMDAT ??_R1A@?0A@EA@Alarm_Light_Controller@@8
rdata$r	SEGMENT
??_R1A@?0A@EA@Alarm_Light_Controller@@8 DD imagerel ??_R0?AVAlarm_Light_Controller@@@8 ; Alarm_Light_Controller::`RTTI Base Class Descriptor at (0,-1,0,64)'
	DD	01H
	DD	00H
	DD	0ffffffffH
	DD	00H
	DD	040H
	DD	imagerel ??_R3Alarm_Light_Controller@@8
rdata$r	ENDS
;	COMDAT ??_R2MaterialFileReader@tinyobj@@8
rdata$r	SEGMENT
??_R2MaterialFileReader@tinyobj@@8 DD imagerel ??_R1A@?0A@EA@MaterialFileReader@tinyobj@@8 ; tinyobj::MaterialFileReader::`RTTI Base Class Array'
	DD	imagerel ??_R1A@?0A@EA@MaterialReader@tinyobj@@8
	ORG $+3
rdata$r	ENDS
;	COMDAT ??_R3?$basic_istringstream@DU?$char_traits@D@std@@V?$allocator@D@2@@std@@8
rdata$r	SEGMENT
??_R3?$basic_istringstream@DU?$char_traits@D@std@@V?$allocator@D@2@@std@@8 DD 00H ; std::basic_istringstream<char,std::char_traits<char>,std::allocator<char> >::`RTTI Class Hierarchy Descriptor'
	DD	00H
	DD	05H
	DD	imagerel ??_R2?$basic_istringstream@DU?$char_traits@D@std@@V?$allocator@D@2@@std@@8
rdata$r	ENDS
;	COMDAT ??_R2UI_Controller@@8
rdata$r	SEGMENT
??_R2UI_Controller@@8 DD imagerel ??_R1A@?0A@EA@UI_Controller@@8 ; UI_Controller::`RTTI Base Class Array'
	ORG $+3
rdata$r	ENDS
;	COMDAT ??_R4UI_Controller@@6B@
rdata$r	SEGMENT
??_R4UI_Controller@@6B@ DD 01H				; UI_Controller::`RTTI Complete Object Locator'
	DD	00H
	DD	00H
	DD	imagerel ??_R0?AVUI_Controller@@@8
	DD	imagerel ??_R3UI_Controller@@8
	DD	imagerel ??_R4UI_Controller@@6B@
rdata$r	ENDS
;	COMDAT ?length_dezigzag@?1??stbi__compute_huffman_codes@@YAHPEAUstbi__zbuf@@@Z@4QBEB
CONST	SEGMENT
?length_dezigzag@?1??stbi__compute_huffman_codes@@YAHPEAUstbi__zbuf@@@Z@4QBEB DB 010H ; `stbi__compute_huffman_codes'::`2'::length_dezigzag
	DB	011H
	DB	012H
	DB	00H
	DB	08H
	DB	07H
	DB	09H
	DB	06H
	DB	0aH
	DB	05H
	DB	0bH
	DB	04H
	DB	0cH
	DB	03H
	DB	0dH
	DB	02H
	DB	0eH
	DB	01H
	DB	0fH
CONST	ENDS
;	COMDAT ??_R3?$basic_ios@DU?$char_traits@D@std@@@std@@8
rdata$r	SEGMENT
??_R3?$basic_ios@DU?$char_traits@D@std@@@std@@8 DD 00H	; std::basic_ios<char,std::char_traits<char> >::`RTTI Class Hierarchy Descriptor'
	DD	00H
	DD	03H
	DD	imagerel ??_R2?$basic_ios@DU?$char_traits@D@std@@@std@@8
rdata$r	ENDS
;	COMDAT ??_R1A@?0A@EA@AABB_Hitbox@@8
rdata$r	SEGMENT
??_R1A@?0A@EA@AABB_Hitbox@@8 DD imagerel ??_R0?AVAABB_Hitbox@@@8 ; AABB_Hitbox::`RTTI Base Class Descriptor at (0,-1,0,64)'
	DD	01H
	DD	00H
	DD	0ffffffffH
	DD	00H
	DD	040H
	DD	imagerel ??_R3AABB_Hitbox@@8
rdata$r	ENDS
;	COMDAT ??_7bad_cast@std@@6B@
CONST	SEGMENT
??_7bad_cast@std@@6B@ DQ FLAT:??_R4bad_cast@std@@6B@	; std::bad_cast::`vftable'
	DQ	FLAT:??_Ebad_cast@std@@UEAAPEAXI@Z
	DQ	FLAT:?what@exception@std@@UEBAPEBDXZ
CONST	ENDS
;	COMDAT ??_R2?$basic_ostream@DU?$char_traits@D@std@@@std@@8
rdata$r	SEGMENT
??_R2?$basic_ostream@DU?$char_traits@D@std@@@std@@8 DD imagerel ??_R1A@?0A@EA@?$basic_ostream@DU?$char_traits@D@std@@@std@@8 ; std::basic_ostream<char,std::char_traits<char> >::`RTTI Base Class Array'
	DD	imagerel ??_R1A@A@3FA@?$basic_ios@DU?$char_traits@D@std@@@std@@8
	DD	imagerel ??_R1A@A@3EA@ios_base@std@@8
	DD	imagerel ??_R17A@3EA@?$_Iosb@H@std@@8
	ORG $+3
rdata$r	ENDS
;	COMDAT ??_R2Item@@8
rdata$r	SEGMENT
??_R2Item@@8 DD	imagerel ??_R1A@?0A@EA@Item@@8		; Item::`RTTI Base Class Array'
	ORG $+3
rdata$r	ENDS
;	COMDAT ??_R2exception@std@@8
rdata$r	SEGMENT
??_R2exception@std@@8 DD imagerel ??_R1A@?0A@EA@exception@std@@8 ; std::exception::`RTTI Base Class Array'
	ORG $+3
rdata$r	ENDS
;	COMDAT ??_R2bad_cast@std@@8
rdata$r	SEGMENT
??_R2bad_cast@std@@8 DD imagerel ??_R1A@?0A@EA@bad_cast@std@@8 ; std::bad_cast::`RTTI Base Class Array'
	DD	imagerel ??_R1A@?0A@EA@exception@std@@8
	ORG $+3
rdata$r	ENDS
;	COMDAT ??_7Physics_Object@Physics@@6B@
CONST	SEGMENT
??_7Physics_Object@Physics@@6B@ DQ FLAT:??_R4Physics_Object@Physics@@6B@ ; Physics::Physics_Object::`vftable'
	DQ	FLAT:?Resolve_Collision@Physics_Object@Physics@@UEAAXPEAVImpulse_Object@2@@Z
	DQ	FLAT:?Step@Physics_Object@Physics@@UEAAXXZ
CONST	ENDS
;	COMDAT ??_R3?$basic_stringbuf@DU?$char_traits@D@std@@V?$allocator@D@2@@std@@8
rdata$r	SEGMENT
??_R3?$basic_stringbuf@DU?$char_traits@D@std@@V?$allocator@D@2@@std@@8 DD 00H ; std::basic_stringbuf<char,std::char_traits<char>,std::allocator<char> >::`RTTI Class Hierarchy Descriptor'
	DD	00H
	DD	02H
	DD	imagerel ??_R2?$basic_stringbuf@DU?$char_traits@D@std@@V?$allocator@D@2@@std@@8
rdata$r	ENDS
;	COMDAT ??_7Button_Text_UI_Element@@6B@
CONST	SEGMENT
??_7Button_Text_UI_Element@@6B@ DQ FLAT:??_R4Button_Text_UI_Element@@6B@ ; Button_Text_UI_Element::`vftable'
	DQ	FLAT:?Render_Border@UI_Element@@UEAAXVUI_Transformed_Coordinates@@@Z
	DQ	FLAT:?Render@Text_UI_Element@@UEAAXVUI_Transformed_Coordinates@@@Z
	DQ	FLAT:?Update_UI@Button_Text_UI_Element@@UEAAXXZ
	DQ	FLAT:?Render_Text@Text_UI_Element@@UEAAXV?$basic_string@DU?$char_traits@D@std@@V?$allocator@D@2@@std@@VUI_Transformed_Coordinates@@M@Z
CONST	ENDS
;	COMDAT ??_R1A@?0A@EA@Model_Vertex_Buffer@@8
rdata$r	SEGMENT
??_R1A@?0A@EA@Model_Vertex_Buffer@@8 DD imagerel ??_R0?AVModel_Vertex_Buffer@@@8 ; Model_Vertex_Buffer::`RTTI Base Class Descriptor at (0,-1,0,64)'
	DD	01H
	DD	00H
	DD	0ffffffffH
	DD	00H
	DD	040H
	DD	imagerel ??_R3Model_Vertex_Buffer@@8
rdata$r	ENDS
;	COMDAT ??_7Hitbox@@6B@
CONST	SEGMENT
??_7Hitbox@@6B@ DQ FLAT:??_R4Hitbox@@6B@		; Hitbox::`vftable'
	DQ	FLAT:?Hitdetection@Hitbox@@UEAA?AVCollision_Info@@PEAV1@@Z
	DQ	FLAT:?AABB_Hitdetection@Hitbox@@UEAA?AVCollision_Info@@PEAVAABB_Hitbox@@@Z
	DQ	FLAT:?Sphere_Hitdetection@Hitbox@@UEAA?AVCollision_Info@@PEAVSphere_Hitbox@@@Z
	DQ	FLAT:?Mesh_Hitdetection@Hitbox@@UEAA?AVCollision_Info@@PEAVMesh_Hitbox@@@Z
	DQ	FLAT:?Get_Bounds@Hitbox@@UEAA?AUBlockmap_Bounds@@XZ
	DQ	FLAT:?Update_Hitbox@Hitbox@@UEAAXXZ
CONST	ENDS
;	COMDAT ??_R0?AV?$basic_streambuf@DU?$char_traits@D@std@@@std@@@8
data$rs	SEGMENT
??_R0?AV?$basic_streambuf@DU?$char_traits@D@std@@@std@@@8 DQ FLAT:??_7type_info@@6B@ ; std::basic_streambuf<char,std::char_traits<char> > `RTTI Type Descriptor'
	DQ	0000000000000000H
	DB	'.?AV?$basic_streambuf@DU?$char_traits@D@std@@@std@@', 00H
data$rs	ENDS
;	COMDAT ??_R2Sphere_Hitbox@@8
rdata$r	SEGMENT
??_R2Sphere_Hitbox@@8 DD imagerel ??_R1A@?0A@EA@Sphere_Hitbox@@8 ; Sphere_Hitbox::`RTTI Base Class Array'
	DD	imagerel ??_R1A@?0A@EA@Hitbox@@8
	ORG $+3
rdata$r	ENDS
;	COMDAT ??_7bad_alloc@std@@6B@
CONST	SEGMENT
??_7bad_alloc@std@@6B@ DQ FLAT:??_R4bad_alloc@std@@6B@	; std::bad_alloc::`vftable'
	DQ	FLAT:??_Ebad_alloc@std@@UEAAPEAXI@Z
	DQ	FLAT:?what@exception@std@@UEBAPEBDXZ
CONST	ENDS
;	COMDAT ??_R1A@?0A@EA@Vent_Smoke_Controller@@8
rdata$r	SEGMENT
??_R1A@?0A@EA@Vent_Smoke_Controller@@8 DD imagerel ??_R0?AVVent_Smoke_Controller@@@8 ; Vent_Smoke_Controller::`RTTI Base Class Descriptor at (0,-1,0,64)'
	DD	01H
	DD	00H
	DD	0ffffffffH
	DD	00H
	DD	040H
	DD	imagerel ??_R3Vent_Smoke_Controller@@8
rdata$r	ENDS
;	COMDAT ??_R4Door_Controller@@6B@
rdata$r	SEGMENT
??_R4Door_Controller@@6B@ DD 01H			; Door_Controller::`RTTI Complete Object Locator'
	DD	00H
	DD	00H
	DD	imagerel ??_R0?AVDoor_Controller@@@8
	DD	imagerel ??_R3Door_Controller@@8
	DD	imagerel ??_R4Door_Controller@@6B@
rdata$r	ENDS
;	COMDAT ??_R2UI_Filling_Bar_Controller@@8
rdata$r	SEGMENT
??_R2UI_Filling_Bar_Controller@@8 DD imagerel ??_R1A@?0A@EA@UI_Filling_Bar_Controller@@8 ; UI_Filling_Bar_Controller::`RTTI Base Class Array'
	DD	imagerel ??_R1A@?0A@EA@UI_Controller@@8
	ORG $+3
rdata$r	ENDS
;	COMDAT ??_R2UI_Loading_Screen_Icon_Controller@@8
rdata$r	SEGMENT
??_R2UI_Loading_Screen_Icon_Controller@@8 DD imagerel ??_R1A@?0A@EA@UI_Loading_Screen_Icon_Controller@@8 ; UI_Loading_Screen_Icon_Controller::`RTTI Base Class Array'
	DD	imagerel ??_R1A@?0A@EA@UI_Controller@@8
	ORG $+3
rdata$r	ENDS
;	COMDAT ??_R1A@?0A@EA@Billboard_Vertex_Buffer@@8
rdata$r	SEGMENT
??_R1A@?0A@EA@Billboard_Vertex_Buffer@@8 DD imagerel ??_R0?AVBillboard_Vertex_Buffer@@@8 ; Billboard_Vertex_Buffer::`RTTI Base Class Descriptor at (0,-1,0,64)'
	DD	01H
	DD	00H
	DD	0ffffffffH
	DD	00H
	DD	040H
	DD	imagerel ??_R3Billboard_Vertex_Buffer@@8
rdata$r	ENDS
;	COMDAT ??_R1A@?0A@EA@Button_Text_UI_Element@@8
rdata$r	SEGMENT
??_R1A@?0A@EA@Button_Text_UI_Element@@8 DD imagerel ??_R0?AVButton_Text_UI_Element@@@8 ; Button_Text_UI_Element::`RTTI Base Class Descriptor at (0,-1,0,64)'
	DD	02H
	DD	00H
	DD	0ffffffffH
	DD	00H
	DD	040H
	DD	imagerel ??_R3Button_Text_UI_Element@@8
rdata$r	ENDS
;	COMDAT _CTA2?AVbad_cast@std@@
xdata$x	SEGMENT
_CTA2?AVbad_cast@std@@ DD 02H
	DD	imagerel _CT??_R0?AVbad_cast@std@@@8??0bad_cast@std@@QEAA@AEBV01@@Z24
	DD	imagerel _CT??_R0?AVexception@std@@@8??0exception@std@@QEAA@AEBV01@@Z24
xdata$x	ENDS
;	COMDAT ??_R3UI_Filling_Bar_Controller@@8
rdata$r	SEGMENT
??_R3UI_Filling_Bar_Controller@@8 DD 00H		; UI_Filling_Bar_Controller::`RTTI Class Hierarchy Descriptor'
	DD	00H
	DD	02H
	DD	imagerel ??_R2UI_Filling_Bar_Controller@@8
rdata$r	ENDS
;	COMDAT ??_R2Physics_Object@Physics@@8
rdata$r	SEGMENT
??_R2Physics_Object@Physics@@8 DD imagerel ??_R1A@?0A@EA@Physics_Object@Physics@@8 ; Physics::Physics_Object::`RTTI Base Class Array'
	ORG $+3
rdata$r	ENDS
;	COMDAT ??_R1A@?0A@EA@Physics_Object_Controller@@8
rdata$r	SEGMENT
??_R1A@?0A@EA@Physics_Object_Controller@@8 DD imagerel ??_R0?AVPhysics_Object_Controller@@@8 ; Physics_Object_Controller::`RTTI Base Class Descriptor at (0,-1,0,64)'
	DD	01H
	DD	00H
	DD	0ffffffffH
	DD	00H
	DD	040H
	DD	imagerel ??_R3Physics_Object_Controller@@8
rdata$r	ENDS
;	COMDAT ??_R2UI_Fade_In_Effect_Controller@@8
rdata$r	SEGMENT
??_R2UI_Fade_In_Effect_Controller@@8 DD imagerel ??_R1A@?0A@EA@UI_Fade_In_Effect_Controller@@8 ; UI_Fade_In_Effect_Controller::`RTTI Base Class Array'
	DD	imagerel ??_R1A@?0A@EA@UI_Controller@@8
	ORG $+3
rdata$r	ENDS
;	COMDAT ??_R0?AVUI_Fade_In_Effect_Controller@@@8
data$rs	SEGMENT
??_R0?AVUI_Fade_In_Effect_Controller@@@8 DQ FLAT:??_7type_info@@6B@ ; UI_Fade_In_Effect_Controller `RTTI Type Descriptor'
	DQ	0000000000000000H
	DB	'.?AVUI_Fade_In_Effect_Controller@@', 00H
data$rs	ENDS
;	COMDAT ??_R3UI_Fade_Effect_Controller@@8
rdata$r	SEGMENT
??_R3UI_Fade_Effect_Controller@@8 DD 00H		; UI_Fade_Effect_Controller::`RTTI Class Hierarchy Descriptor'
	DD	00H
	DD	02H
	DD	imagerel ??_R2UI_Fade_Effect_Controller@@8
rdata$r	ENDS
;	COMDAT ??_R4Button_Text_UI_Element@@6B@
rdata$r	SEGMENT
??_R4Button_Text_UI_Element@@6B@ DD 01H			; Button_Text_UI_Element::`RTTI Complete Object Locator'
	DD	00H
	DD	00H
	DD	imagerel ??_R0?AVButton_Text_UI_Element@@@8
	DD	imagerel ??_R3Button_Text_UI_Element@@8
	DD	imagerel ??_R4Button_Text_UI_Element@@6B@
rdata$r	ENDS
;	COMDAT ??_R0?AV?$_Iosb@H@std@@@8
data$rs	SEGMENT
??_R0?AV?$_Iosb@H@std@@@8 DQ FLAT:??_7type_info@@6B@	; std::_Iosb<int> `RTTI Type Descriptor'
	DQ	0000000000000000H
	DB	'.?AV?$_Iosb@H@std@@', 00H
data$rs	ENDS
;	COMDAT ??_7UI_Filling_Bar_Controller@@6B@
CONST	SEGMENT
??_7UI_Filling_Bar_Controller@@6B@ DQ FLAT:??_R4UI_Filling_Bar_Controller@@6B@ ; UI_Filling_Bar_Controller::`vftable'
	DQ	FLAT:?Control_Function@UI_Filling_Bar_Controller@@UEAAXPEAVUI_Element@@@Z
CONST	ENDS
;	COMDAT ??_R0?AVUI_Controller@@@8
data$rs	SEGMENT
??_R0?AVUI_Controller@@@8 DQ FLAT:??_7type_info@@6B@	; UI_Controller `RTTI Type Descriptor'
	DQ	0000000000000000H
	DB	'.?AVUI_Controller@@', 00H
data$rs	ENDS
;	COMDAT ??_R2Button_Text_UI_Element@@8
rdata$r	SEGMENT
??_R2Button_Text_UI_Element@@8 DD imagerel ??_R1A@?0A@EA@Button_Text_UI_Element@@8 ; Button_Text_UI_Element::`RTTI Base Class Array'
	DD	imagerel ??_R1A@?0A@EA@Text_UI_Element@@8
	DD	imagerel ??_R1A@?0A@EA@UI_Element@@8
	ORG $+3
rdata$r	ENDS
;	COMDAT ??_R0?AVPhysics_Object@Physics@@@8
data$rs	SEGMENT
??_R0?AVPhysics_Object@Physics@@@8 DQ FLAT:??_7type_info@@6B@ ; Physics::Physics_Object `RTTI Type Descriptor'
	DQ	0000000000000000H
	DB	'.?AVPhysics_Object@Physics@@', 00H
?Inputs_Keycode@@3V?$array@G$0M@@std@@A DW 057H		; Inputs_Keycode
	DW	053H
	DW	041H
	DW	044H
	DW	020H
	DW	0154H
	DW	0100H
	DW	051H
	DW	045H
	DW	046H
	DW	052H
	DW	031H
?Cursor_Reset@@3_NA DB 01H				; Cursor_Reset
	ORG $+7
?Leaf_Nodes_Info@Lighting_BVH@@3PAULeaf_Node_Bounds@1@A DD 0ffH ; Lighting_BVH::Leaf_Nodes_Info
	DD	047c34f80r			; 99999
	DD	047c34f80r			; 99999
	DD	0ffH
	DD	047c34f80r			; 99999
	DD	047c34f80r			; 99999
	DD	0ffH
	DD	047c34f80r			; 99999
	DD	047c34f80r			; 99999
	DD	0ffH
	DD	047c34f80r			; 99999
	DD	047c34f80r			; 99999
	DD	0ffH
	DD	047c34f80r			; 99999
	DD	047c34f80r			; 99999
	DD	0ffH
	DD	047c34f80r			; 99999
	DD	047c34f80r			; 99999
	DD	0ffH
	DD	047c34f80r			; 99999
	DD	047c34f80r			; 99999
	DD	0ffH
	DD	047c34f80r			; 99999
	DD	047c34f80r			; 99999
	DD	0ffH
	DD	047c34f80r			; 99999
	DD	047c34f80r			; 99999
	DD	0ffH
	DD	047c34f80r			; 99999
	DD	047c34f80r			; 99999
	DD	0ffH
	DD	047c34f80r			; 99999
	DD	047c34f80r			; 99999
	DD	0ffH
	DD	047c34f80r			; 99999
	DD	047c34f80r			; 99999
	DD	0ffH
	DD	047c34f80r			; 99999
	DD	047c34f80r			; 99999
	DD	0ffH
	DD	047c34f80r			; 99999
	DD	047c34f80r			; 99999
	DD	0ffH
	DD	047c34f80r			; 99999
	DD	047c34f80r			; 99999
	DD	0ffH
	DD	047c34f80r			; 99999
	DD	047c34f80r			; 99999
	DD	0ffH
	DD	047c34f80r			; 99999
	DD	047c34f80r			; 99999
	DD	0ffH
	DD	047c34f80r			; 99999
	DD	047c34f80r			; 99999
	DD	0ffH
	DD	047c34f80r			; 99999
	DD	047c34f80r			; 99999
	DD	0ffH
	DD	047c34f80r			; 99999
	DD	047c34f80r			; 99999
	DD	0ffH
	DD	047c34f80r			; 99999
	DD	047c34f80r			; 99999
	DD	0ffH
	DD	047c34f80r			; 99999
	DD	047c34f80r			; 99999
	DD	0ffH
	DD	047c34f80r			; 99999
	DD	047c34f80r			; 99999
	DD	0ffH
	DD	047c34f80r			; 99999
	DD	047c34f80r			; 99999
	DD	0ffH
	DD	047c34f80r			; 99999
	DD	047c34f80r			; 99999
	DD	0ffH
	DD	047c34f80r			; 99999
	DD	047c34f80r			; 99999
	DD	0ffH
	DD	047c34f80r			; 99999
	DD	047c34f80r			; 99999
	DD	0ffH
	DD	047c34f80r			; 99999
	DD	047c34f80r			; 99999
	DD	0ffH
	DD	047c34f80r			; 99999
	DD	047c34f80r			; 99999
	DD	0ffH
	DD	047c34f80r			; 99999
	DD	047c34f80r			; 99999
	DD	0ffH
	DD	047c34f80r			; 99999
	DD	047c34f80r			; 99999
	DD	0ffH
	DD	047c34f80r			; 99999
	DD	047c34f80r			; 99999
	DD	0ffH
	DD	047c34f80r			; 99999
	DD	047c34f80r			; 99999
	DD	0ffH
	DD	047c34f80r			; 99999
	DD	047c34f80r			; 99999
	DD	0ffH
	DD	047c34f80r			; 99999
	DD	047c34f80r			; 99999
	DD	0ffH
	DD	047c34f80r			; 99999
	DD	047c34f80r			; 99999
	DD	0ffH
	DD	047c34f80r			; 99999
	DD	047c34f80r			; 99999
	DD	0ffH
	DD	047c34f80r			; 99999
	DD	047c34f80r			; 99999
	DD	0ffH
	DD	047c34f80r			; 99999
	DD	047c34f80r			; 99999
	DD	0ffH
	DD	047c34f80r			; 99999
	DD	047c34f80r			; 99999
	DD	0ffH
	DD	047c34f80r			; 99999
	DD	047c34f80r			; 99999
	DD	0ffH
	DD	047c34f80r			; 99999
	DD	047c34f80r			; 99999
	DD	0ffH
	DD	047c34f80r			; 99999
	DD	047c34f80r			; 99999
	DD	0ffH
	DD	047c34f80r			; 99999
	DD	047c34f80r			; 99999
	DD	0ffH
	DD	047c34f80r			; 99999
	DD	047c34f80r			; 99999
	DD	0ffH
	DD	047c34f80r			; 99999
	DD	047c34f80r			; 99999
	DD	0ffH
	DD	047c34f80r			; 99999
	DD	047c34f80r			; 99999
	DD	0ffH
	DD	047c34f80r			; 99999
	DD	047c34f80r			; 99999
	DD	0ffH
	DD	047c34f80r			; 99999
	DD	047c34f80r			; 99999
	DD	0ffH
	DD	047c34f80r			; 99999
	DD	047c34f80r			; 99999
	DD	0ffH
	DD	047c34f80r			; 99999
	DD	047c34f80r			; 99999
	DD	0ffH
	DD	047c34f80r			; 99999
	DD	047c34f80r			; 99999
	DD	0ffH
	DD	047c34f80r			; 99999
	DD	047c34f80r			; 99999
	DD	0ffH
	DD	047c34f80r			; 99999
	DD	047c34f80r			; 99999
	DD	0ffH
	DD	047c34f80r			; 99999
	DD	047c34f80r			; 99999
	DD	0ffH
	DD	047c34f80r			; 99999
	DD	047c34f80r			; 99999
	DD	0ffH
	DD	047c34f80r			; 99999
	DD	047c34f80r			; 99999
	DD	0ffH
	DD	047c34f80r			; 99999
	DD	047c34f80r			; 99999
	DD	0ffH
	DD	047c34f80r			; 99999
	DD	047c34f80r			; 99999
	DD	0ffH
	DD	047c34f80r			; 99999
	DD	047c34f80r			; 99999
	DD	0ffH
	DD	047c34f80r			; 99999
	DD	047c34f80r			; 99999
	DD	0ffH
	DD	047c34f80r			; 99999
	DD	047c34f80r			; 99999
	DD	0ffH
	DD	047c34f80r			; 99999
	DD	047c34f80r			; 99999
	DD	0ffH
	DD	047c34f80r			; 99999
	DD	047c34f80r			; 99999
?Control_Key_Inputs@UI_Typing@@3PAUKey_Press_Info@1@A DD 000000000r ; 0 ; UI_Typing::Control_Key_Inputs
	DD	0103H
	DD	000000000r			; 0
	DD	0107H
	DD	000000000r			; 0
	DD	0106H
	DD	000000000r			; 0
	DD	0101H
?Music_Volume@@3MA DD 03f000000r		; 0.5	; Music_Volume
?Window_Aspect_Ratio@@3MA DD 03f000000r		; 0.5	; Window_Aspect_Ratio
?Window_Width@@3HA DD 0640H				; Window_Width
?Window_Height@@3HA DD 0320H				; Window_Height
?Sound_Effect_Volume@@3MA DD 03f000000r		; 0.5	; Sound_Effect_Volume
_DATA	ENDS
;	COMDAT ??_R2Pistol@@8
rdata$r	SEGMENT
??_R2Pistol@@8 DD imagerel ??_R1A@?0A@EA@Pistol@@8	; Pistol::`RTTI Base Class Array'
	DD	imagerel ??_R1A@?0A@EA@Item@@8
	ORG $+3
rdata$r	ENDS
;	COMDAT ??_R2?$basic_istream@DU?$char_traits@D@std@@@std@@8
rdata$r	SEGMENT
??_R2?$basic_istream@DU?$char_traits@D@std@@@std@@8 DD imagerel ??_R1A@?0A@EA@?$basic_istream@DU?$char_traits@D@std@@@std@@8 ; std::basic_istream<char,std::char_traits<char> >::`RTTI Base Class Array'
	DD	imagerel ??_R1A@A@3FA@?$basic_ios@DU?$char_traits@D@std@@@std@@8
	DD	imagerel ??_R1A@A@3EA@ios_base@std@@8
	DD	imagerel ??_R17A@3EA@?$_Iosb@H@std@@8
	ORG $+3
rdata$r	ENDS
;	COMDAT ??_R3Vent_Smoke_Controller@@8
rdata$r	SEGMENT
??_R3Vent_Smoke_Controller@@8 DD 00H			; Vent_Smoke_Controller::`RTTI Class Hierarchy Descriptor'
	DD	00H
	DD	02H
	DD	imagerel ??_R2Vent_Smoke_Controller@@8
rdata$r	ENDS
;	COMDAT ??_8?$basic_stringstream@DU?$char_traits@D@std@@V?$allocator@D@2@@std@@7B?$basic_ostream@DU?$char_traits@D@std@@@1@@
CONST	SEGMENT
??_8?$basic_stringstream@DU?$char_traits@D@std@@V?$allocator@D@2@@std@@7B?$basic_ostream@DU?$char_traits@D@std@@@1@@ DD 00H ; std::basic_stringstream<char,std::char_traits<char>,std::allocator<char> >::`vbtable'
	DD	088H
CONST	ENDS
;	COMDAT ??_7Phone_Controller@@6B@
CONST	SEGMENT
??_7Phone_Controller@@6B@ DQ FLAT:??_R4Phone_Controller@@6B@ ; Phone_Controller::`vftable'
	DQ	FLAT:?Control_Function@Phone_Controller@@UEAAXXZ
	DQ	FLAT:?Initialise_Control@Phone_Controller@@UEAAXPEAVModel@@@Z
CONST	ENDS
;	COMDAT ??_R4UI_Filling_Bar_Controller@@6B@
rdata$r	SEGMENT
??_R4UI_Filling_Bar_Controller@@6B@ DD 01H		; UI_Filling_Bar_Controller::`RTTI Complete Object Locator'
	DD	00H
	DD	00H
	DD	imagerel ??_R0?AVUI_Filling_Bar_Controller@@@8
	DD	imagerel ??_R3UI_Filling_Bar_Controller@@8
	DD	imagerel ??_R4UI_Filling_Bar_Controller@@6B@
rdata$r	ENDS
;	COMDAT ??_7?$basic_filebuf@DU?$char_traits@D@std@@@std@@6B@
CONST	SEGMENT
??_7?$basic_filebuf@DU?$char_traits@D@std@@@std@@6B@ DQ FLAT:??_R4?$basic_filebuf@DU?$char_traits@D@std@@@std@@6B@ ; std::basic_filebuf<char,std::char_traits<char> >::`vftable'
	DQ	FLAT:??_E?$basic_filebuf@DU?$char_traits@D@std@@@std@@UEAAPEAXI@Z
	DQ	FLAT:?_Lock@?$basic_filebuf@DU?$char_traits@D@std@@@std@@UEAAXXZ
	DQ	FLAT:?_Unlock@?$basic_filebuf@DU?$char_traits@D@std@@@std@@UEAAXXZ
	DQ	FLAT:?overflow@?$basic_filebuf@DU?$char_traits@D@std@@@std@@MEAAHH@Z
	DQ	FLAT:?pbackfail@?$basic_filebuf@DU?$char_traits@D@std@@@std@@MEAAHH@Z
	DQ	FLAT:?showmanyc@?$basic_streambuf@DU?$char_traits@D@std@@@std@@MEAA_JXZ
	DQ	FLAT:?underflow@?$basic_filebuf@DU?$char_traits@D@std@@@std@@MEAAHXZ
	DQ	FLAT:?uflow@?$basic_filebuf@DU?$char_traits@D@std@@@std@@MEAAHXZ
	DQ	FLAT:?xsgetn@?$basic_filebuf@DU?$char_traits@D@std@@@std@@MEAA_JPEAD_J@Z
	DQ	FLAT:?xsputn@?$basic_filebuf@DU?$char_traits@D@std@@@std@@MEAA_JPEBD_J@Z
	DQ	FLAT:?seekoff@?$basic_filebuf@DU?$char_traits@D@std@@@std@@MEAA?AV?$fpos@U_Mbstatet@@@2@_JHH@Z
	DQ	FLAT:?seekpos@?$basic_filebuf@DU?$char_traits@D@std@@@std@@MEAA?AV?$fpos@U_Mbstatet@@@2@V32@H@Z
	DQ	FLAT:?setbuf@?$basic_filebuf@DU?$char_traits@D@std@@@std@@MEAAPEAV?$basic_streambuf@DU?$char_traits@D@std@@@2@PEAD_J@Z
	DQ	FLAT:?sync@?$basic_filebuf@DU?$char_traits@D@std@@@std@@MEAAHXZ
	DQ	FLAT:?imbue@?$basic_filebuf@DU?$char_traits@D@std@@@std@@MEAAXAEBVlocale@2@@Z
CONST	ENDS
;	COMDAT ??_R1A@?0A@EA@bad_alloc@std@@8
rdata$r	SEGMENT
??_R1A@?0A@EA@bad_alloc@std@@8 DD imagerel ??_R0?AVbad_alloc@std@@@8 ; std::bad_alloc::`RTTI Base Class Descriptor at (0,-1,0,64)'
	DD	01H
	DD	00H
	DD	0ffffffffH
	DD	00H
	DD	040H
	DD	imagerel ??_R3bad_alloc@std@@8
rdata$r	ENDS
;	COMDAT ??_R3Phone_Controller@@8
rdata$r	SEGMENT
??_R3Phone_Controller@@8 DD 00H				; Phone_Controller::`RTTI Class Hierarchy Descriptor'
	DD	00H
	DD	02H
	DD	imagerel ??_R2Phone_Controller@@8
rdata$r	ENDS
;	COMDAT ??_R1A@?0A@EA@?$basic_streambuf@DU?$char_traits@D@std@@@std@@8
rdata$r	SEGMENT
??_R1A@?0A@EA@?$basic_streambuf@DU?$char_traits@D@std@@@std@@8 DD imagerel ??_R0?AV?$basic_streambuf@DU?$char_traits@D@std@@@std@@@8 ; std::basic_streambuf<char,std::char_traits<char> >::`RTTI Base Class Descriptor at (0,-1,0,64)'
	DD	00H
	DD	00H
	DD	0ffffffffH
	DD	00H
	DD	040H
	DD	imagerel ??_R3?$basic_streambuf@DU?$char_traits@D@std@@@std@@8
rdata$r	ENDS
;	COMDAT ??_R1A@?0A@EA@Controller@@8
rdata$r	SEGMENT
??_R1A@?0A@EA@Controller@@8 DD imagerel ??_R0?AVController@@@8 ; Controller::`RTTI Base Class Descriptor at (0,-1,0,64)'
	DD	00H
	DD	00H
	DD	0ffffffffH
	DD	00H
	DD	040H
	DD	imagerel ??_R3Controller@@8
rdata$r	ENDS
;	COMDAT ??_R4Test_Enemy_Controller@@6B@
rdata$r	SEGMENT
??_R4Test_Enemy_Controller@@6B@ DD 01H			; Test_Enemy_Controller::`RTTI Complete Object Locator'
	DD	00H
	DD	00H
	DD	imagerel ??_R0?AVTest_Enemy_Controller@@@8
	DD	imagerel ??_R3Test_Enemy_Controller@@8
	DD	imagerel ??_R4Test_Enemy_Controller@@6B@
rdata$r	ENDS
;	COMDAT ??_R1A@?0A@EA@UI_Element@@8
rdata$r	SEGMENT
??_R1A@?0A@EA@UI_Element@@8 DD imagerel ??_R0?AVUI_Element@@@8 ; UI_Element::`RTTI Base Class Descriptor at (0,-1,0,64)'
	DD	00H
	DD	00H
	DD	0ffffffffH
	DD	00H
	DD	040H
	DD	imagerel ??_R3UI_Element@@8
rdata$r	ENDS
;	COMDAT ??_R2Vent_Smoke_Controller@@8
rdata$r	SEGMENT
??_R2Vent_Smoke_Controller@@8 DD imagerel ??_R1A@?0A@EA@Vent_Smoke_Controller@@8 ; Vent_Smoke_Controller::`RTTI Base Class Array'
	DD	imagerel ??_R1A@?0A@EA@Controller@@8
	ORG $+3
rdata$r	ENDS
;	COMDAT ??_R3Model_Vertex_Buffer@@8
rdata$r	SEGMENT
??_R3Model_Vertex_Buffer@@8 DD 00H			; Model_Vertex_Buffer::`RTTI Class Hierarchy Descriptor'
	DD	00H
	DD	02H
	DD	imagerel ??_R2Model_Vertex_Buffer@@8
rdata$r	ENDS
;	COMDAT ??_R2Base_Vertex_Buffer@@8
rdata$r	SEGMENT
??_R2Base_Vertex_Buffer@@8 DD imagerel ??_R1A@?0A@EA@Base_Vertex_Buffer@@8 ; Base_Vertex_Buffer::`RTTI Base Class Array'
	ORG $+3
rdata$r	ENDS
;	COMDAT ??_R3Base_Vertex_Buffer@@8
rdata$r	SEGMENT
??_R3Base_Vertex_Buffer@@8 DD 00H			; Base_Vertex_Buffer::`RTTI Class Hierarchy Descriptor'
	DD	00H
	DD	01H
	DD	imagerel ??_R2Base_Vertex_Buffer@@8
rdata$r	ENDS
;	COMDAT ??_R1A@?0A@EA@Decal_Vertex_Buffer@@8
rdata$r	SEGMENT
??_R1A@?0A@EA@Decal_Vertex_Buffer@@8 DD imagerel ??_R0?AVDecal_Vertex_Buffer@@@8 ; Decal_Vertex_Buffer::`RTTI Base Class Descriptor at (0,-1,0,64)'
	DD	01H
	DD	00H
	DD	0ffffffffH
	DD	00H
	DD	040H
	DD	imagerel ??_R3Decal_Vertex_Buffer@@8
rdata$r	ENDS
;	COMDAT ??_R1A@?0A@EA@exception@std@@8
rdata$r	SEGMENT
??_R1A@?0A@EA@exception@std@@8 DD imagerel ??_R0?AVexception@std@@@8 ; std::exception::`RTTI Base Class Descriptor at (0,-1,0,64)'
	DD	00H
	DD	00H
	DD	0ffffffffH
	DD	00H
	DD	040H
	DD	imagerel ??_R3exception@std@@8
rdata$r	ENDS
;	COMDAT ??_R4UI_Loading_Screen_Icon_Controller@@6B@
rdata$r	SEGMENT
??_R4UI_Loading_Screen_Icon_Controller@@6B@ DD 01H	; UI_Loading_Screen_Icon_Controller::`RTTI Complete Object Locator'
	DD	00H
	DD	00H
	DD	imagerel ??_R0?AVUI_Loading_Screen_Icon_Controller@@@8
	DD	imagerel ??_R3UI_Loading_Screen_Icon_Controller@@8
	DD	imagerel ??_R4UI_Loading_Screen_Icon_Controller@@6B@
rdata$r	ENDS
;	COMDAT ??_R0?AVUI_Fade_Out_Effect_Controller@@@8
data$rs	SEGMENT
??_R0?AVUI_Fade_Out_Effect_Controller@@@8 DQ FLAT:??_7type_info@@6B@ ; UI_Fade_Out_Effect_Controller `RTTI Type Descriptor'
	DQ	0000000000000000H
	DB	'.?AVUI_Fade_Out_Effect_Controller@@', 00H
data$rs	ENDS
;	COMDAT ??_R1A@?0A@EA@?$basic_stringstream@DU?$char_traits@D@std@@V?$allocator@D@2@@std@@8
rdata$r	SEGMENT
??_R1A@?0A@EA@?$basic_stringstream@DU?$char_traits@D@std@@V?$allocator@D@2@@std@@8 DD imagerel ??_R0?AV?$basic_stringstream@DU?$char_traits@D@std@@V?$allocator@D@2@@std@@@8 ; std::basic_stringstream<char,std::char_traits<char>,std::allocator<char> >::`RTTI Base Class Descriptor at (0,-1,0,64)'
	DD	09H
	DD	00H
	DD	0ffffffffH
	DD	00H
	DD	040H
	DD	imagerel ??_R3?$basic_stringstream@DU?$char_traits@D@std@@V?$allocator@D@2@@std@@8
rdata$r	ENDS
;	COMDAT ??_R0?AVSphere_Hitbox@@@8
data$rs	SEGMENT
??_R0?AVSphere_Hitbox@@@8 DQ FLAT:??_7type_info@@6B@	; Sphere_Hitbox `RTTI Type Descriptor'
	DQ	0000000000000000H
	DB	'.?AVSphere_Hitbox@@', 00H
data$rs	ENDS
;	COMDAT ??_R3Damageable_Vent_Controller@@8
rdata$r	SEGMENT
??_R3Damageable_Vent_Controller@@8 DD 00H		; Damageable_Vent_Controller::`RTTI Class Hierarchy Descriptor'
	DD	00H
	DD	03H
	DD	imagerel ??_R2Damageable_Vent_Controller@@8
rdata$r	ENDS
;	COMDAT ??_R17A@3EA@?$_Iosb@H@std@@8
rdata$r	SEGMENT
??_R17A@3EA@?$_Iosb@H@std@@8 DD imagerel ??_R0?AV?$_Iosb@H@std@@@8 ; std::_Iosb<int>::`RTTI Base Class Descriptor at (8,0,4,64)'
	DD	00H
	DD	08H
	DD	00H
	DD	04H
	DD	040H
	DD	imagerel ??_R3?$_Iosb@H@std@@8
rdata$r	ENDS
;	COMDAT ??_R0?AVBillboard_Vertex_Buffer@@@8
data$rs	SEGMENT
??_R0?AVBillboard_Vertex_Buffer@@@8 DQ FLAT:??_7type_info@@6B@ ; Billboard_Vertex_Buffer `RTTI Type Descriptor'
	DQ	0000000000000000H
	DB	'.?AVBillboard_Vertex_Buffer@@', 00H
data$rs	ENDS
;	COMDAT ??_R0?AV?$basic_iostream@DU?$char_traits@D@std@@@std@@@8
data$rs	SEGMENT
??_R0?AV?$basic_iostream@DU?$char_traits@D@std@@@std@@@8 DQ FLAT:??_7type_info@@6B@ ; std::basic_iostream<char,std::char_traits<char> > `RTTI Type Descriptor'
	DQ	0000000000000000H
	DB	'.?AV?$basic_iostream@DU?$char_traits@D@std@@@std@@', 00H
data$rs	ENDS
;	COMDAT ??_R4Sphere_Hitbox@@6B@
rdata$r	SEGMENT
??_R4Sphere_Hitbox@@6B@ DD 01H				; Sphere_Hitbox::`RTTI Complete Object Locator'
	DD	00H
	DD	00H
	DD	imagerel ??_R0?AVSphere_Hitbox@@@8
	DD	imagerel ??_R3Sphere_Hitbox@@8
	DD	imagerel ??_R4Sphere_Hitbox@@6B@
rdata$r	ENDS
;	COMDAT ??_R4Decal_Vertex_Buffer@@6B@
rdata$r	SEGMENT
??_R4Decal_Vertex_Buffer@@6B@ DD 01H			; Decal_Vertex_Buffer::`RTTI Complete Object Locator'
	DD	00H
	DD	00H
	DD	imagerel ??_R0?AVDecal_Vertex_Buffer@@@8
	DD	imagerel ??_R3Decal_Vertex_Buffer@@8
	DD	imagerel ??_R4Decal_Vertex_Buffer@@6B@
rdata$r	ENDS
;	COMDAT ??_7MaterialStreamReader@tinyobj@@6B@
CONST	SEGMENT
??_7MaterialStreamReader@tinyobj@@6B@ DQ FLAT:??_R4MaterialStreamReader@tinyobj@@6B@ ; tinyobj::MaterialStreamReader::`vftable'
	DQ	FLAT:??_EMaterialStreamReader@tinyobj@@UEAAPEAXI@Z
	DQ	FLAT:??RMaterialStreamReader@tinyobj@@UEAA_NAEBV?$basic_string@DU?$char_traits@D@std@@V?$allocator@D@2@@std@@PEAV?$vector@Umaterial_t@tinyobj@@V?$allocator@Umaterial_t@tinyobj@@@std@@@3@PEAV?$map@V?$basic_string@DU?$char_traits@D@std@@V?$allocator@D@2@@std@@HU?$less@V?$basic_string@DU?$char_traits@D@std@@V?$allocator@D@2@@std@@@2@V?$allocator@U?$pair@$$CBV?$basic_string@DU?$char_traits@D@std@@V?$allocator@D@2@@std@@H@std@@@2@@3@PEAV23@3@Z
CONST	ENDS
;	COMDAT ??_R1A@?0A@EA@?$basic_ifstream@DU?$char_traits@D@std@@@std@@8
rdata$r	SEGMENT
??_R1A@?0A@EA@?$basic_ifstream@DU?$char_traits@D@std@@@std@@8 DD imagerel ??_R0?AV?$basic_ifstream@DU?$char_traits@D@std@@@std@@@8 ; std::basic_ifstream<char,std::char_traits<char> >::`RTTI Base Class Descriptor at (0,-1,0,64)'
	DD	04H
	DD	00H
	DD	0ffffffffH
	DD	00H
	DD	040H
	DD	imagerel ??_R3?$basic_ifstream@DU?$char_traits@D@std@@@std@@8
rdata$r	ENDS
;	COMDAT ??_R4Hitbox@@6B@
rdata$r	SEGMENT
??_R4Hitbox@@6B@ DD 01H					; Hitbox::`RTTI Complete Object Locator'
	DD	00H
	DD	00H
	DD	imagerel ??_R0?AVHitbox@@@8
	DD	imagerel ??_R3Hitbox@@8
	DD	imagerel ??_R4Hitbox@@6B@
rdata$r	ENDS
;	COMDAT ??_7bad_array_new_length@std@@6B@
CONST	SEGMENT
??_7bad_array_new_length@std@@6B@ DQ FLAT:??_R4bad_array_new_length@std@@6B@ ; std::bad_array_new_length::`vftable'
	DQ	FLAT:??_Ebad_array_new_length@std@@UEAAPEAXI@Z
	DQ	FLAT:?what@exception@std@@UEBAPEBDXZ
CONST	ENDS
;	COMDAT ??_R0?AVDoor_Controller@@@8
data$rs	SEGMENT
??_R0?AVDoor_Controller@@@8 DQ FLAT:??_7type_info@@6B@	; Door_Controller `RTTI Type Descriptor'
	DQ	0000000000000000H
	DB	'.?AVDoor_Controller@@', 00H
data$rs	ENDS
;	COMDAT ??_R4Physics_Object@Physics@@6B@
rdata$r	SEGMENT
??_R4Physics_Object@Physics@@6B@ DD 01H			; Physics::Physics_Object::`RTTI Complete Object Locator'
	DD	00H
	DD	00H
	DD	imagerel ??_R0?AVPhysics_Object@Physics@@@8
	DD	imagerel ??_R3Physics_Object@Physics@@8
	DD	imagerel ??_R4Physics_Object@Physics@@6B@
rdata$r	ENDS
;	COMDAT _CTA3?AVbad_array_new_length@std@@
xdata$x	SEGMENT
_CTA3?AVbad_array_new_length@std@@ DD 03H
	DD	imagerel _CT??_R0?AVbad_array_new_length@std@@@8??0bad_array_new_length@std@@QEAA@AEBV01@@Z24
	DD	imagerel _CT??_R0?AVbad_alloc@std@@@8??0bad_alloc@std@@QEAA@AEBV01@@Z24
	DD	imagerel _CT??_R0?AVexception@std@@@8??0exception@std@@QEAA@AEBV01@@Z24
xdata$x	ENDS
;	COMDAT ??_R2UI_Fade_Out_Effect_Controller@@8
rdata$r	SEGMENT
??_R2UI_Fade_Out_Effect_Controller@@8 DD imagerel ??_R1A@?0A@EA@UI_Fade_Out_Effect_Controller@@8 ; UI_Fade_Out_Effect_Controller::`RTTI Base Class Array'
	DD	imagerel ??_R1A@?0A@EA@UI_Controller@@8
	ORG $+3
rdata$r	ENDS
;	COMDAT ??_R2Controller@@8
rdata$r	SEGMENT
??_R2Controller@@8 DD imagerel ??_R1A@?0A@EA@Controller@@8 ; Controller::`RTTI Base Class Array'
	ORG $+3
rdata$r	ENDS
;	COMDAT ??_R0?AVMaterialStreamReader@tinyobj@@@8
data$rs	SEGMENT
??_R0?AVMaterialStreamReader@tinyobj@@@8 DQ FLAT:??_7type_info@@6B@ ; tinyobj::MaterialStreamReader `RTTI Type Descriptor'
	DQ	0000000000000000H
	DB	'.?AVMaterialStreamReader@tinyobj@@', 00H
data$rs	ENDS
;	COMDAT ??_R4Damageable_Vent_Controller@@6B@
rdata$r	SEGMENT
??_R4Damageable_Vent_Controller@@6B@ DD 01H		; Damageable_Vent_Controller::`RTTI Complete Object Locator'
	DD	00H
	DD	00H
	DD	imagerel ??_R0?AVDamageable_Vent_Controller@@@8
	DD	imagerel ??_R3Damageable_Vent_Controller@@8
	DD	imagerel ??_R4Damageable_Vent_Controller@@6B@
rdata$r	ENDS
;	COMDAT ??_R0?AVUI_Loading_Screen_Icon_Controller@@@8
data$rs	SEGMENT
??_R0?AVUI_Loading_Screen_Icon_Controller@@@8 DQ FLAT:??_7type_info@@6B@ ; UI_Loading_Screen_Icon_Controller `RTTI Type Descriptor'
	DQ	0000000000000000H
	DB	'.?AVUI_Loading_Screen_Icon_Controller@@', 00H
data$rs	ENDS
;	COMDAT ??_R2?$basic_stringbuf@DU?$char_traits@D@std@@V?$allocator@D@2@@std@@8
rdata$r	SEGMENT
??_R2?$basic_stringbuf@DU?$char_traits@D@std@@V?$allocator@D@2@@std@@8 DD imagerel ??_R1A@?0A@EA@?$basic_stringbuf@DU?$char_traits@D@std@@V?$allocator@D@2@@std@@8 ; std::basic_stringbuf<char,std::char_traits<char>,std::allocator<char> >::`RTTI Base Class Array'
	DD	imagerel ??_R1A@?0A@EA@?$basic_streambuf@DU?$char_traits@D@std@@@std@@8
	ORG $+3
rdata$r	ENDS
;	COMDAT ??_R3Text_UI_Element@@8
rdata$r	SEGMENT
??_R3Text_UI_Element@@8 DD 00H				; Text_UI_Element::`RTTI Class Hierarchy Descriptor'
	DD	00H
	DD	02H
	DD	imagerel ??_R2Text_UI_Element@@8
rdata$r	ENDS
;	COMDAT ??_R0?AVios_base@std@@@8
data$rs	SEGMENT
??_R0?AVios_base@std@@@8 DQ FLAT:??_7type_info@@6B@	; std::ios_base `RTTI Type Descriptor'
	DQ	0000000000000000H
	DB	'.?AVios_base@std@@', 00H
data$rs	ENDS
;	COMDAT ??_R3MaterialFileReader@tinyobj@@8
rdata$r	SEGMENT
??_R3MaterialFileReader@tinyobj@@8 DD 00H		; tinyobj::MaterialFileReader::`RTTI Class Hierarchy Descriptor'
	DD	00H
	DD	02H
	DD	imagerel ??_R2MaterialFileReader@tinyobj@@8
rdata$r	ENDS
;	COMDAT ??_R2bad_alloc@std@@8
rdata$r	SEGMENT
??_R2bad_alloc@std@@8 DD imagerel ??_R1A@?0A@EA@bad_alloc@std@@8 ; std::bad_alloc::`RTTI Base Class Array'
	DD	imagerel ??_R1A@?0A@EA@exception@std@@8
	ORG $+3
rdata$r	ENDS
;	COMDAT ??_R0?AV?$basic_stringbuf@DU?$char_traits@D@std@@V?$allocator@D@2@@std@@@8
data$rs	SEGMENT
??_R0?AV?$basic_stringbuf@DU?$char_traits@D@std@@V?$allocator@D@2@@std@@@8 DQ FLAT:??_7type_info@@6B@ ; std::basic_stringbuf<char,std::char_traits<char>,std::allocator<char> > `RTTI Type Descriptor'
	DQ	0000000000000000H
	DB	'.?AV?$basic_stringbuf@DU?$char_traits@D@std@@V?$allocato'
	DB	'r@D@2@@std@@', 00H
data$rs	ENDS
;	COMDAT ??_R3Item@@8
rdata$r	SEGMENT
??_R3Item@@8 DD	00H					; Item::`RTTI Class Hierarchy Descriptor'
	DD	00H
	DD	01H
	DD	imagerel ??_R2Item@@8
rdata$r	ENDS
;	COMDAT ??_R4Item@@6B@
rdata$r	SEGMENT
??_R4Item@@6B@ DD 01H					; Item::`RTTI Complete Object Locator'
	DD	00H
	DD	00H
	DD	imagerel ??_R0?AVItem@@@8
	DD	imagerel ??_R3Item@@8
	DD	imagerel ??_R4Item@@6B@
rdata$r	ENDS
;	COMDAT ??_R1A@?0A@EA@MaterialReader@tinyobj@@8
rdata$r	SEGMENT
??_R1A@?0A@EA@MaterialReader@tinyobj@@8 DD imagerel ??_R0?AVMaterialReader@tinyobj@@@8 ; tinyobj::MaterialReader::`RTTI Base Class Descriptor at (0,-1,0,64)'
	DD	00H
	DD	00H
	DD	0ffffffffH
	DD	00H
	DD	040H
	DD	imagerel ??_R3MaterialReader@tinyobj@@8
rdata$r	ENDS
;	COMDAT ??_7UI_Fade_Out_Effect_Controller@@6B@
CONST	SEGMENT
??_7UI_Fade_Out_Effect_Controller@@6B@ DQ FLAT:??_R4UI_Fade_Out_Effect_Controller@@6B@ ; UI_Fade_Out_Effect_Controller::`vftable'
	DQ	FLAT:?Control_Function@UI_Fade_Out_Effect_Controller@@UEAAXPEAVUI_Element@@@Z
CONST	ENDS
;	COMDAT ?mul_table@?1??stbi__shiftsigned@@YAHIHH@Z@4PAIA
CONST	SEGMENT
?mul_table@?1??stbi__shiftsigned@@YAHIHH@Z@4PAIA DD 00H	; `stbi__shiftsigned'::`2'::mul_table
	DD	0ffH
	DD	055H
	DD	049H
	DD	011H
	DD	021H
	DD	041H
	DD	081H
	DD	01H
CONST	ENDS
;	COMDAT ??_7Billboard_Vertex_Buffer@@6B@
CONST	SEGMENT
??_7Billboard_Vertex_Buffer@@6B@ DQ FLAT:??_R4Billboard_Vertex_Buffer@@6B@ ; Billboard_Vertex_Buffer::`vftable'
	DQ	FLAT:?Create_Buffer@Billboard_Vertex_Buffer@@UEAAXXZ
	DQ	FLAT:?Bind_Buffer@Billboard_Vertex_Buffer@@UEAAXXZ
	DQ	FLAT:?Update_Vertices@Base_Vertex_Buffer@@UEAAXXZ
	DQ	FLAT:?Update_Buffer@Billboard_Vertex_Buffer@@UEAAXXZ
	DQ	FLAT:?Delete_Buffer@Billboard_Vertex_Buffer@@UEAAXXZ
CONST	ENDS
;	COMDAT ??_R3?$basic_ifstream@DU?$char_traits@D@std@@@std@@8
rdata$r	SEGMENT
??_R3?$basic_ifstream@DU?$char_traits@D@std@@@std@@8 DD 00H ; std::basic_ifstream<char,std::char_traits<char> >::`RTTI Class Hierarchy Descriptor'
	DD	00H
	DD	05H
	DD	imagerel ??_R2?$basic_ifstream@DU?$char_traits@D@std@@@std@@8
rdata$r	ENDS
;	COMDAT ??_7MaterialReader@tinyobj@@6B@
CONST	SEGMENT
??_7MaterialReader@tinyobj@@6B@ DQ FLAT:??_R4MaterialReader@tinyobj@@6B@ ; tinyobj::MaterialReader::`vftable'
	DQ	FLAT:??_EMaterialReader@tinyobj@@UEAAPEAXI@Z
	DQ	FLAT:_purecall
CONST	ENDS
;	COMDAT ??_R1A@?0A@EA@bad_cast@std@@8
rdata$r	SEGMENT
??_R1A@?0A@EA@bad_cast@std@@8 DD imagerel ??_R0?AVbad_cast@std@@@8 ; std::bad_cast::`RTTI Base Class Descriptor at (0,-1,0,64)'
	DD	01H
	DD	00H
	DD	0ffffffffH
	DD	00H
	DD	040H
	DD	imagerel ??_R3bad_cast@std@@8
rdata$r	ENDS
;	COMDAT ??_R3Alarm_Light_Controller@@8
rdata$r	SEGMENT
??_R3Alarm_Light_Controller@@8 DD 00H			; Alarm_Light_Controller::`RTTI Class Hierarchy Descriptor'
	DD	00H
	DD	02H
	DD	imagerel ??_R2Alarm_Light_Controller@@8
rdata$r	ENDS
;	COMDAT ??_R0?AVMesh_Hitbox@@@8
data$rs	SEGMENT
??_R0?AVMesh_Hitbox@@@8 DQ FLAT:??_7type_info@@6B@	; Mesh_Hitbox `RTTI Type Descriptor'
	DQ	0000000000000000H
	DB	'.?AVMesh_Hitbox@@', 00H
data$rs	ENDS
;	COMDAT ?tag@?DG@??stbi__process_marker@@YAHPEAUstbi__jpeg@@H@Z@4QBEB
CONST	SEGMENT
?tag@?DG@??stbi__process_marker@@YAHPEAUstbi__jpeg@@H@Z@4QBEB DB 041H ; `stbi__process_marker'::`54'::tag
	DB	064H
	DB	06fH
	DB	062H
	DB	065H
	DB	00H
CONST	ENDS
;	COMDAT ??_R0?AVButton_Text_UI_Element@@@8
data$rs	SEGMENT
??_R0?AVButton_Text_UI_Element@@@8 DQ FLAT:??_7type_info@@6B@ ; Button_Text_UI_Element `RTTI Type Descriptor'
	DQ	0000000000000000H
	DB	'.?AVButton_Text_UI_Element@@', 00H
data$rs	ENDS
;	COMDAT ??_R2MaterialStreamReader@tinyobj@@8
rdata$r	SEGMENT
??_R2MaterialStreamReader@tinyobj@@8 DD imagerel ??_R1A@?0A@EA@MaterialStreamReader@tinyobj@@8 ; tinyobj::MaterialStreamReader::`RTTI Base Class Array'
	DD	imagerel ??_R1A@?0A@EA@MaterialReader@tinyobj@@8
	ORG $+3
rdata$r	ENDS
;	COMDAT ??_R2Text_UI_Element@@8
rdata$r	SEGMENT
??_R2Text_UI_Element@@8 DD imagerel ??_R1A@?0A@EA@Text_UI_Element@@8 ; Text_UI_Element::`RTTI Base Class Array'
	DD	imagerel ??_R1A@?0A@EA@UI_Element@@8
	ORG $+3
rdata$r	ENDS
;	COMDAT ??_R1A@?0A@EA@Physics_Object@Physics@@8
rdata$r	SEGMENT
??_R1A@?0A@EA@Physics_Object@Physics@@8 DD imagerel ??_R0?AVPhysics_Object@Physics@@@8 ; Physics::Physics_Object::`RTTI Base Class Descriptor at (0,-1,0,64)'
	DD	00H
	DD	00H
	DD	0ffffffffH
	DD	00H
	DD	040H
	DD	imagerel ??_R3Physics_Object@Physics@@8
rdata$r	ENDS
;	COMDAT ??_7Base_Vertex_Buffer@@6B@
CONST	SEGMENT
??_7Base_Vertex_Buffer@@6B@ DQ FLAT:??_R4Base_Vertex_Buffer@@6B@ ; Base_Vertex_Buffer::`vftable'
	DQ	FLAT:?Create_Buffer@Base_Vertex_Buffer@@UEAAXXZ
	DQ	FLAT:?Bind_Buffer@Base_Vertex_Buffer@@UEAAXXZ
	DQ	FLAT:?Update_Vertices@Base_Vertex_Buffer@@UEAAXXZ
	DQ	FLAT:?Update_Buffer@Base_Vertex_Buffer@@UEAAXXZ
	DQ	FLAT:?Delete_Buffer@Base_Vertex_Buffer@@UEAAXXZ
CONST	ENDS
;	COMDAT ??_R4Button_UI_Element@@6B@
rdata$r	SEGMENT
??_R4Button_UI_Element@@6B@ DD 01H			; Button_UI_Element::`RTTI Complete Object Locator'
	DD	00H
	DD	00H
	DD	imagerel ??_R0?AVButton_UI_Element@@@8
	DD	imagerel ??_R3Button_UI_Element@@8
	DD	imagerel ??_R4Button_UI_Element@@6B@
rdata$r	ENDS
;	COMDAT ??_7Pistol@@6B@
CONST	SEGMENT
??_7Pistol@@6B@ DQ FLAT:??_R4Pistol@@6B@		; Pistol::`vftable'
	DQ	FLAT:?Handle_Viewmodel_States@Pistol@@UEAAXXZ
	DQ	FLAT:?Render_Viewmodel@Pistol@@UEAAXXZ
	DQ	FLAT:?Equip_Item@Pistol@@UEAAXXZ
	DQ	FLAT:?Holster@Pistol@@UEAAXXZ
CONST	ENDS
;	COMDAT ??_R0?AV?$basic_ifstream@DU?$char_traits@D@std@@@std@@@8
data$rs	SEGMENT
??_R0?AV?$basic_ifstream@DU?$char_traits@D@std@@@std@@@8 DQ FLAT:??_7type_info@@6B@ ; std::basic_ifstream<char,std::char_traits<char> > `RTTI Type Descriptor'
	DQ	0000000000000000H
	DB	'.?AV?$basic_ifstream@DU?$char_traits@D@std@@@std@@', 00H
data$rs	ENDS
;	COMDAT ??_7Mesh_Hitbox@@6B@
CONST	SEGMENT
??_7Mesh_Hitbox@@6B@ DQ FLAT:??_R4Mesh_Hitbox@@6B@	; Mesh_Hitbox::`vftable'
	DQ	FLAT:?Hitdetection@Mesh_Hitbox@@UEAA?AVCollision_Info@@PEAVHitbox@@@Z
	DQ	FLAT:?AABB_Hitdetection@Mesh_Hitbox@@UEAA?AVCollision_Info@@PEAVAABB_Hitbox@@@Z
	DQ	FLAT:?Sphere_Hitdetection@Mesh_Hitbox@@UEAA?AVCollision_Info@@PEAVSphere_Hitbox@@@Z
	DQ	FLAT:?Mesh_Hitdetection@Mesh_Hitbox@@UEAA?AVCollision_Info@@PEAV1@@Z
	DQ	FLAT:?Get_Bounds@Mesh_Hitbox@@UEAA?AUBlockmap_Bounds@@XZ
	DQ	FLAT:?Update_Hitbox@Mesh_Hitbox@@UEAAXXZ
CONST	ENDS
;	COMDAT ??_R1A@?0A@EA@UI_Fade_In_Effect_Controller@@8
rdata$r	SEGMENT
??_R1A@?0A@EA@UI_Fade_In_Effect_Controller@@8 DD imagerel ??_R0?AVUI_Fade_In_Effect_Controller@@@8 ; UI_Fade_In_Effect_Controller::`RTTI Base Class Descriptor at (0,-1,0,64)'
	DD	01H
	DD	00H
	DD	0ffffffffH
	DD	00H
	DD	040H
	DD	imagerel ??_R3UI_Fade_In_Effect_Controller@@8
rdata$r	ENDS
;	COMDAT ??_R1A@?0A@EA@UI_Fade_Out_Effect_Controller@@8
rdata$r	SEGMENT
??_R1A@?0A@EA@UI_Fade_Out_Effect_Controller@@8 DD imagerel ??_R0?AVUI_Fade_Out_Effect_Controller@@@8 ; UI_Fade_Out_Effect_Controller::`RTTI Base Class Descriptor at (0,-1,0,64)'
	DD	01H
	DD	00H
	DD	0ffffffffH
	DD	00H
	DD	040H
	DD	imagerel ??_R3UI_Fade_Out_Effect_Controller@@8
rdata$r	ENDS
;	COMDAT ??_R3UI_Controller@@8
rdata$r	SEGMENT
??_R3UI_Controller@@8 DD 00H				; UI_Controller::`RTTI Class Hierarchy Descriptor'
	DD	00H
	DD	01H
	DD	imagerel ??_R2UI_Controller@@8
rdata$r	ENDS
;	COMDAT ??_R1A@?0A@EA@?$basic_istream@DU?$char_traits@D@std@@@std@@8
rdata$r	SEGMENT
??_R1A@?0A@EA@?$basic_istream@DU?$char_traits@D@std@@@std@@8 DD imagerel ??_R0?AV?$basic_istream@DU?$char_traits@D@std@@@std@@@8 ; std::basic_istream<char,std::char_traits<char> >::`RTTI Base Class Descriptor at (0,-1,0,64)'
	DD	03H
	DD	00H
	DD	0ffffffffH
	DD	00H
	DD	040H
	DD	imagerel ??_R3?$basic_istream@DU?$char_traits@D@std@@@std@@8
rdata$r	ENDS
;	COMDAT ??_R2UI_Fade_Effect_Controller@@8
rdata$r	SEGMENT
??_R2UI_Fade_Effect_Controller@@8 DD imagerel ??_R1A@?0A@EA@UI_Fade_Effect_Controller@@8 ; UI_Fade_Effect_Controller::`RTTI Base Class Array'
	DD	imagerel ??_R1A@?0A@EA@UI_Controller@@8
	ORG $+3
rdata$r	ENDS
;	COMDAT ??_R3Button_UI_Element@@8
rdata$r	SEGMENT
??_R3Button_UI_Element@@8 DD 00H			; Button_UI_Element::`RTTI Class Hierarchy Descriptor'
	DD	00H
	DD	02H
	DD	imagerel ??_R2Button_UI_Element@@8
rdata$r	ENDS
;	COMDAT ??_R0?AVbad_alloc@std@@@8
data$r	SEGMENT
??_R0?AVbad_alloc@std@@@8 DQ FLAT:??_7type_info@@6B@	; std::bad_alloc `RTTI Type Descriptor'
	DQ	0000000000000000H
	DB	'.?AVbad_alloc@std@@', 00H
data$r	ENDS
;	COMDAT ??_R0?AVHitbox@@@8
data$rs	SEGMENT
??_R0?AVHitbox@@@8 DQ FLAT:??_7type_info@@6B@		; Hitbox `RTTI Type Descriptor'
	DQ	0000000000000000H
	DB	'.?AVHitbox@@', 00H
data$rs	ENDS
;	COMDAT ??_7AABB_Hitbox@@6B@
CONST	SEGMENT
??_7AABB_Hitbox@@6B@ DQ FLAT:??_R4AABB_Hitbox@@6B@	; AABB_Hitbox::`vftable'
	DQ	FLAT:?Hitdetection@AABB_Hitbox@@UEAA?AVCollision_Info@@PEAVHitbox@@@Z
	DQ	FLAT:?AABB_Hitdetection@AABB_Hitbox@@UEAA?AVCollision_Info@@PEAV1@@Z
	DQ	FLAT:?Sphere_Hitdetection@AABB_Hitbox@@UEAA?AVCollision_Info@@PEAVSphere_Hitbox@@@Z
	DQ	FLAT:?Mesh_Hitdetection@AABB_Hitbox@@UEAA?AVCollision_Info@@PEAVMesh_Hitbox@@@Z
	DQ	FLAT:?Get_Bounds@AABB_Hitbox@@UEAA?AUBlockmap_Bounds@@XZ
	DQ	FLAT:?Update_Hitbox@Hitbox@@UEAAXXZ
CONST	ENDS
;	COMDAT ??_R0?AVPhone_Controller@@@8
data$rs	SEGMENT
??_R0?AVPhone_Controller@@@8 DQ FLAT:??_7type_info@@6B@	; Phone_Controller `RTTI Type Descriptor'
	DQ	0000000000000000H
	DB	'.?AVPhone_Controller@@', 00H
data$rs	ENDS
;	COMDAT ??_R2bad_array_new_length@std@@8
rdata$r	SEGMENT
??_R2bad_array_new_length@std@@8 DD imagerel ??_R1A@?0A@EA@bad_array_new_length@std@@8 ; std::bad_array_new_length::`RTTI Base Class Array'
	DD	imagerel ??_R1A@?0A@EA@bad_alloc@std@@8
	DD	imagerel ??_R1A@?0A@EA@exception@std@@8
	ORG $+3
?stbi__jbias@@3QBHB DD 00H				; stbi__jbias
	DD	0ffffffffH
	DD	0fffffffdH
	DD	0fffffff9H
	DD	0fffffff1H
	DD	0ffffffe1H
	DD	0ffffffc1H
	DD	0ffffff81H
	DD	0ffffff01H
	DD	0fffffe01H
	DD	0fffffc01H
	DD	0fffff801H
	DD	0fffff001H
	DD	0ffffe001H
	DD	0ffffc001H
	DD	0ffff8001H
?Use@Controls@@3EA DB 09H				; Controls::Use
?Auxilliary@Controls@@3EA DB 0aH			; Controls::Auxilliary
?Down@Controls@@3EA DB 05H				; Controls::Down
?Item_1@Controls@@3EA DB 0bH				; Controls::Item_1
?Up@Controls@@3EA DB 04H				; Controls::Up
?Right@Controls@@3EA DB 03H				; Controls::Right
?Backwards@Controls@@3EA DB 01H				; Controls::Backwards
?Left@Controls@@3EA DB 02H				; Controls::Left
?Pause@Controls@@3EA DB 06H				; Controls::Pause
?_Fake_alloc@std@@3U_Fake_allocator@1@B	ORG $+1		; std::_Fake_alloc
?piecewise_construct@std@@3Upiecewise_construct_t@1@B	ORG $+1 ; std::piecewise_construct
?Auxilliary@Gamepad_Controls@@3EA DB 04H		; Gamepad_Controls::Auxilliary
?Attack@Gamepad_Controls@@3EA DB 05H			; Gamepad_Controls::Attack
	ORG $+3
?stbi__zdefault_length@@3QBEB DB 08H			; stbi__zdefault_length
	DB	08H
	DB	08H
	DB	08H
	DB	08H
	DB	08H
	DB	08H
	DB	08H
	DB	08H
	DB	08H
	DB	08H
	DB	08H
	DB	08H
	DB	08H
	DB	08H
	DB	08H
	DB	08H
	DB	08H
	DB	08H
	DB	08H
	DB	08H
	DB	08H
	DB	08H
	DB	08H
	DB	08H
	DB	08H
	DB	08H
	DB	08H
	DB	08H
	DB	08H
	DB	08H
	DB	08H
	DB	08H
	DB	08H
	DB	08H
	DB	08H
	DB	08H
	DB	08H
	DB	08H
	DB	08H
	DB	08H
	DB	08H
	DB	08H
	DB	08H
	DB	08H
	DB	08H
	DB	08H
	DB	08H
	DB	08H
	DB	08H
	DB	08H
	DB	08H
	DB	08H
	DB	08H
	DB	08H
	DB	08H
	DB	08H
	DB	08H
	DB	08H
	DB	08H
	DB	08H
	DB	08H
	DB	08H
	DB	08H
	DB	08H
	DB	08H
	DB	08H
	DB	08H
	DB	08H
	DB	08H
	DB	08H
	DB	08H
	DB	08H
	DB	08H
	DB	08H
	DB	08H
	DB	08H
	DB	08H
	DB	08H
	DB	08H
	DB	08H
	DB	08H
	DB	08H
	DB	08H
	DB	08H
	DB	08H
	DB	08H
	DB	08H
	DB	08H
	DB	08H
	DB	08H
	DB	08H
	DB	08H
	DB	08H
	DB	08H
	DB	08H
	DB	08H
	DB	08H
	DB	08H
	DB	08H
	DB	08H
	DB	08H
	DB	08H
	DB	08H
	DB	08H
	DB	08H
	DB	08H
	DB	08H
	DB	08H
	DB	08H
	DB	08H
	DB	08H
	DB	08H
	DB	08H
	DB	08H
	DB	08H
	DB	08H
	DB	08H
	DB	08H
	DB	08H
	DB	08H
	DB	08H
	DB	08H
	DB	08H
	DB	08H
	DB	08H
	DB	08H
	DB	08H
	DB	08H
	DB	08H
	DB	08H
	DB	08H
	DB	08H
	DB	08H
	DB	08H
	DB	08H
	DB	08H
	DB	08H
	DB	08H
	DB	08H
	DB	08H
	DB	08H
	DB	08H
	DB	08H
	DB	09H
	DB	09H
	DB	09H
	DB	09H
	DB	09H
	DB	09H
	DB	09H
	DB	09H
	DB	09H
	DB	09H
	DB	09H
	DB	09H
	DB	09H
	DB	09H
	DB	09H
	DB	09H
	DB	09H
	DB	09H
	DB	09H
	DB	09H
	DB	09H
	DB	09H
	DB	09H
	DB	09H
	DB	09H
	DB	09H
	DB	09H
	DB	09H
	DB	09H
	DB	09H
	DB	09H
	DB	09H
	DB	09H
	DB	09H
	DB	09H
	DB	09H
	DB	09H
	DB	09H
	DB	09H
	DB	09H
	DB	09H
	DB	09H
	DB	09H
	DB	09H
	DB	09H
	DB	09H
	DB	09H
	DB	09H
	DB	09H
	DB	09H
	DB	09H
	DB	09H
	DB	09H
	DB	09H
	DB	09H
	DB	09H
	DB	09H
	DB	09H
	DB	09H
	DB	09H
	DB	09H
	DB	09H
	DB	09H
	DB	09H
	DB	09H
	DB	09H
	DB	09H
	DB	09H
	DB	09H
	DB	09H
	DB	09H
	DB	09H
	DB	09H
	DB	09H
	DB	09H
	DB	09H
	DB	09H
	DB	09H
	DB	09H
	DB	09H
	DB	09H
	DB	09H
	DB	09H
	DB	09H
	DB	09H
	DB	09H
	DB	09H
	DB	09H
	DB	09H
	DB	09H
	DB	09H
	DB	09H
	DB	09H
	DB	09H
	DB	09H
	DB	09H
	DB	09H
	DB	09H
	DB	09H
	DB	09H
	DB	09H
	DB	09H
	DB	09H
	DB	09H
	DB	09H
	DB	09H
	DB	09H
	DB	09H
	DB	09H
	DB	09H
	DB	09H
	DB	09H
	DB	07H
	DB	07H
	DB	07H
	DB	07H
	DB	07H
	DB	07H
	DB	07H
	DB	07H
	DB	07H
	DB	07H
	DB	07H
	DB	07H
	DB	07H
	DB	07H
	DB	07H
	DB	07H
	DB	07H
	DB	07H
	DB	07H
	DB	07H
	DB	07H
	DB	07H
	DB	07H
	DB	07H
	DB	08H
	DB	08H
	DB	08H
	DB	08H
	DB	08H
	DB	08H
	DB	08H
	DB	08H
?Max_Master_Volume@@3MB DD 03fa66666r		; 1.3	; Max_Master_Volume
?Boundary_Max_Value@Lighting_BVH@@3MA DD 041b00000r ; 22 ; Lighting_BVH::Boundary_Max_Value
?One@@3MB DD	03f800000r			; 1	; One
?Selected_Difficulty@@3W4Difficulty@@A DD 03H		; Selected_Difficulty
?stbi__jpeg_dezigzag@@3QBEB DB 00H			; stbi__jpeg_dezigzag
	DB	01H
	DB	08H
	DB	010H
	DB	09H
	DB	02H
	DB	03H
	DB	0aH
	DB	011H
	DB	018H
	DB	020H
	DB	019H
	DB	012H
	DB	0bH
	DB	04H
	DB	05H
	DB	0cH
	DB	013H
	DB	01aH
	DB	021H
	DB	028H
	DB	030H
	DB	029H
	DB	022H
	DB	01bH
	DB	014H
	DB	0dH
	DB	06H
	DB	07H
	DB	0eH
	DB	015H
	DB	01cH
	DB	023H
	DB	02aH
	DB	031H
	DB	038H
	DB	039H
	DB	032H
	DB	02bH
	DB	024H
	DB	01dH
	DB	016H
	DB	0fH
	DB	017H
	DB	01eH
	DB	025H
	DB	02cH
	DB	033H
	DB	03aH
	DB	03bH
	DB	034H
	DB	02dH
	DB	026H
	DB	01fH
	DB	027H
	DB	02eH
	DB	035H
	DB	03cH
	DB	03dH
	DB	036H
	DB	02fH
	DB	037H
	DB	03eH
	DB	03fH
	DB	03fH
	DB	03fH
	DB	03fH
	DB	03fH
	DB	03fH
	DB	03fH
	DB	03fH
	DB	03fH
	DB	03fH
	DB	03fH
	DB	03fH
	DB	03fH
	DB	03fH
	DB	03fH
	DB	03fH
	ORG $+1
?stbi__zlength_base@@3QBHB DD 03H			; stbi__zlength_base
	DD	04H
	DD	05H
	DD	06H
	DD	07H
	DD	08H
	DD	09H
	DD	0aH
	DD	0bH
	DD	0dH
	DD	0fH
	DD	011H
	DD	013H
	DD	017H
	DD	01bH
	DD	01fH
	DD	023H
	DD	02bH
	DD	033H
	DD	03bH
	DD	043H
	DD	053H
	DD	063H
	DD	073H
	DD	083H
	DD	0a3H
	DD	0c3H
	DD	0e3H
	DD	0102H
	DD	00H
	DD	00H
?stbi__h2l_gamma_i@@3MA DD 03ee8ba2er		; 0.454545 ; stbi__h2l_gamma_i
?stbi__zdist_base@@3QBHB DD 01H				; stbi__zdist_base
	DD	02H
	DD	03H
	DD	04H
	DD	05H
	DD	07H
	DD	09H
	DD	0dH
	DD	011H
	DD	019H
	DD	021H
	DD	031H
	DD	041H
	DD	061H
	DD	081H
	DD	0c1H
	DD	0101H
	DD	0181H
	DD	0201H
	DD	0301H
	DD	0401H
	DD	0601H
	DD	0801H
	DD	0c01H
	DD	01001H
	DD	01801H
	DD	02001H
	DD	03001H
	DD	04001H
	DD	06001H
	DD	00H
	DD	00H
?stbi__bmask@@3QBIB DD 00H				; stbi__bmask
	DD	01H
	DD	03H
	DD	07H
	DD	0fH
	DD	01fH
	DD	03fH
	DD	07fH
	DD	0ffH
	DD	01ffH
	DD	03ffH
	DD	07ffH
	DD	0fffH
	DD	01fffH
	DD	03fffH
	DD	07fffH
	DD	0ffffH
?Block_Size@Blockmap@@3MA DD 03f800000r		; 1	; Blockmap::Block_Size
?stbi__h2l_scale_i@@3MA DD 03f800000r		; 1	; stbi__h2l_scale_i
?Mouse_Sensitivity@@3MA DD 03f000000r		; 0.5	; Mouse_Sensitivity
?stbi__zlength_extra@@3QBHB DD 00H			; stbi__zlength_extra
	DD	00H
	DD	00H
	DD	00H
	DD	00H
	DD	00H
	DD	00H
	DD	00H
	DD	01H
	DD	01H
	DD	01H
	DD	01H
	DD	02H
	DD	02H
	DD	02H
	DD	02H
	DD	03H
	DD	03H
	DD	03H
	DD	03H
	DD	04H
	DD	04H
	DD	04H
	DD	04H
	DD	05H
	DD	05H
	DD	05H
	DD	05H
	DD	00H
	DD	00H
	DD	00H
?first_row_filter@@3PAEA DB 00H				; first_row_filter
	DB	01H
	DB	00H
	DB	05H
	DB	06H
	ORG $+7
?stbi__depth_scale_table@@3QBEB DB 00H			; stbi__depth_scale_table
	DB	0ffH
	DB	055H
	DB	00H
	DB	011H
	DB	00H
	DB	00H
	DB	00H
	DB	01H
	ORG $+7
?stbi__zdefault_distance@@3QBEB DB 05H			; stbi__zdefault_distance
	DB	05H
	DB	05H
	DB	05H
	DB	05H
	DB	05H
	DB	05H
	DB	05H
	DB	05H
	DB	05H
	DB	05H
	DB	05H
	DB	05H
	DB	05H
	DB	05H
	DB	05H
	DB	05H
	DB	05H
	DB	05H
	DB	05H
	DB	05H
	DB	05H
	DB	05H
	DB	05H
	DB	05H
	DB	05H
	DB	05H
	DB	05H
	DB	05H
	DB	05H
	DB	05H
	DB	05H
	ORG $+8
?stbi__zdist_extra@@3QBHB DD 00H			; stbi__zdist_extra
	DD	00H
	DD	00H
	DD	00H
	DD	01H
	DD	01H
	DD	02H
	DD	02H
	DD	03H
	DD	03H
	DD	04H
	DD	04H
	DD	05H
	DD	05H
	DD	06H
	DD	06H
	DD	07H
	DD	07H
	DD	08H
	DD	08H
	DD	09H
	DD	09H
	DD	0aH
	DD	0aH
	DD	0bH
	DD	0bH
	DD	0cH
	DD	0cH
	DD	0dH
	DD	0dH
	ORG $+8
CONST	ENDS
;	COMDAT ??_R2?$basic_istringstream@DU?$char_traits@D@std@@V?$allocator@D@2@@std@@8
rdata$r	SEGMENT
??_R2?$basic_istringstream@DU?$char_traits@D@std@@V?$allocator@D@2@@std@@8 DD imagerel ??_R1A@?0A@EA@?$basic_istringstream@DU?$char_traits@D@std@@V?$allocator@D@2@@std@@8 ; std::basic_istringstream<char,std::char_traits<char>,std::allocator<char> >::`RTTI Base Class Array'
	DD	imagerel ??_R1A@?0A@EA@?$basic_istream@DU?$char_traits@D@std@@@std@@8
	DD	imagerel ??_R1A@A@3FA@?$basic_ios@DU?$char_traits@D@std@@@std@@8
	DD	imagerel ??_R1A@A@3EA@ios_base@std@@8
	DD	imagerel ??_R17A@3EA@?$_Iosb@H@std@@8
	ORG $+3
rdata$r	ENDS
;	COMDAT ?tag@?CN@??stbi__process_marker@@YAHPEAUstbi__jpeg@@H@Z@4QBEB
CONST	SEGMENT
?tag@?CN@??stbi__process_marker@@YAHPEAUstbi__jpeg@@H@Z@4QBEB DB 04aH ; `stbi__process_marker'::`45'::tag
	DB	046H
	DB	049H
	DB	046H
	DB	00H
CONST	ENDS
;	COMDAT ??_R1A@?0A@EA@Base_Vertex_Buffer@@8
rdata$r	SEGMENT
??_R1A@?0A@EA@Base_Vertex_Buffer@@8 DD imagerel ??_R0?AVBase_Vertex_Buffer@@@8 ; Base_Vertex_Buffer::`RTTI Base Class Descriptor at (0,-1,0,64)'
	DD	00H
	DD	00H
	DD	0ffffffffH
	DD	00H
	DD	040H
	DD	imagerel ??_R3Base_Vertex_Buffer@@8
rdata$r	ENDS
;	COMDAT ?invalid_chunk@?JM@??stbi__parse_png_file@@YAHPEAUstbi__png@@HH@Z@4PADA
_DATA	SEGMENT
?invalid_chunk@?JM@??stbi__parse_png_file@@YAHPEAUstbi__png@@HH@Z@4PADA DB 'X'
	DB	'XXX PNG chunk not known', 00H		; `stbi__parse_png_file'::`156'::invalid_chunk
_DATA	ENDS
;	COMDAT ??_R4Thought_Popups_Controller@@6B@
rdata$r	SEGMENT
??_R4Thought_Popups_Controller@@6B@ DD 01H		; Thought_Popups_Controller::`RTTI Complete Object Locator'
	DD	00H
	DD	00H
	DD	imagerel ??_R0?AVThought_Popups_Controller@@@8
	DD	imagerel ??_R3Thought_Popups_Controller@@8
	DD	imagerel ??_R4Thought_Popups_Controller@@6B@
rdata$r	ENDS
;	COMDAT ??_R0?AVUI_Element@@@8
data$rs	SEGMENT
??_R0?AVUI_Element@@@8 DQ FLAT:??_7type_info@@6B@	; UI_Element `RTTI Type Descriptor'
	DQ	0000000000000000H
	DB	'.?AVUI_Element@@', 00H
data$rs	ENDS
;	COMDAT ??_R0?AVUI_Filling_Bar_Controller@@@8
data$rs	SEGMENT
??_R0?AVUI_Filling_Bar_Controller@@@8 DQ FLAT:??_7type_info@@6B@ ; UI_Filling_Bar_Controller `RTTI Type Descriptor'
	DQ	0000000000000000H
	DB	'.?AVUI_Filling_Bar_Controller@@', 00H
data$rs	ENDS
;	COMDAT ??_R1A@?0A@EA@?$basic_istringstream@DU?$char_traits@D@std@@V?$allocator@D@2@@std@@8
rdata$r	SEGMENT
??_R1A@?0A@EA@?$basic_istringstream@DU?$char_traits@D@std@@V?$allocator@D@2@@std@@8 DD imagerel ??_R0?AV?$basic_istringstream@DU?$char_traits@D@std@@V?$allocator@D@2@@std@@@8 ; std::basic_istringstream<char,std::char_traits<char>,std::allocator<char> >::`RTTI Base Class Descriptor at (0,-1,0,64)'
	DD	04H
	DD	00H
	DD	0ffffffffH
	DD	00H
	DD	040H
	DD	imagerel ??_R3?$basic_istringstream@DU?$char_traits@D@std@@V?$allocator@D@2@@std@@8
rdata$r	ENDS
;	COMDAT ??_R4exception@std@@6B@
rdata$r	SEGMENT
??_R4exception@std@@6B@ DD 01H				; std::exception::`RTTI Complete Object Locator'
	DD	00H
	DD	00H
	DD	imagerel ??_R0?AVexception@std@@@8
	DD	imagerel ??_R3exception@std@@8
	DD	imagerel ??_R4exception@std@@6B@
rdata$r	ENDS
;	COMDAT ??_R3Thought_Popups_Controller@@8
rdata$r	SEGMENT
??_R3Thought_Popups_Controller@@8 DD 00H		; Thought_Popups_Controller::`RTTI Class Hierarchy Descriptor'
	DD	00H
	DD	02H
	DD	imagerel ??_R2Thought_Popups_Controller@@8
rdata$r	ENDS
;	COMDAT ??_R2MaterialReader@tinyobj@@8
rdata$r	SEGMENT
??_R2MaterialReader@tinyobj@@8 DD imagerel ??_R1A@?0A@EA@MaterialReader@tinyobj@@8 ; tinyobj::MaterialReader::`RTTI Base Class Array'
	ORG $+3
rdata$r	ENDS
;	COMDAT ??_R0?AV?$basic_filebuf@DU?$char_traits@D@std@@@std@@@8
data$rs	SEGMENT
??_R0?AV?$basic_filebuf@DU?$char_traits@D@std@@@std@@@8 DQ FLAT:??_7type_info@@6B@ ; std::basic_filebuf<char,std::char_traits<char> > `RTTI Type Descriptor'
	DQ	0000000000000000H
	DB	'.?AV?$basic_filebuf@DU?$char_traits@D@std@@@std@@', 00H
data$rs	ENDS
;	COMDAT ??_R3Flicker_Light_Controller@@8
rdata$r	SEGMENT
??_R3Flicker_Light_Controller@@8 DD 00H			; Flicker_Light_Controller::`RTTI Class Hierarchy Descriptor'
	DD	00H
	DD	02H
	DD	imagerel ??_R2Flicker_Light_Controller@@8
rdata$r	ENDS
;	COMDAT ??_R2Mesh_Hitbox@@8
rdata$r	SEGMENT
??_R2Mesh_Hitbox@@8 DD imagerel ??_R1A@?0A@EA@Mesh_Hitbox@@8 ; Mesh_Hitbox::`RTTI Base Class Array'
	DD	imagerel ??_R1A@?0A@EA@Hitbox@@8
	ORG $+3
rdata$r	ENDS
;	COMDAT ??_R4UI_Element@@6B@
rdata$r	SEGMENT
??_R4UI_Element@@6B@ DD 01H				; UI_Element::`RTTI Complete Object Locator'
	DD	00H
	DD	00H
	DD	imagerel ??_R0?AVUI_Element@@@8
	DD	imagerel ??_R3UI_Element@@8
	DD	imagerel ??_R4UI_Element@@6B@
rdata$r	ENDS
;	COMDAT ??_R1A@?0A@EA@UI_Loading_Screen_Icon_Controller@@8
rdata$r	SEGMENT
??_R1A@?0A@EA@UI_Loading_Screen_Icon_Controller@@8 DD imagerel ??_R0?AVUI_Loading_Screen_Icon_Controller@@@8 ; UI_Loading_Screen_Icon_Controller::`RTTI Base Class Descriptor at (0,-1,0,64)'
	DD	01H
	DD	00H
	DD	0ffffffffH
	DD	00H
	DD	040H
	DD	imagerel ??_R3UI_Loading_Screen_Icon_Controller@@8
rdata$r	ENDS
;	COMDAT ??_R2Hitbox@@8
rdata$r	SEGMENT
??_R2Hitbox@@8 DD imagerel ??_R1A@?0A@EA@Hitbox@@8	; Hitbox::`RTTI Base Class Array'
	ORG $+3
rdata$r	ENDS
;	COMDAT ??_R4Controller@@6B@
rdata$r	SEGMENT
??_R4Controller@@6B@ DD 01H				; Controller::`RTTI Complete Object Locator'
	DD	00H
	DD	00H
	DD	imagerel ??_R0?AVController@@@8
	DD	imagerel ??_R3Controller@@8
	DD	imagerel ??_R4Controller@@6B@
rdata$r	ENDS
;	COMDAT ??_R0?AV?$basic_stringstream@DU?$char_traits@D@std@@V?$allocator@D@2@@std@@@8
data$rs	SEGMENT
??_R0?AV?$basic_stringstream@DU?$char_traits@D@std@@V?$allocator@D@2@@std@@@8 DQ FLAT:??_7type_info@@6B@ ; std::basic_stringstream<char,std::char_traits<char>,std::allocator<char> > `RTTI Type Descriptor'
	DQ	0000000000000000H
	DB	'.?AV?$basic_stringstream@DU?$char_traits@D@std@@V?$alloc'
	DB	'ator@D@2@@std@@', 00H
data$rs	ENDS
;	COMDAT ??_R3?$basic_istream@DU?$char_traits@D@std@@@std@@8
rdata$r	SEGMENT
??_R3?$basic_istream@DU?$char_traits@D@std@@@std@@8 DD 00H ; std::basic_istream<char,std::char_traits<char> >::`RTTI Class Hierarchy Descriptor'
	DD	00H
	DD	04H
	DD	imagerel ??_R2?$basic_istream@DU?$char_traits@D@std@@@std@@8
rdata$r	ENDS
;	COMDAT ??_R3?$basic_iostream@DU?$char_traits@D@std@@@std@@8
rdata$r	SEGMENT
??_R3?$basic_iostream@DU?$char_traits@D@std@@@std@@8 DD 00H ; std::basic_iostream<char,std::char_traits<char> >::`RTTI Class Hierarchy Descriptor'
	DD	03H
	DD	09H
	DD	imagerel ??_R2?$basic_iostream@DU?$char_traits@D@std@@@std@@8
rdata$r	ENDS
;	COMDAT ??_C@_0BK@OGNNAFAB@invalid?5hash?5bucket?5count@
CONST	SEGMENT
??_C@_0BK@OGNNAFAB@invalid?5hash?5bucket?5count@ DB 'invalid hash bucket '
	DB	'count', 00H					; `string'
CONST	ENDS
;	COMDAT ??_C@_0BL@GOIGLPKN@unordered_map?1set?5too?5long@
CONST	SEGMENT
??_C@_0BL@GOIGLPKN@unordered_map?1set?5too?5long@ DB 'unordered_map/set t'
	DB	'oo long', 00H				; `string'
CONST	ENDS
;	COMDAT ??_C@_0O@LGFJHKKO@Particle_Data@
CONST	SEGMENT
??_C@_0O@LGFJHKKO@Particle_Data@ DB 'Particle_Data', 00H ; `string'
CONST	ENDS
;	COMDAT ??_C@_0BI@CFPLBAOH@invalid?5string?5position@
CONST	SEGMENT
??_C@_0BI@CFPLBAOH@invalid?5string?5position@ DB 'invalid string position'
	DB	00H						; `string'
CONST	ENDS
;	COMDAT ??_C@_0BA@FOIKENOD@vector?5too?5long@
CONST	SEGMENT
??_C@_0BA@FOIKENOD@vector?5too?5long@ DB 'vector too long', 00H ; `string'
CONST	ENDS
;	COMDAT ??_C@_0BJ@DHFDPMIM@invalid?5vector?5subscript@
CONST	SEGMENT
??_C@_0BJ@DHFDPMIM@invalid?5vector?5subscript@ DB 'invalid vector subscri'
	DB	'pt', 00H					; `string'
CONST	ENDS
;	COMDAT ??_C@_0BG@KJJFBNMH@Inv_Window_Dimensions@
CONST	SEGMENT
??_C@_0BG@KJJFBNMH@Inv_Window_Dimensions@ DB 'Inv_Window_Dimensions', 00H ; `string'
CONST	ENDS
;	COMDAT ??_C@_0M@LCOLHOCF@?5?$DO?$DO?5Hello?$CB?6@
CONST	SEGMENT
??_C@_0M@LCOLHOCF@?5?$DO?$DO?5Hello?$CB?6@ DB ' >> Hello!', 0aH, 00H ; `string'
CONST	ENDS
;	COMDAT ??_C@_0BK@DLDMCBNE@Assets?1Textures?1Black?4png@
CONST	SEGMENT
??_C@_0BK@DLDMCBNE@Assets?1Textures?1Black?4png@ DB 'Assets/Textures/Blac'
	DB	'k.png', 00H					; `string'
CONST	ENDS
;	COMDAT ??_C@_0CG@OOBOJPNJ@Assets?1Cubemap?1Test?1Cubemap_Fro@
CONST	SEGMENT
??_C@_0CG@OOBOJPNJ@Assets?1Cubemap?1Test?1Cubemap_Fro@ DB 'Assets/Cubemap'
	DB	'/Test/Cubemap_Front.png', 00H		; `string'
CONST	ENDS
;	COMDAT ??_C@_0CF@GFJGAHDC@Assets?1Cubemap?1Test?1Cubemap_Bac@
CONST	SEGMENT
??_C@_0CF@GFJGAHDC@Assets?1Cubemap?1Test?1Cubemap_Bac@ DB 'Assets/Cubemap'
	DB	'/Test/Cubemap_Back.png', 00H		; `string'
CONST	ENDS
;	COMDAT ??_C@_0CH@KABLNLGF@Assets?1Cubemap?1Test?1Cubemap_Bot@
CONST	SEGMENT
??_C@_0CH@KABLNLGF@Assets?1Cubemap?1Test?1Cubemap_Bot@ DB 'Assets/Cubemap'
	DB	'/Test/Cubemap_Bottom.png', 00H		; `string'
CONST	ENDS
;	COMDAT ??_C@_0CE@OGBKKJPM@Assets?1Cubemap?1Test?1Cubemap_Top@
CONST	SEGMENT
??_C@_0CE@OGBKKJPM@Assets?1Cubemap?1Test?1Cubemap_Top@ DB 'Assets/Cubemap'
	DB	'/Test/Cubemap_Top.png', 00H			; `string'
CONST	ENDS
;	COMDAT ??_C@_0CG@FOPLEMGI@Assets?1Cubemap?1Test?1Cubemap_Rig@
CONST	SEGMENT
??_C@_0CG@FOPLEMGI@Assets?1Cubemap?1Test?1Cubemap_Rig@ DB 'Assets/Cubemap'
	DB	'/Test/Cubemap_Right.png', 00H		; `string'
CONST	ENDS
;	COMDAT ??_C@_0CF@IJKGENLD@Assets?1Cubemap?1Test?1Cubemap_Lef@
CONST	SEGMENT
??_C@_0CF@IJKGENLD@Assets?1Cubemap?1Test?1Cubemap_Lef@ DB 'Assets/Cubemap'
	DB	'/Test/Cubemap_Left.png', 00H		; `string'
CONST	ENDS
;	COMDAT ??_C@_0BN@BCAEMBIO@Shader_Code?1Vertex_Test?4vert@
CONST	SEGMENT
??_C@_0BN@BCAEMBIO@Shader_Code?1Vertex_Test?4vert@ DB 'Shader_Code/Vertex'
	DB	'_Test.vert', 00H				; `string'
CONST	ENDS
;	COMDAT ??_C@_0CH@CDEFFMHM@Shader_Code?1Loading_Screen_Spir@
CONST	SEGMENT
??_C@_0CH@CDEFFMHM@Shader_Code?1Loading_Screen_Spir@ DB 'Shader_Code/Load'
	DB	'ing_Screen_Spiral.frag', 00H		; `string'
CONST	ENDS
;	COMDAT ??_C@_0CH@PBOEPIGD@Shader_Code?1Loading_Screen_Spir@
CONST	SEGMENT
??_C@_0CH@PBOEPIGD@Shader_Code?1Loading_Screen_Spir@ DB 'Shader_Code/Load'
	DB	'ing_Screen_Spiral.vert', 00H		; `string'
CONST	ENDS
;	COMDAT ??_C@_0CL@CNELCBCO@Shader_Code?1Loading_Screen_Back@
CONST	SEGMENT
??_C@_0CL@CNELCBCO@Shader_Code?1Loading_Screen_Back@ DB 'Shader_Code/Load'
	DB	'ing_Screen_Background.frag', 00H		; `string'
CONST	ENDS
;	COMDAT ??_C@_0CA@HEOPCHLM@Shader_Code?1Spark_Particle?4vert@
CONST	SEGMENT
??_C@_0CA@HEOPCHLM@Shader_Code?1Spark_Particle?4vert@ DB 'Shader_Code/Spa'
	DB	'rk_Particle.vert', 00H			; `string'
CONST	ENDS
;	COMDAT ??_C@_0CI@JEHCHLI@Shader_Code?1Colour_Bubble_Parti@
CONST	SEGMENT
??_C@_0CI@JEHCHLI@Shader_Code?1Colour_Bubble_Parti@ DB 'Shader_Code/Colou'
	DB	'r_Bubble_Particle.frag', 00H		; `string'
CONST	ENDS
;	COMDAT ??_C@_0CB@KAENCFKB@Shader_Code?1Bubble_Particle?4ver@
CONST	SEGMENT
??_C@_0CB@KAENCFKB@Shader_Code?1Bubble_Particle?4ver@ DB 'Shader_Code/Bub'
	DB	'ble_Particle.vert', 00H			; `string'
CONST	ENDS
;	COMDAT ??_C@_0CB@HCOMIBLO@Shader_Code?1Bubble_Particle?4fra@
CONST	SEGMENT
??_C@_0CB@HCOMIBLO@Shader_Code?1Bubble_Particle?4fra@ DB 'Shader_Code/Bub'
	DB	'ble_Particle.frag', 00H			; `string'
CONST	ENDS
;	COMDAT ??_C@_0CC@JCKEEOPC@Assets?1Models?1Normalised_Cone?4o@
CONST	SEGMENT
??_C@_0CC@JCKEEOPC@Assets?1Models?1Normalised_Cone?4o@ DB 'Assets/Models/'
	DB	'Normalised_Cone.obj', 00H			; `string'
CONST	ENDS
;	COMDAT ??_C@_0CK@DIMHDONB@Shader_Code?1Volumetric_Cone_Par@
CONST	SEGMENT
??_C@_0CK@DIMHDONB@Shader_Code?1Volumetric_Cone_Par@ DB 'Shader_Code/Volu'
	DB	'metric_Cone_Particle.vert', 00H		; `string'
CONST	ENDS
;	COMDAT ??_C@_0CL@CEMCMBLK@Shader_Code?1Volumetric_Cone_Par@
CONST	SEGMENT
??_C@_0CL@CEMCMBLK@Shader_Code?1Volumetric_Cone_Par@ DB 'Shader_Code/Volu'
	DB	'metric_Cone_Particles.frag', 00H		; `string'
CONST	ENDS
;	COMDAT ??_C@_0CC@NDMDOPDB@Assets?1Textures?1Galaxy_Test_2?4p@
CONST	SEGMENT
??_C@_0CC@NDMDOPDB@Assets?1Textures?1Galaxy_Test_2?4p@ DB 'Assets/Texture'
	DB	's/Galaxy_Test_2.png', 00H			; `string'
CONST	ENDS
;	COMDAT ??_C@_0CL@CMNJPBMJ@Shader_Code?1Billboard_Galaxy_Pa@
CONST	SEGMENT
??_C@_0CL@CMNJPBMJ@Shader_Code?1Billboard_Galaxy_Pa@ DB 'Shader_Code/Bill'
	DB	'board_Galaxy_Particle.vert', 00H		; `string'
CONST	ENDS
;	COMDAT ??_C@_0DB@BBCHBPI@Shader_Code?1Billboard_Muzzle_Fl@
CONST	SEGMENT
??_C@_0DB@BBCHBPI@Shader_Code?1Billboard_Muzzle_Fl@ DB 'Shader_Code/Billb'
	DB	'oard_Muzzle_Flash_Particle.vert', 00H	; `string'
CONST	ENDS
;	COMDAT ??_C@_0BL@LOOHDBFB@Assets?1Textures?1Fire_2?4png@
CONST	SEGMENT
??_C@_0BL@LOOHDBFB@Assets?1Textures?1Fire_2?4png@ DB 'Assets/Textures/Fir'
	DB	'e_2.png', 00H				; `string'
CONST	ENDS
;	COMDAT ??_C@_0CJ@HELGKLAN@Shader_Code?1Billboard_Fire_Part@
CONST	SEGMENT
??_C@_0CJ@HELGKLAN@Shader_Code?1Billboard_Fire_Part@ DB 'Shader_Code/Bill'
	DB	'board_Fire_Particle.vert', 00H		; `string'
CONST	ENDS
;	COMDAT ??_C@_0BK@PIEEOCGE@Assets?1Textures?1Smoke?4png@
CONST	SEGMENT
??_C@_0BK@PIEEOCGE@Assets?1Textures?1Smoke?4png@ DB 'Assets/Textures/Smok'
	DB	'e.png', 00H					; `string'
CONST	ENDS
;	COMDAT ??_C@_0CK@PAPAAFBN@Shader_Code?1Billboard_Smoke_Par@
CONST	SEGMENT
??_C@_0CK@PAPAAFBN@Shader_Code?1Billboard_Smoke_Par@ DB 'Shader_Code/Bill'
	DB	'board_Smoke_Particle.vert', 00H		; `string'
CONST	ENDS
;	COMDAT ??_C@_0CE@GNFNGBJN@Shader_Code?1Lightless_Particle?4@
CONST	SEGMENT
??_C@_0CE@GNFNGBJN@Shader_Code?1Lightless_Particle?4@ DB 'Shader_Code/Lig'
	DB	'htless_Particle.frag', 00H			; `string'
CONST	ENDS
;	COMDAT ??_C@_0BI@ECIKBBBO@Assets?1Models?1Smoke?4obj@
CONST	SEGMENT
??_C@_0BI@ECIKBBBO@Assets?1Models?1Smoke?4obj@ DB 'Assets/Models/Smoke.ob'
	DB	'j', 00H					; `string'
CONST	ENDS
;	COMDAT ??_C@_0CA@NNDFHDNE@Assets?1Textures?1Smoke_Noise?4png@
CONST	SEGMENT
??_C@_0CA@NNDFHDNE@Assets?1Textures?1Smoke_Noise?4png@ DB 'Assets/Texture'
	DB	's/Smoke_Noise.png', 00H			; `string'
CONST	ENDS
;	COMDAT ??_C@_0CA@BPMOHFAL@Shader_Code?1Smoke_Particle?4vert@
CONST	SEGMENT
??_C@_0CA@BPMOHFAL@Shader_Code?1Smoke_Particle?4vert@ DB 'Shader_Code/Smo'
	DB	'ke_Particle.vert', 00H			; `string'
CONST	ENDS
;	COMDAT ??_C@_0BK@FEEDPOFB@Shader_Code?1Particle?4frag@
CONST	SEGMENT
??_C@_0BK@FEEDPOFB@Shader_Code?1Particle?4frag@ DB 'Shader_Code/Particle.'
	DB	'frag', 00H					; `string'
CONST	ENDS
;	COMDAT ??_C@_0BG@OODIIEIJ@Assets?1Font?1lucon?4ttf@
CONST	SEGMENT
??_C@_0BG@OODIIEIJ@Assets?1Font?1lucon?4ttf@ DB 'Assets/Font/lucon.ttf', 00H ; `string'
CONST	ENDS
;	COMDAT ??_C@_0BI@FCKKPEKH@Assets?1Font?1COPRGTL?4ttf@
CONST	SEGMENT
??_C@_0BI@FCKKPEKH@Assets?1Font?1COPRGTL?4ttf@ DB 'Assets/Font/COPRGTL.tt'
	DB	'f', 00H					; `string'
CONST	ENDS
;	COMDAT ??_C@_0BI@LNFHCIEJ@Assets?1Font?1georgia?4ttf@
CONST	SEGMENT
??_C@_0BI@LNFHCIEJ@Assets?1Font?1georgia?4ttf@ DB 'Assets/Font/georgia.tt'
	DB	'f', 00H					; `string'
CONST	ENDS
;	COMDAT ??_C@_0CC@IJHPPHNP@Assets?1Hitboxes?1Player_Hitbox?4o@
CONST	SEGMENT
??_C@_0CC@IJHPPHNP@Assets?1Hitboxes?1Player_Hitbox?4o@ DB 'Assets/Hitboxe'
	DB	's/Player_Hitbox.obj', 00H			; `string'
CONST	ENDS
;	COMDAT ??_C@_0CI@PGKNFBEN@Assets?1Audio?1Impact?1Concrete_Im@
CONST	SEGMENT
??_C@_0CI@PGKNFBEN@Assets?1Audio?1Impact?1Concrete_Im@ DB 'Assets/Audio/I'
	DB	'mpact/Concrete_Impact.wav', 00H		; `string'
CONST	ENDS
;	COMDAT ??_C@_0CH@CCPNANDM@Assets?1Audio?1Impact?1Bullet_Woun@
CONST	SEGMENT
??_C@_0CH@CCPNANDM@Assets?1Audio?1Impact?1Bullet_Woun@ DB 'Assets/Audio/I'
	DB	'mpact/Bullet_Wound_3.wav', 00H		; `string'
CONST	ENDS
;	COMDAT ??_C@_0CH@OJKBNOJJ@Assets?1Audio?1Impact?1Bullet_Woun@
CONST	SEGMENT
??_C@_0CH@OJKBNOJJ@Assets?1Audio?1Impact?1Bullet_Woun@ DB 'Assets/Audio/I'
	DB	'mpact/Bullet_Wound_2.wav', 00H		; `string'
CONST	ENDS
;	COMDAT ??_C@_0CH@GPDFKMDH@Assets?1Audio?1Impact?1Bullet_Woun@
CONST	SEGMENT
??_C@_0CH@GPDFKMDH@Assets?1Audio?1Impact?1Bullet_Woun@ DB 'Assets/Audio/I'
	DB	'mpact/Bullet_Wound_1.wav', 00H		; `string'
CONST	ENDS
;	COMDAT ??_C@_0CB@MFDHFEGF@Assets?1Audio?1Impact?1Barrel_2?4wa@
CONST	SEGMENT
??_C@_0CB@MFDHFEGF@Assets?1Audio?1Impact?1Barrel_2?4wa@ DB 'Assets/Audio/'
	DB	'Impact/Barrel_2.wav', 00H			; `string'
CONST	ENDS
;	COMDAT ??_C@_0CB@EDKDCGML@Assets?1Audio?1Impact?1Barrel_1?4wa@
CONST	SEGMENT
??_C@_0CB@EDKDCGML@Assets?1Audio?1Impact?1Barrel_1?4wa@ DB 'Assets/Audio/'
	DB	'Impact/Barrel_1.wav', 00H			; `string'
CONST	ENDS
;	COMDAT ??_C@_0CB@IIPPPFGO@Assets?1Audio?1Impact?1Barrel_0?4wa@
CONST	SEGMENT
??_C@_0CB@IIPPPFGO@Assets?1Audio?1Impact?1Barrel_0?4wa@ DB 'Assets/Audio/'
	DB	'Impact/Barrel_0.wav', 00H			; `string'
CONST	ENDS
;	COMDAT ??_C@_0BP@GFMBOCLK@Assets?1Audio?1IMpact?1Wood_2?4wav@
CONST	SEGMENT
??_C@_0BP@GFMBOCLK@Assets?1Audio?1IMpact?1Wood_2?4wav@ DB 'Assets/Audio/I'
	DB	'Mpact/Wood_2.wav', 00H			; `string'
CONST	ENDS
;	COMDAT ??_C@_0BP@MNPGKCOO@Assets?1Audio?1Impact?1Wood_1?4wav@
CONST	SEGMENT
??_C@_0BP@MNPGKCOO@Assets?1Audio?1Impact?1Wood_1?4wav@ DB 'Assets/Audio/I'
	DB	'mpact/Wood_1.wav', 00H			; `string'
CONST	ENDS
;	COMDAT ??_C@_0BP@GKKHBEL@Assets?1Audio?1Impact?1Wood_0?4wav@
CONST	SEGMENT
??_C@_0BP@GKKHBEL@Assets?1Audio?1Impact?1Wood_0?4wav@ DB 'Assets/Audio/Im'
	DB	'pact/Wood_0.wav', 00H			; `string'
CONST	ENDS
;	COMDAT ??_C@_0CH@PMPLLECO@Assets?1Audio?1Impact?1Metal_Impac@
CONST	SEGMENT
??_C@_0CH@PMPLLECO@Assets?1Audio?1Impact?1Metal_Impac@ DB 'Assets/Audio/I'
	DB	'mpact/Metal_Impact_2.wav', 00H		; `string'
CONST	ENDS
;	COMDAT ??_C@_0CH@HKGPMGIA@Assets?1Audio?1Impact?1Metal_Impac@
CONST	SEGMENT
??_C@_0CH@HKGPMGIA@Assets?1Audio?1Impact?1Metal_Impac@ DB 'Assets/Audio/I'
	DB	'mpact/Metal_Impact_1.wav', 00H		; `string'
CONST	ENDS
;	COMDAT ??_C@_0CH@LBDDBFCF@Assets?1Audio?1Impact?1Metal_Impac@
CONST	SEGMENT
??_C@_0CH@LBDDBFCF@Assets?1Audio?1Impact?1Metal_Impac@ DB 'Assets/Audio/I'
	DB	'mpact/Metal_Impact_0.wav', 00H		; `string'
CONST	ENDS
;	COMDAT ??_C@_08GIGNPDCB@Test?4txt@
CONST	SEGMENT
??_C@_08GIGNPDCB@Test?4txt@ DB 'Test.txt', 00H		; `string'
CONST	ENDS
;	COMDAT ??_C@_0P@MGAMPAJK@Start_Game?4txt@
CONST	SEGMENT
??_C@_0P@MGAMPAJK@Start_Game?4txt@ DB 'Start_Game.txt', 00H ; `string'
CONST	ENDS
;	COMDAT ??_C@_0CA@DEKJCLII@Assets?1UI?1Radiophobia_Title?4png@
CONST	SEGMENT
??_C@_0CA@DEKJCLII@Assets?1UI?1Radiophobia_Title?4png@ DB 'Assets/UI/Radi'
	DB	'ophobia_Title.png', 00H			; `string'
CONST	ENDS
;	COMDAT ??_C@_0BL@ELDIMEF@Assets?1UI?1Title_Screen?4png@
CONST	SEGMENT
??_C@_0BL@ELDIMEF@Assets?1UI?1Title_Screen?4png@ DB 'Assets/UI/Title_Scre'
	DB	'en.png', 00H				; `string'
CONST	ENDS
;	COMDAT ??_C@_0DD@MFJHCHAB@Assets?1Light_Occluders?1Intro_Le@
CONST	SEGMENT
??_C@_0DD@MFJHCHAB@Assets?1Light_Occluders?1Intro_Le@ DB 'Assets/Light_Oc'
	DB	'cluders/Intro_Level_Corrections.txt', 00H	; `string'
CONST	ENDS
;	COMDAT ??_C@_0CH@EGKABGAM@Assets?1Light_Occluders?1Intro_Le@
CONST	SEGMENT
??_C@_0CH@EGKABGAM@Assets?1Light_Occluders?1Intro_Le@ DB 'Assets/Light_Oc'
	DB	'cluders/Intro_Level.obj', 00H		; `string'
CONST	ENDS
;	COMDAT ??_C@_0BJ@PFBKBDAH@Assets?1Models?1Barrel?4obj@
CONST	SEGMENT
??_C@_0BJ@PFBKBDAH@Assets?1Models?1Barrel?4obj@ DB 'Assets/Models/Barrel.'
	DB	'obj', 00H					; `string'
CONST	ENDS
;	COMDAT ??_C@_0BP@OPPNPMCK@Assets?1Textures?1Barrel_UVs?4png@
CONST	SEGMENT
??_C@_0BP@OPPNPMCK@Assets?1Textures?1Barrel_UVs?4png@ DB 'Assets/Textures'
	DB	'/Barrel_UVs.png', 00H			; `string'
CONST	ENDS
;	COMDAT ??_C@_0BL@OPPAEBBM@Assets?1Hitboxes?1Barrel?4obj@
CONST	SEGMENT
??_C@_0BL@OPPAEBBM@Assets?1Hitboxes?1Barrel?4obj@ DB 'Assets/Hitboxes/Bar'
	DB	'rel.obj', 00H				; `string'
CONST	ENDS
;	COMDAT ??_C@_0CF@IFIBFPNG@Assets?1Textures?1Person_Texture_@
CONST	SEGMENT
??_C@_0CF@IFIBFPNG@Assets?1Textures?1Person_Texture_@ DB 'Assets/Textures'
	DB	'/Person_Texture_2.png', 00H			; `string'
CONST	ENDS
;	COMDAT ??_C@_0BO@HEEPNPCJ@Assets?1Models?1Test_Person?4obj@
CONST	SEGMENT
??_C@_0BO@HEEPNPCJ@Assets?1Models?1Test_Person?4obj@ DB 'Assets/Models/Te'
	DB	'st_Person.obj', 00H				; `string'
CONST	ENDS
;	COMDAT ??_C@_0BJ@LJLDFFNE@Assets?1Models?1Bubble?4obj@
CONST	SEGMENT
??_C@_0BJ@LJLDFFNE@Assets?1Models?1Bubble?4obj@ DB 'Assets/Models/Bubble.'
	DB	'obj', 00H					; `string'
CONST	ENDS
;	COMDAT ??_C@_0CL@JJJOKDNJ@Assets?1Models?1Intro_Level?1Rutsc@
CONST	SEGMENT
??_C@_0CL@JJJOKDNJ@Assets?1Models?1Intro_Level?1Rutsc@ DB 'Assets/Models/'
	DB	'Intro_Level/Rutschgefahr.obj', 00H		; `string'
CONST	ENDS
;	COMDAT ??_C@_0CB@JPBPLECI@Assets?1Textures?1Rutschgefahr?4pn@
CONST	SEGMENT
??_C@_0CB@JPBPLECI@Assets?1Textures?1Rutschgefahr?4pn@ DB 'Assets/Texture'
	DB	's/Rutschgefahr.png', 00H			; `string'
CONST	ENDS
;	COMDAT ??_C@_0CF@MCFCEBB@Assets?1Models?1Intro_Level?1Door_@
CONST	SEGMENT
??_C@_0CF@MCFCEBB@Assets?1Models?1Intro_Level?1Door_@ DB 'Assets/Models/I'
	DB	'ntro_Level/Door_7.obj', 00H			; `string'
CONST	ENDS
;	COMDAT ??_C@_0CP@ONBOINML@Assets?1Animations?1Intro_Level?1D@
CONST	SEGMENT
??_C@_0CP@ONBOINML@Assets?1Animations?1Intro_Level?1D@ DB 'Assets/Animati'
	DB	'ons/Intro_Level/Door_7_Open.anim', 00H	; `string'
CONST	ENDS
;	COMDAT ??_C@_0CF@MHHJPHLE@Assets?1Models?1Intro_Level?1Door_@
CONST	SEGMENT
??_C@_0CF@MHHJPHLE@Assets?1Models?1Intro_Level?1Door_@ DB 'Assets/Models/'
	DB	'Intro_Level/Door_6.obj', 00H		; `string'
CONST	ENDS
;	COMDAT ??_C@_0CP@HGLLMBKE@Assets?1Animations?1Intro_Level?1D@
CONST	SEGMENT
??_C@_0CP@HGLLMBKE@Assets?1Animations?1Intro_Level?1D@ DB 'Assets/Animati'
	DB	'ons/Intro_Level/Door_6_Open.anim', 00H	; `string'
CONST	ENDS
;	COMDAT ??_C@_0CF@EBONIFBK@Assets?1Models?1Intro_Level?1Door_@
CONST	SEGMENT
??_C@_0CF@EBONIFBK@Assets?1Models?1Intro_Level?1Door_@ DB 'Assets/Models/'
	DB	'Intro_Level/Door_5.obj', 00H		; `string'
CONST	ENDS
;	COMDAT ??_C@_0CF@IKLBFGLP@Assets?1Models?1Intro_Level?1Door_@
CONST	SEGMENT
??_C@_0CF@IKLBFGLP@Assets?1Models?1Intro_Level?1Door_@ DB 'Assets/Models/'
	DB	'Intro_Level/Door_4.obj', 00H		; `string'
CONST	ENDS
;	COMDAT ??_C@_0CF@JHLEGGAH@Assets?1Models?1Intro_Level?1Door_@
CONST	SEGMENT
??_C@_0CF@JHLEGGAH@Assets?1Models?1Intro_Level?1Door_@ DB 'Assets/Models/'
	DB	'Intro_Level/Door_3.obj', 00H		; `string'
CONST	ENDS
;	COMDAT ??_C@_0CF@FMOILFKC@Assets?1Models?1Intro_Level?1Door_@
CONST	SEGMENT
??_C@_0CF@FMOILFKC@Assets?1Models?1Intro_Level?1Door_@ DB 'Assets/Models/'
	DB	'Intro_Level/Door_2.obj', 00H		; `string'
CONST	ENDS
;	COMDAT ??_C@_0CF@NKHMMHAM@Assets?1Models?1Intro_Level?1Door_@
CONST	SEGMENT
??_C@_0CF@NKHMMHAM@Assets?1Models?1Intro_Level?1Door_@ DB 'Assets/Models/'
	DB	'Intro_Level/Door_1.obj', 00H		; `string'
CONST	ENDS
;	COMDAT ??_C@_0CF@BBCABEKJ@Assets?1Models?1Intro_Level?1Door_@
CONST	SEGMENT
??_C@_0CF@BBCABEKJ@Assets?1Models?1Intro_Level?1Door_@ DB 'Assets/Models/'
	DB	'Intro_Level/Door_0.obj', 00H		; `string'
CONST	ENDS
;	COMDAT ??_C@_0DC@HGGMKMAG@Assets?1Models?1Intro_Level?1Intro@
CONST	SEGMENT
??_C@_0DC@HGGMKMAG@Assets?1Models?1Intro_Level?1Intro@ DB 'Assets/Models/'
	DB	'Intro_Level/Intro_Level_Rubbish.obj', 00H	; `string'
CONST	ENDS
;	COMDAT ??_C@_0DB@FONFDFMB@Assets?1Hitboxes?1Intro_Level?1Rub@
CONST	SEGMENT
??_C@_0DB@FONFDFMB@Assets?1Hitboxes?1Intro_Level?1Rub@ DB 'Assets/Hitboxe'
	DB	's/Intro_Level/Rubbish_Hitboxes.obj', 00H	; `string'
CONST	ENDS
;	COMDAT ??_C@_0DA@NAGEJJDL@Assets?1Models?1Intro_Level?1Intro@
CONST	SEGMENT
??_C@_0DA@NAGEJJDL@Assets?1Models?1Intro_Level?1Intro@ DB 'Assets/Models/'
	DB	'Intro_Level/Intro_Level_Pipes.obj', 00H	; `string'
CONST	ENDS
;	COMDAT ??_C@_0BJ@DCLOCAIE@Assets?1Hitboxes?1Cube?4obj@
CONST	SEGMENT
??_C@_0BJ@DCLOCAIE@Assets?1Hitboxes?1Cube?4obj@ DB 'Assets/Hitboxes/Cube.'
	DB	'obj', 00H					; `string'
CONST	ENDS
;	COMDAT ??_C@_0DB@KOCHFLMN@Assets?1Models?1Intro_Level?1Intro@
CONST	SEGMENT
??_C@_0DB@KOCHFLMN@Assets?1Models?1Intro_Level?1Intro@ DB 'Assets/Models/'
	DB	'Intro_Level/Intro_Level_Rubble.obj', 00H	; `string'
CONST	ENDS
;	COMDAT ??_C@_0BL@JKEDBCBH@Assets?1Textures?1Rubble?4jpg@
CONST	SEGMENT
??_C@_0BL@JKEDBCBH@Assets?1Textures?1Rubble?4jpg@ DB 'Assets/Textures/Rub'
	DB	'ble.jpg', 00H				; `string'
CONST	ENDS
;	COMDAT ??_C@_0DF@FNGKCLI@Assets?1Hitboxes?1Intro_Level?1Rub@
CONST	SEGMENT
??_C@_0DF@FNGKCLI@Assets?1Hitboxes?1Intro_Level?1Rub@ DB 'Assets/Hitboxes'
	DB	'/Intro_Level/Rubble_0_AABB_Hitbox.obj', 00H	; `string'
CONST	ENDS
;	COMDAT ??_C@_0DA@BHGCAHGF@Assets?1Hitboxes?1Intro_Level?1Rub@
CONST	SEGMENT
??_C@_0DA@BHGCAHGF@Assets?1Hitboxes?1Intro_Level?1Rub@ DB 'Assets/Hitboxe'
	DB	's/Intro_Level/Rubble_1_Hitbox.obj', 00H	; `string'
CONST	ENDS
;	COMDAT ??_C@_0DA@MKPENOOA@Assets?1Hitboxes?1Intro_Level?1Rub@
CONST	SEGMENT
??_C@_0DA@MKPENOOA@Assets?1Hitboxes?1Intro_Level?1Rub@ DB 'Assets/Hitboxe'
	DB	's/Intro_Level/Rubble_0_Hitbox.obj', 00H	; `string'
CONST	ENDS
;	COMDAT ??_C@_0DB@GOCMJLF@Assets?1Models?1Intro_Level?1Intro@
CONST	SEGMENT
??_C@_0DB@GOCMJLF@Assets?1Models?1Intro_Level?1Intro@ DB 'Assets/Models/I'
	DB	'ntro_Level/Intro_Level_Stairs.obj', 00H	; `string'
CONST	ENDS
;	COMDAT ??_C@_0BP@DOJNFPIF@Intro_Level?1Rubble_Hallway?4txt@
CONST	SEGMENT
??_C@_0BP@DOJNFPIF@Intro_Level?1Rubble_Hallway?4txt@ DB 'Intro_Level/Rubb'
	DB	'le_Hallway.txt', 00H			; `string'
CONST	ENDS
;	COMDAT ??_C@_0BO@MGLFMNJA@Intro_Level?1Rubble_Stairs?4txt@
CONST	SEGMENT
??_C@_0BO@MGLFMNJA@Intro_Level?1Rubble_Stairs?4txt@ DB 'Intro_Level/Rubbl'
	DB	'e_Stairs.txt', 00H				; `string'
CONST	ENDS
;	COMDAT ??_C@_0CH@NDMCBOEH@Assets?1Hitboxes?1Intro_Level?1Doo@
CONST	SEGMENT
??_C@_0CH@NDMCBOEH@Assets?1Hitboxes?1Intro_Level?1Doo@ DB 'Assets/Hitboxe'
	DB	's/Intro_Level/Door_3.obj', 00H		; `string'
CONST	ENDS
;	COMDAT ??_C@_0CH@EIFDFMFB@Assets?1Hitboxes?1Intro_Level?1Doo@
CONST	SEGMENT
??_C@_0CH@EIFDFMFB@Assets?1Hitboxes?1Intro_Level?1Doo@ DB 'Assets/Hitboxe'
	DB	's/Intro_Level/Door_7.obj', 00H		; `string'
CONST	ENDS
;	COMDAT ??_C@_0CH@IDAPIPPE@Assets?1Hitboxes?1Intro_Level?1Doo@
CONST	SEGMENT
??_C@_0CH@IDAPIPPE@Assets?1Hitboxes?1Intro_Level?1Doo@ DB 'Assets/Hitboxe'
	DB	's/Intro_Level/Door_6.obj', 00H		; `string'
CONST	ENDS
;	COMDAT ??_C@_0CH@BIJOMNOC@Assets?1Hitboxes?1Intro_Level?1Doo@
CONST	SEGMENT
??_C@_0CH@BIJOMNOC@Assets?1Hitboxes?1Intro_Level?1Doo@ DB 'Assets/Hitboxe'
	DB	's/Intro_Level/Door_2.obj', 00H		; `string'
CONST	ENDS
;	COMDAT ??_C@_0CH@JOAKLPEM@Assets?1Hitboxes?1Intro_Level?1Doo@
CONST	SEGMENT
??_C@_0CH@JOAKLPEM@Assets?1Hitboxes?1Intro_Level?1Doo@ DB 'Assets/Hitboxe'
	DB	's/Intro_Level/Door_1.obj', 00H		; `string'
CONST	ENDS
;	COMDAT ??_C@_0CH@FFFGGMOJ@Assets?1Hitboxes?1Intro_Level?1Doo@
CONST	SEGMENT
??_C@_0CH@FFFGGMOJ@Assets?1Hitboxes?1Intro_Level?1Doo@ DB 'Assets/Hitboxe'
	DB	's/Intro_Level/Door_0.obj', 00H		; `string'
CONST	ENDS
;	COMDAT ??_C@_0CO@PCLPJBOD@Assets?1Hitboxes?1Intro_Level?1Doo@
CONST	SEGMENT
??_C@_0CO@PCLPJBOD@Assets?1Hitboxes?1Intro_Level?1Doo@ DB 'Assets/Hitboxe'
	DB	's/Intro_Level/Door_5_Hitbox.obj', 00H	; `string'
CONST	ENDS
;	COMDAT ??_C@_0DA@FKNGPGIL@Assets?1Hitboxes?1Intro_Level?1Sta@
CONST	SEGMENT
??_C@_0DA@FKNGPGIL@Assets?1Hitboxes?1Intro_Level?1Sta@ DB 'Assets/Hitboxe'
	DB	's/Intro_Level/Stairs_1_Hitbox.obj', 00H	; `string'
CONST	ENDS
;	COMDAT ??_C@_0DA@IHEACPAO@Assets?1Hitboxes?1Intro_Level?1Sta@
CONST	SEGMENT
??_C@_0DA@IHEACPAO@Assets?1Hitboxes?1Intro_Level?1Sta@ DB 'Assets/Hitboxe'
	DB	's/Intro_Level/Stairs_0_Hitbox.obj', 00H	; `string'
CONST	ENDS
;	COMDAT ??_C@_0DF@CILPNPMK@Assets?1Models?1Intro_Level?1Test_@
CONST	SEGMENT
??_C@_0DF@CILPNPMK@Assets?1Models?1Intro_Level?1Test_@ DB 'Assets/Models/'
	DB	'Intro_Level/Test_Intro_Level_Floor.obj', 00H ; `string'
CONST	ENDS
;	COMDAT ??_C@_0CA@JKHOALOM@Assets?1Textures?1Floor_Tiles?4png@
CONST	SEGMENT
??_C@_0CA@JKHOALOM@Assets?1Textures?1Floor_Tiles?4png@ DB 'Assets/Texture'
	DB	's/Floor_Tiles.png', 00H			; `string'
CONST	ENDS
;	COMDAT ??_C@_0DJ@LGNLIMBI@Assets?1Hitboxes?1Intro_Level?1Int@
CONST	SEGMENT
??_C@_0DJ@LGNLIMBI@Assets?1Hitboxes?1Intro_Level?1Int@ DB 'Assets/Hitboxe'
	DB	's/Intro_Level/Intro_Level_Floor_Hitbox.obj', 00H ; `string'
CONST	ENDS
;	COMDAT ??_C@_0CD@ENCKGHFM@Assets?1Animations?1Intro_Level?1V@
CONST	SEGMENT
??_C@_0CD@ENCKGHFM@Assets?1Animations?1Intro_Level?1V@ DB 'Assets/Animati'
	DB	'ons/Intro_Level/Vent', 00H			; `string'
CONST	ENDS
;	COMDAT ??_C@_0CJ@HBNEBOJA@Assets?1Models?1Intro_Level?1Vent_@
CONST	SEGMENT
??_C@_0CJ@HBNEBOJA@Assets?1Models?1Intro_Level?1Vent_@ DB 'Assets/Models/'
	DB	'Intro_Level/Vent_Grate.obj', 00H		; `string'
CONST	ENDS
;	COMDAT ??_C@_0CH@DFHFPKHP@Assets?1Models?1Intro_Level?1Air_D@
CONST	SEGMENT
??_C@_0CH@DFHFPKHP@Assets?1Models?1Intro_Level?1Air_D@ DB 'Assets/Models/'
	DB	'Intro_Level/Air_Duct.obj', 00H		; `string'
CONST	ENDS
;	COMDAT ??_C@_0CJ@JLNCAIAC@Assets?1Hitboxes?1Intro_Level?1Air@
CONST	SEGMENT
??_C@_0CJ@JLNCAIAC@Assets?1Hitboxes?1Intro_Level?1Air@ DB 'Assets/Hitboxe'
	DB	's/Intro_Level/Air_Duct.obj', 00H		; `string'
CONST	ENDS
;	COMDAT ??_C@_0CE@NJGAFJNP@Assets?1Models?1Intro_Level?1Vents@
CONST	SEGMENT
??_C@_0CE@NJGAFJNP@Assets?1Models?1Intro_Level?1Vents@ DB 'Assets/Models/'
	DB	'Intro_Level/Vents.obj', 00H			; `string'
CONST	ENDS
;	COMDAT ??_C@_0CM@ELKDEOGJ@Assets?1Models?1Intro_Level?1Shelf@
CONST	SEGMENT
??_C@_0CM@ELKDEOGJ@Assets?1Models?1Intro_Level?1Shelf@ DB 'Assets/Models/'
	DB	'Intro_Level/Shelf_Objects.obj', 00H		; `string'
CONST	ENDS
;	COMDAT ??_C@_0CG@MCDJBCHP@Assets?1Models?1Intro_Level?1Locke@
CONST	SEGMENT
??_C@_0CG@MCDJBCHP@Assets?1Models?1Intro_Level?1Locke@ DB 'Assets/Models/'
	DB	'Intro_Level/Lockers.obj', 00H		; `string'
CONST	ENDS
;	COMDAT ??_C@_0CJ@BECOENHL@Assets?1Hitboxes?1Intro_Level?1Loc@
CONST	SEGMENT
??_C@_0CJ@BECOENHL@Assets?1Hitboxes?1Intro_Level?1Loc@ DB 'Assets/Hitboxe'
	DB	's/Intro_Level/Locker_2.obj', 00H		; `string'
CONST	ENDS
;	COMDAT ??_C@_0CJ@JCLKDPNF@Assets?1Hitboxes?1Intro_Level?1Loc@
CONST	SEGMENT
??_C@_0CJ@JCLKDPNF@Assets?1Hitboxes?1Intro_Level?1Loc@ DB 'Assets/Hitboxe'
	DB	's/Intro_Level/Locker_1.obj', 00H		; `string'
CONST	ENDS
;	COMDAT ??_C@_0CJ@FJOGOMHA@Assets?1Hitboxes?1Intro_Level?1Loc@
CONST	SEGMENT
??_C@_0CJ@FJOGOMHA@Assets?1Hitboxes?1Intro_Level?1Loc@ DB 'Assets/Hitboxe'
	DB	's/Intro_Level/Locker_0.obj', 00H		; `string'
CONST	ENDS
;	COMDAT ??_C@_0CO@EMPJEHCM@Assets?1Hitboxes?1Intro_Level?1Loc@
CONST	SEGMENT
??_C@_0CO@EMPJEHCM@Assets?1Hitboxes?1Intro_Level?1Loc@ DB 'Assets/Hitboxe'
	DB	's/Intro_Level/Locker_AABB_2.obj', 00H	; `string'
CONST	ENDS
;	COMDAT ??_C@_0CO@MKGNDFIC@Assets?1Hitboxes?1Intro_Level?1Loc@
CONST	SEGMENT
??_C@_0CO@MKGNDFIC@Assets?1Hitboxes?1Intro_Level?1Loc@ DB 'Assets/Hitboxe'
	DB	's/Intro_Level/Locker_AABB_1.obj', 00H	; `string'
CONST	ENDS
;	COMDAT ??_C@_0CO@BDBOGCH@Assets?1Hitboxes?1Intro_Level?1Loc@
CONST	SEGMENT
??_C@_0CO@BDBOGCH@Assets?1Hitboxes?1Intro_Level?1Loc@ DB 'Assets/Hitboxes'
	DB	'/Intro_Level/Locker_AABB_0.obj', 00H	; `string'
CONST	ENDS
;	COMDAT ??_C@_0CE@FJMLJCE@Assets?1Models?1Intro_Level?1Signs@
CONST	SEGMENT
??_C@_0CE@FJMLJCE@Assets?1Models?1Intro_Level?1Signs@ DB 'Assets/Models/I'
	DB	'ntro_Level/Signs.obj', 00H			; `string'
CONST	ENDS
;	COMDAT ??_C@_0BK@PBPKGGPM@Assets?1Textures?1Signs?4png@
CONST	SEGMENT
??_C@_0BK@PBPKGGPM@Assets?1Textures?1Signs?4png@ DB 'Assets/Textures/Sign'
	DB	's.png', 00H					; `string'
CONST	ENDS
;	COMDAT ??_C@_0DG@OANECOKM@Assets?1Models?1Intro_Level?1Fire_@
CONST	SEGMENT
??_C@_0DG@OANECOKM@Assets?1Models?1Intro_Level?1Fire_@ DB 'Assets/Models/'
	DB	'Intro_Level/Fire_Extinguisher_Signs.obj', 00H ; `string'
CONST	ENDS
;	COMDAT ??_C@_0CL@ONAFKGLK@Assets?1Textures?1Fire_Extinguish@
CONST	SEGMENT
??_C@_0CL@ONAFKGLK@Assets?1Textures?1Fire_Extinguish@ DB 'Assets/Textures'
	DB	'/Fire_Extinguisher_Sign.jpg', 00H		; `string'
CONST	ENDS
;	COMDAT ??_C@_0CG@JFBNCCNO@Assets?1Models?1Intro_Level?1Phone@
CONST	SEGMENT
??_C@_0CG@JFBNCCNO@Assets?1Models?1Intro_Level?1Phone@ DB 'Assets/Models/'
	DB	'Intro_Level/Phone_0.obj', 00H		; `string'
CONST	ENDS
;	COMDAT ??_C@_0BM@KNMILAI@Assets?1Textures?1Telefon?4png@
CONST	SEGMENT
??_C@_0BM@KNMILAI@Assets?1Textures?1Telefon?4png@ DB 'Assets/Textures/Tel'
	DB	'efon.png', 00H				; `string'
CONST	ENDS
;	COMDAT ??_C@_0CP@BLINONNP@Assets?1Models?1Intro_Level?1Elect@
CONST	SEGMENT
??_C@_0CP@BLINONNP@Assets?1Models?1Intro_Level?1Elect@ DB 'Assets/Models/'
	DB	'Intro_Level/Electrical_Boxes.obj', 00H	; `string'
CONST	ENDS
;	COMDAT ??_C@_0DB@BEDHECMP@Assets?1Hitboxes?1Intro_Level?1Ele@
CONST	SEGMENT
??_C@_0DB@BEDHECMP@Assets?1Hitboxes?1Intro_Level?1Ele@ DB 'Assets/Hitboxe'
	DB	's/Intro_Level/Electrical_Boxes.obj', 00H	; `string'
CONST	ENDS
;	COMDAT ??_C@_0DC@BMKGMPDG@Assets?1Hitboxes?1Intro_Level?1Bat@
CONST	SEGMENT
??_C@_0DC@BMKGMPDG@Assets?1Hitboxes?1Intro_Level?1Bat@ DB 'Assets/Hitboxe'
	DB	's/Intro_Level/Bathroom_Hitboxes.obj', 00H	; `string'
CONST	ENDS
;	COMDAT ??_C@_0CG@KMLMPMHH@Assets?1Models?1Intro_Level?1Shelv@
CONST	SEGMENT
??_C@_0CG@KMLMPMHH@Assets?1Models?1Intro_Level?1Shelv@ DB 'Assets/Models/'
	DB	'Intro_Level/Shelves.obj', 00H		; `string'
CONST	ENDS
;	COMDAT ??_C@_0CN@NKDKHMPM@Assets?1Hitboxes?1Intro_Level?1She@
CONST	SEGMENT
??_C@_0CN@NKDKHMPM@Assets?1Hitboxes?1Intro_Level?1She@ DB 'Assets/Hitboxe'
	DB	's/Intro_Level/Shelf_AABB_1.obj', 00H	; `string'
CONST	ENDS
;	COMDAT ??_C@_0CL@IJNIEBOP@Assets?1Hitboxes?1Intro_Level?1She@
CONST	SEGMENT
??_C@_0CL@IJNIEBOP@Assets?1Hitboxes?1Intro_Level?1She@ DB 'Assets/Hitboxe'
	DB	's/Intro_Level/Shelf_AABB.obj', 00H		; `string'
CONST	ENDS
;	COMDAT ??_C@_0CN@NJJECEKF@Assets?1Hitboxes?1Intro_Level?1She@
CONST	SEGMENT
??_C@_0CN@NJJECEKF@Assets?1Hitboxes?1Intro_Level?1She@ DB 'Assets/Hitboxe'
	DB	's/Intro_Level/Shelf_Hitbox.obj', 00H	; `string'
CONST	ENDS
;	COMDAT ??_C@_0BL@GCKCNNEH@Assets?1Textures?1Table1?4png@
CONST	SEGMENT
??_C@_0BL@GCKCNNEH@Assets?1Textures?1Table1?4png@ DB 'Assets/Textures/Tab'
	DB	'le1.png', 00H				; `string'
CONST	ENDS
;	COMDAT ??_C@_0CH@PIMINOAB@Assets?1Hitboxes?1Intro_Level?1Tab@
CONST	SEGMENT
??_C@_0CH@PIMINOAB@Assets?1Hitboxes?1Intro_Level?1Tab@ DB 'Assets/Hitboxe'
	DB	's/Intro_Level/Tables.obj', 00H		; `string'
CONST	ENDS
;	COMDAT ??_C@_0CN@CLGDFOE@Assets?1Hitboxes?1Intro_Level?1Tab@
CONST	SEGMENT
??_C@_0CN@CLGDFOE@Assets?1Hitboxes?1Intro_Level?1Tab@ DB 'Assets/Hitboxes'
	DB	'/Intro_Level/Table_Hitbox.obj', 00H		; `string'
CONST	ENDS
;	COMDAT ??_C@_0BJ@OMEJKGEC@Assets?1Textures?1Lamp?4png@
CONST	SEGMENT
??_C@_0BJ@OMEJKGEC@Assets?1Textures?1Lamp?4png@ DB 'Assets/Textures/Lamp.'
	DB	'png', 00H					; `string'
CONST	ENDS
;	COMDAT ??_C@_0DB@HANJJDDD@Assets?1Models?1Intro_Level?1Fire_@
CONST	SEGMENT
??_C@_0DB@HANJJDDD@Assets?1Models?1Intro_Level?1Fire_@ DB 'Assets/Models/'
	DB	'Intro_Level/Fire_Extinguishers.obj', 00H	; `string'
CONST	ENDS
;	COMDAT ??_C@_0CG@MCNCOAAP@Assets?1Textures?1Fire_Extinguish@
CONST	SEGMENT
??_C@_0CG@MCNCOAAP@Assets?1Textures?1Fire_Extinguish@ DB 'Assets/Textures'
	DB	'/Fire_Extinguisher.png', 00H		; `string'
CONST	ENDS
;	COMDAT ??_C@_0CM@CJKDINKD@Assets?1Models?1Intro_Level?1Ceili@
CONST	SEGMENT
??_C@_0CM@CJKDINKD@Assets?1Models?1Intro_Level?1Ceili@ DB 'Assets/Models/'
	DB	'Intro_Level/Ceiling_Tiles.obj', 00H		; `string'
CONST	ENDS
;	COMDAT ??_C@_0CE@PFOKKKIE@Assets?1Textures?1Ceiling_Texture@
CONST	SEGMENT
??_C@_0CE@PFOKKKIE@Assets?1Textures?1Ceiling_Texture@ DB 'Assets/Textures'
	DB	'/Ceiling_Texture.png', 00H			; `string'
CONST	ENDS
;	COMDAT ??_C@_0CG@EONHILPC@Assets?1Models?1Intro_Level?1Ceili@
CONST	SEGMENT
??_C@_0CG@EONHILPC@Assets?1Models?1Intro_Level?1Ceili@ DB 'Assets/Models/'
	DB	'Intro_Level/Ceiling.obj', 00H		; `string'
CONST	ENDS
;	COMDAT ??_C@_0BK@IJDMGJOB@Assets?1Textures?1Walls?4png@
CONST	SEGMENT
??_C@_0BK@IJDMGJOB@Assets?1Textures?1Walls?4png@ DB 'Assets/Textures/Wall'
	DB	's.png', 00H					; `string'
CONST	ENDS
;	COMDAT ??_C@_0CE@HNFKLGDJ@Assets?1Models?1Intro_Level?1Walls@
CONST	SEGMENT
??_C@_0CE@HNFKLGDJ@Assets?1Models?1Intro_Level?1Walls@ DB 'Assets/Models/'
	DB	'Intro_Level/Walls.obj', 00H			; `string'
CONST	ENDS
;	COMDAT ??_C@_0CN@HLIPJGFE@Assets?1Models?1Intro_Level?1Bathr@
CONST	SEGMENT
??_C@_0CN@HLIPJGFE@Assets?1Models?1Intro_Level?1Bathr@ DB 'Assets/Models/'
	DB	'Intro_Level/Bathroom_Walls.obj', 00H	; `string'
CONST	ENDS
;	COMDAT ??_C@_0CM@IBGFCKIF@Assets?1Audio?1Music?1Falling_Shep@
CONST	SEGMENT
??_C@_0CM@IBGFCKIF@Assets?1Audio?1Music?1Falling_Shep@ DB 'Assets/Audio/M'
	DB	'usic/Falling_Shepard_Tone.wav', 00H		; `string'
CONST	ENDS
;	COMDAT ??_C@_0CO@MBNPADBP@Assets?1Light_Occluders?1Tunnel_C@
CONST	SEGMENT
??_C@_0CO@MBNPADBP@Assets?1Light_Occluders?1Tunnel_C@ DB 'Assets/Light_Oc'
	DB	'cluders/Tunnel_Corrections.txt', 00H	; `string'
CONST	ENDS
;	COMDAT ??_C@_0CC@FMPNIHJA@Assets?1Light_Occluders?1Tunnel?4o@
CONST	SEGMENT
??_C@_0CC@FMPNIHJA@Assets?1Light_Occluders?1Tunnel?4o@ DB 'Assets/Light_O'
	DB	'ccluders/Tunnel.obj', 00H			; `string'
CONST	ENDS
;	COMDAT ??_C@_0BO@NAFGIEJL@Assets?1Models?1Alarm_Light?4obj@
CONST	SEGMENT
??_C@_0BO@NAFGIEJL@Assets?1Models?1Alarm_Light?4obj@ DB 'Assets/Models/Al'
	DB	'arm_Light.obj', 00H				; `string'
CONST	ENDS
;	COMDAT ??_C@_0CJ@OHEAIFOH@Assets?1Models?1Intro_Tunnel?1Exit@
CONST	SEGMENT
??_C@_0CJ@OHEAIFOH@Assets?1Models?1Intro_Tunnel?1Exit@ DB 'Assets/Models/'
	DB	'Intro_Tunnel/Exit_Door.obj', 00H		; `string'
CONST	ENDS
;	COMDAT ??_C@_0CO@ILBNDCCL@Assets?1Models?1Intro_Tunnel?1Tunn@
CONST	SEGMENT
??_C@_0CO@ILBNDCCL@Assets?1Models?1Intro_Tunnel?1Tunn@ DB 'Assets/Models/'
	DB	'Intro_Tunnel/Tunnel_Cubicle.obj', 00H	; `string'
CONST	ENDS
;	COMDAT ??_C@_0CC@PGMKLMNB@Assets?1Textures?1Reddened_Wall?4j@
CONST	SEGMENT
??_C@_0CC@PGMKLMNB@Assets?1Textures?1Reddened_Wall?4j@ DB 'Assets/Texture'
	DB	's/Reddened_Wall.jpg', 00H			; `string'
CONST	ENDS
;	COMDAT ??_C@_0CJ@KCPEPHN@Assets?1Hitboxes?1Intro_Tunnel?1Cu@
CONST	SEGMENT
??_C@_0CJ@KCPEPHN@Assets?1Hitboxes?1Intro_Tunnel?1Cu@ DB 'Assets/Hitboxes'
	DB	'/Intro_Tunnel/Cubicle.obj', 00H		; `string'
CONST	ENDS
;	COMDAT ??_C@_0CM@KBBILGL@Assets?1Models?1Intro_Tunnel?1Tunn@
CONST	SEGMENT
??_C@_0CM@KBBILGL@Assets?1Models?1Intro_Tunnel?1Tunn@ DB 'Assets/Models/I'
	DB	'ntro_Tunnel/Tunnel_Floor.obj', 00H		; `string'
CONST	ENDS
;	COMDAT ??_C@_0BN@IFKJENCO@Assets?1Textures?1Concrete?4jpg@
CONST	SEGMENT
??_C@_0BN@IFKJENCO@Assets?1Textures?1Concrete?4jpg@ DB 'Assets/Textures/C'
	DB	'oncrete.jpg', 00H				; `string'
CONST	ENDS
;	COMDAT ??_C@_0CH@LCPGKMDF@Assets?1Hitboxes?1Intro_Tunnel?1Fl@
CONST	SEGMENT
??_C@_0CH@LCPGKMDF@Assets?1Hitboxes?1Intro_Tunnel?1Fl@ DB 'Assets/Hitboxe'
	DB	's/Intro_Tunnel/Floor.obj', 00H		; `string'
CONST	ENDS
;	COMDAT ??_C@_0CF@FMBAMPPJ@Assets?1Models?1Intro_Tunnel?1Pipe@
CONST	SEGMENT
??_C@_0CF@FMBAMPPJ@Assets?1Models?1Intro_Tunnel?1Pipe@ DB 'Assets/Models/'
	DB	'Intro_Tunnel/Pipes.obj', 00H		; `string'
CONST	ENDS
;	COMDAT ??_C@_0CF@OEEHMKO@Assets?1Models?1Intro_Tunnel?1Fram@
CONST	SEGMENT
??_C@_0CF@OEEHMKO@Assets?1Models?1Intro_Tunnel?1Fram@ DB 'Assets/Models/I'
	DB	'ntro_Tunnel/Frame.obj', 00H			; `string'
CONST	ENDS
;	COMDAT ??_C@_0CG@DAHILEAE@Assets?1Models?1Intro_Tunnel?1Tunn@
CONST	SEGMENT
??_C@_0CG@DAHILEAE@Assets?1Models?1Intro_Tunnel?1Tunn@ DB 'Assets/Models/'
	DB	'Intro_Tunnel/Tunnel.obj', 00H		; `string'
CONST	ENDS
;	COMDAT ??_C@_0CP@MMDGCGIB@Assets?1Models?1Intro_Level?1Test_@
CONST	SEGMENT
??_C@_0CP@MMDGCGIB@Assets?1Models?1Intro_Level?1Test_@ DB 'Assets/Models/'
	DB	'Intro_Level/Test_Intro_Level.obj', 00H	; `string'
CONST	ENDS
;	COMDAT ??_C@_0CG@FEBMCMBJ@Assets?1Models?1Intro_Level?1Heate@
CONST	SEGMENT
??_C@_0CG@FEBMCMBJ@Assets?1Models?1Intro_Level?1Heate@ DB 'Assets/Models/'
	DB	'Intro_Level/Heaters.obj', 00H		; `string'
CONST	ENDS
;	COMDAT ??_C@_0CF@LMLOKGEB@Assets?1Models?1Intro_Level?1Table@
CONST	SEGMENT
??_C@_0CF@LMLOKGEB@Assets?1Models?1Intro_Level?1Table@ DB 'Assets/Models/'
	DB	'Intro_Level/Tables.obj', 00H		; `string'
CONST	ENDS
;	COMDAT ??_C@_0CG@NILOEBEH@Assets?1Models?1Intro_Level?1Toile@
CONST	SEGMENT
??_C@_0CG@NILOEBEH@Assets?1Models?1Intro_Level?1Toile@ DB 'Assets/Models/'
	DB	'Intro_Level/Toilets.obj', 00H		; `string'
CONST	ENDS
;	COMDAT ??_C@_0CG@NBLOPJJD@Assets?1Audio?1Music?1Ambience_Tra@
CONST	SEGMENT
??_C@_0CG@NBLOPJJD@Assets?1Audio?1Music?1Ambience_Tra@ DB 'Assets/Audio/M'
	DB	'usic/Ambience_Track.wav', 00H		; `string'
CONST	ENDS
;	COMDAT ??_C@_0CD@KJAMMCGE@Assets?1Textures?1Toilet_Texture?4@
CONST	SEGMENT
??_C@_0CD@KJAMMCGE@Assets?1Textures?1Toilet_Texture?4@ DB 'Assets/Texture'
	DB	's/Toilet_Texture.png', 00H			; `string'
CONST	ENDS
;	COMDAT ??_C@_0CA@BNLOAHMA@Assets?1Textures?1Stromkasten?4png@
CONST	SEGMENT
??_C@_0CA@BNLOAHMA@Assets?1Textures?1Stromkasten?4png@ DB 'Assets/Texture'
	DB	's/Stromkasten.png', 00H			; `string'
CONST	ENDS
;	COMDAT ??_C@_0CP@CJCPJKPM@Assets?1Animations?1Intro_Level?1V@
CONST	SEGMENT
??_C@_0CP@CJCPJKPM@Assets?1Animations?1Intro_Level?1V@ DB 'Assets/Animati'
	DB	'ons/Intro_Level/Vent_Remove.anim', 00H	; `string'
CONST	ENDS
;	COMDAT ??_C@_0CP@CAAELEF@Assets?1Animations?1Intro_Level?1V@
CONST	SEGMENT
??_C@_0CP@CAAELEF@Assets?1Animations?1Intro_Level?1V@ DB 'Assets/Animatio'
	DB	'ns/Intro_Level/Vent_Damage.anim', 00H	; `string'
CONST	ENDS
;	COMDAT ??_C@_0CP@BCFBDFE@Assets?1Animations?1Intro_Level?1D@
CONST	SEGMENT
??_C@_0CP@BCFBDFE@Assets?1Animations?1Intro_Level?1D@ DB 'Assets/Animatio'
	DB	'ns/Intro_Level/Door_5_Open.anim', 00H	; `string'
CONST	ENDS
;	COMDAT ??_C@_0CP@OOBILGLE@Assets?1Animations?1Intro_Level?1D@
CONST	SEGMENT
??_C@_0CP@OOBILGLE@Assets?1Animations?1Intro_Level?1D@ DB 'Assets/Animati'
	DB	'ons/Intro_Level/Door_3_Open.anim', 00H	; `string'
CONST	ENDS
;	COMDAT ??_C@_0CP@HFLNPKNL@Assets?1Animations?1Intro_Level?1D@
CONST	SEGMENT
??_C@_0CP@HFLNPKNL@Assets?1Animations?1Intro_Level?1D@ DB 'Assets/Animati'
	DB	'ons/Intro_Level/Door_2_Open.anim', 00H	; `string'
CONST	ENDS
;	COMDAT ??_C@_0CP@CCDCICL@Assets?1Animations?1Intro_Level?1D@
CONST	SEGMENT
??_C@_0CP@CCDCICL@Assets?1Animations?1Intro_Level?1D@ DB 'Assets/Animatio'
	DB	'ns/Intro_Level/Door_1_Open.anim', 00H	; `string'
CONST	ENDS
;	COMDAT ??_C@_0CP@JJIGGEEE@Assets?1Animations?1Intro_Level?1D@
CONST	SEGMENT
??_C@_0CP@JJIGGEEE@Assets?1Animations?1Intro_Level?1D@ DB 'Assets/Animati'
	DB	'ons/Intro_Level/Door_0_Open.anim', 00H	; `string'
CONST	ENDS
;	COMDAT ??_C@_0BO@CGIIHJDO@Assets?1Textures?1Vent_Duct?4png@
CONST	SEGMENT
??_C@_0BO@CGIIHJDO@Assets?1Textures?1Vent_Duct?4png@ DB 'Assets/Textures/'
	DB	'Vent_Duct.png', 00H				; `string'
CONST	ENDS
;	COMDAT ??_C@_0CA@FJOPCKKP@Assets?1Textures?1Vent_Normal?4png@
CONST	SEGMENT
??_C@_0CA@FJOPCKKP@Assets?1Textures?1Vent_Normal?4png@ DB 'Assets/Texture'
	DB	's/Vent_Normal.png', 00H			; `string'
CONST	ENDS
;	COMDAT ??_C@_04ILGMGPGA@Vent@
CONST	SEGMENT
??_C@_04ILGMGPGA@Vent@ DB 'Vent', 00H			; `string'
CONST	ENDS
;	COMDAT ??_C@_0CD@OMKKCEAA@Assets?1Textures?1Metal_Specular?4@
CONST	SEGMENT
??_C@_0CD@OMKKCEAA@Assets?1Textures?1Metal_Specular?4@ DB 'Assets/Texture'
	DB	's/Metal_Specular.png', 00H			; `string'
CONST	ENDS
;	COMDAT ??_C@_0CJ@CGCNCJKM@Assets?1Textures?1Metal_Normal_Te@
CONST	SEGMENT
??_C@_0CJ@CGCNCJKM@Assets?1Textures?1Metal_Normal_Te@ DB 'Assets/Textures'
	DB	'/Metal_Normal_Texture.png', 00H		; `string'
CONST	ENDS
;	COMDAT ??_C@_0CC@IFPJBJIL@Assets?1Textures?1Wall_Specular?4p@
CONST	SEGMENT
??_C@_0CC@IFPJBJIL@Assets?1Textures?1Wall_Specular?4p@ DB 'Assets/Texture'
	DB	's/Wall_Specular.png', 00H			; `string'
CONST	ENDS
;	COMDAT ??_C@_0CA@HCJBGPEH@Assets?1Textures?1Wall_Normal?4png@
CONST	SEGMENT
??_C@_0CA@HCJBGPEH@Assets?1Textures?1Wall_Normal?4png@ DB 'Assets/Texture'
	DB	's/Wall_Normal.png', 00H			; `string'
CONST	ENDS
;	COMDAT ??_C@_04LIPBJNLA@Wall@
CONST	SEGMENT
??_C@_04LIPBJNLA@Wall@ DB 'Wall', 00H			; `string'
CONST	ENDS
;	COMDAT ??_C@_0CF@FHECHKBF@Assets?1Textures?1Ceiling_Specula@
CONST	SEGMENT
??_C@_0CF@FHECHKBF@Assets?1Textures?1Ceiling_Specula@ DB 'Assets/Textures'
	DB	'/Ceiling_Specular.png', 00H			; `string'
CONST	ENDS
;	COMDAT ??_C@_0CD@PCNPHEHI@Assets?1Textures?1Ceiling_Normal?4@
CONST	SEGMENT
??_C@_0CD@PCNPHEHI@Assets?1Textures?1Ceiling_Normal?4@ DB 'Assets/Texture'
	DB	's/Ceiling_Normal.png', 00H			; `string'
CONST	ENDS
;	COMDAT ??_C@_07LJKDOBMH@Ceiling@
CONST	SEGMENT
??_C@_07LJKDOBMH@Ceiling@ DB 'Ceiling', 00H		; `string'
CONST	ENDS
;	COMDAT ??_C@_0CB@JLBBPOGF@Assets?1Textures?1Door_Texture?4pn@
CONST	SEGMENT
??_C@_0CB@JLBBPOGF@Assets?1Textures?1Door_Texture?4pn@ DB 'Assets/Texture'
	DB	's/Door_Texture.png', 00H			; `string'
CONST	ENDS
;	COMDAT ??_C@_0CA@GCINHCOP@Assets?1Textures?1Door_Normal?4png@
CONST	SEGMENT
??_C@_0CA@GCINHCOP@Assets?1Textures?1Door_Normal?4png@ DB 'Assets/Texture'
	DB	's/Door_Normal.png', 00H			; `string'
CONST	ENDS
;	COMDAT ??_C@_04KJGJIGFH@Door@
CONST	SEGMENT
??_C@_04KJGJIGFH@Door@ DB 'Door', 00H			; `string'
CONST	ENDS
;	COMDAT ??_C@_0CC@PMLDNJLF@Assets?1Textures?1Rubble_Normal?4p@
CONST	SEGMENT
??_C@_0CC@PMLDNJLF@Assets?1Textures?1Rubble_Normal?4p@ DB 'Assets/Texture'
	DB	's/Rubble_Normal.png', 00H			; `string'
CONST	ENDS
;	COMDAT ??_C@_06KGKMPCGO@Rubble@
CONST	SEGMENT
??_C@_06KGKMPCGO@Rubble@ DB 'Rubble', 00H		; `string'
CONST	ENDS
;	COMDAT ??_C@_0CA@BNKOEDIH@Assets?1Textures?1Rubbish_Bag?4jpg@
CONST	SEGMENT
??_C@_0CA@BNKOEDIH@Assets?1Textures?1Rubbish_Bag?4jpg@ DB 'Assets/Texture'
	DB	's/Rubbish_Bag.jpg', 00H			; `string'
CONST	ENDS
;	COMDAT ??_C@_0CD@HLOMOIIB@Assets?1Textures?1Rubbish_Normal?4@
CONST	SEGMENT
??_C@_0CD@HLOMOIIB@Assets?1Textures?1Rubbish_Normal?4@ DB 'Assets/Texture'
	DB	's/Rubbish_Normal.png', 00H			; `string'
CONST	ENDS
;	COMDAT ??_C@_07CIPNCOPC@Rubbish@
CONST	SEGMENT
??_C@_07CIPNCOPC@Rubbish@ DB 'Rubbish', 00H		; `string'
CONST	ENDS
;	COMDAT ??_C@_0CB@MALFCJLP@Assets?1Textures?1Rust_Texture?4pn@
CONST	SEGMENT
??_C@_0CB@MALFCJLP@Assets?1Textures?1Rust_Texture?4pn@ DB 'Assets/Texture'
	DB	's/Rust_Texture.png', 00H			; `string'
CONST	ENDS
;	COMDAT ??_C@_0CG@FCFHAGEN@Assets?1Textures?1Rust_Reflectivi@
CONST	SEGMENT
??_C@_0CG@FCFHAGEN@Assets?1Textures?1Rust_Reflectivi@ DB 'Assets/Textures'
	DB	'/Rust_Reflectivity.png', 00H		; `string'
CONST	ENDS
;	COMDAT ??_C@_0CA@BIPELFFA@Assets?1Textures?1Rust_Normal?4png@
CONST	SEGMENT
??_C@_0CA@BIPELFFA@Assets?1Textures?1Rust_Normal?4png@ DB 'Assets/Texture'
	DB	's/Rust_Normal.png', 00H			; `string'
CONST	ENDS
;	COMDAT ??_C@_04DKALKOBM@Rust@
CONST	SEGMENT
??_C@_04DKALKOBM@Rust@ DB 'Rust', 00H			; `string'
CONST	ENDS
;	COMDAT ??_C@_0CH@MCDCCMCH@Assets?1Textures?1Reddened_Wall_S@
CONST	SEGMENT
??_C@_0CH@MCDCCMCH@Assets?1Textures?1Reddened_Wall_S@ DB 'Assets/Textures'
	DB	'/Reddened_Wall_Spec.png', 00H		; `string'
CONST	ENDS
;	COMDAT ??_C@_0CL@IFFIHPJP@Assets?1Textures?1Reddened_Wall_N@
CONST	SEGMENT
??_C@_0CL@IFFIHPJP@Assets?1Textures?1Reddened_Wall_N@ DB 'Assets/Textures'
	DB	'/Reddened_Wall_Normal_2.png', 00H		; `string'
CONST	ENDS
;	COMDAT ??_C@_0L@NFHOLOGD@NPP_Wall_2@
CONST	SEGMENT
??_C@_0L@NFHOLOGD@NPP_Wall_2@ DB 'NPP_Wall_2', 00H	; `string'
CONST	ENDS
;	COMDAT ??_C@_0CK@EAKMGGCG@Assets?1Textures?1Floor_2_Tile_Sp@
CONST	SEGMENT
??_C@_0CK@EAKMGGCG@Assets?1Textures?1Floor_2_Tile_Sp@ DB 'Assets/Textures'
	DB	'/Floor_2_Tile_Specular.png', 00H		; `string'
CONST	ENDS
;	COMDAT ??_C@_0CI@ODJCPNAE@Assets?1Textures?1Floor_2_Tile_No@
CONST	SEGMENT
??_C@_0CI@ODJCPNAE@Assets?1Textures?1Floor_2_Tile_No@ DB 'Assets/Textures'
	DB	'/Floor_2_Tile_Normal.png', 00H		; `string'
CONST	ENDS
;	COMDAT ??_C@_08FKBAGMF@NPP_Wall@
CONST	SEGMENT
??_C@_08FKBAGMF@NPP_Wall@ DB 'NPP_Wall', 00H		; `string'
CONST	ENDS
;	COMDAT ??_C@_0CE@IBLKMEMA@Assets?1Textures?1Floor_Tile_Spec@
CONST	SEGMENT
??_C@_0CE@IBLKMEMA@Assets?1Textures?1Floor_Tile_Spec@ DB 'Assets/Textures'
	DB	'/Floor_Tile_Spec.png', 00H			; `string'
CONST	ENDS
;	COMDAT ??_C@_0CH@KMIBEEDC@Assets?1Textures?1Brick_Reflectiv@
CONST	SEGMENT
??_C@_0CH@KMIBEEDC@Assets?1Textures?1Brick_Reflectiv@ DB 'Assets/Textures'
	DB	'/Brick_Reflectivity.png', 00H		; `string'
CONST	ENDS
;	COMDAT ??_C@_0CH@JCJMLFOG@Assets?1Textures?1Floor_Tiles_Nor@
CONST	SEGMENT
??_C@_0CH@JCJMLFOG@Assets?1Textures?1Floor_Tiles_Nor@ DB 'Assets/Textures'
	DB	'/Floor_Tiles_Normal.png', 00H		; `string'
CONST	ENDS
;	COMDAT ??_C@_0BK@IMNLKDIC@Assets?1Textures?1Brick?4png@
CONST	SEGMENT
??_C@_0BK@IMNLKDIC@Assets?1Textures?1Brick?4png@ DB 'Assets/Textures/Bric'
	DB	'k.png', 00H					; `string'
CONST	ENDS
;	COMDAT ??_C@_0CB@HBOPAJHI@Assets?1Textures?1Brick_Normal?4pn@
CONST	SEGMENT
??_C@_0CB@HBOPAJHI@Assets?1Textures?1Brick_Normal?4pn@ DB 'Assets/Texture'
	DB	's/Brick_Normal.png', 00H			; `string'
CONST	ENDS
;	COMDAT ??_C@_0O@EDGNJBDG@Open_Door?4txt@
CONST	SEGMENT
??_C@_0O@EDGNJBDG@Open_Door?4txt@ DB 'Open_Door.txt', 00H ; `string'
CONST	ENDS
;	COMDAT ??_C@_0CA@DFBAMLBN@Assets?1Audio?1Door?1Door_Open?4wav@
CONST	SEGMENT
??_C@_0CA@DFBAMLBN@Assets?1Audio?1Door?1Door_Open?4wav@ DB 'Assets/Audio/'
	DB	'Door/Door_Open.wav', 00H			; `string'
CONST	ENDS
;	COMDAT ??_C@_0N@OOJIMAPO@_Remove?4anim@
CONST	SEGMENT
??_C@_0N@OOJIMAPO@_Remove?4anim@ DB '_Remove.anim', 00H	; `string'
CONST	ENDS
;	COMDAT ??_C@_0N@MFLHBBEH@_Damage?4anim@
CONST	SEGMENT
??_C@_0N@MFLHBBEH@_Damage?4anim@ DB '_Damage.anim', 00H	; `string'
CONST	ENDS
;	COMDAT ??_C@_0CF@MLNAAKAE@Assets?1Audio?1Phone?1Putdown_Phon@
CONST	SEGMENT
??_C@_0CF@MLNAAKAE@Assets?1Audio?1Phone?1Putdown_Phon@ DB 'Assets/Audio/P'
	DB	'hone/Putdown_Phone.wav', 00H		; `string'
CONST	ENDS
;	COMDAT ??_C@_0CE@KJOCMEMA@Assets?1Audio?1Phone?1Endcall_Beep@
CONST	SEGMENT
??_C@_0CE@KJOCMEMA@Assets?1Audio?1Phone?1Endcall_Beep@ DB 'Assets/Audio/P'
	DB	'hone/Endcall_Beep.wav', 00H			; `string'
CONST	ENDS
;	COMDAT ??_C@_0CG@FJGIDGBO@Assets?1Audio?1Phone?1I_CAN_SEE_YO@
CONST	SEGMENT
??_C@_0CG@FJGIDGBO@Assets?1Audio?1Phone?1I_CAN_SEE_YO@ DB 'Assets/Audio/P'
	DB	'hone/I_CAN_SEE_YOU2.wav', 00H		; `string'
CONST	ENDS
;	COMDAT ??_C@_0BO@NNLNJDIA@Assets?1Audio?1Phone?1Static?4wav@
CONST	SEGMENT
??_C@_0BO@NNLNJDIA@Assets?1Audio?1Phone?1Static?4wav@ DB 'Assets/Audio/Ph'
	DB	'one/Static.wav', 00H			; `string'
CONST	ENDS
;	COMDAT ??_C@_0CE@PFJAJBOO@Assets?1Audio?1Phone?1Pickup_Phone@
CONST	SEGMENT
??_C@_0CE@PFJAJBOO@Assets?1Audio?1Phone?1Pickup_Phone@ DB 'Assets/Audio/P'
	DB	'hone/Pickup_Phone.wav', 00H			; `string'
CONST	ENDS
;	COMDAT ??_C@_0BB@DPIFBAEL@Pickup_Phone?4txt@
CONST	SEGMENT
??_C@_0BB@DPIFBAEL@Pickup_Phone?4txt@ DB 'Pickup_Phone.txt', 00H ; `string'
CONST	ENDS
;	COMDAT ??_C@_0CG@OBBGOEJM@Assets?1Audio?1Phone?1Telephone_Ri@
CONST	SEGMENT
??_C@_0CG@OBBGOEJM@Assets?1Audio?1Phone?1Telephone_Ri@ DB 'Assets/Audio/P'
	DB	'hone/Telephone_Ring.wav', 00H		; `string'
CONST	ENDS
;	COMDAT ??_C@_0DA@FJEKHNLL@Assets?1Animations?1Intro_Level?1P@
CONST	SEGMENT
??_C@_0DA@FJEKHNLL@Assets?1Animations?1Intro_Level?1P@ DB 'Assets/Animati'
	DB	'ons/Intro_Level/Phone_Pickup.anim', 00H	; `string'
CONST	ENDS
;	COMDAT ??_C@_0BC@NBKNHHGA@Leaf_Node_Indices@
CONST	SEGMENT
??_C@_0BC@NBKNHHGA@Leaf_Node_Indices@ DB 'Leaf_Node_Indices', 00H ; `string'
CONST	ENDS
;	COMDAT ??_C@_0BA@MEDKHGOF@Partition_Nodes@
CONST	SEGMENT
??_C@_0BA@MEDKHGOF@Partition_Nodes@ DB 'Partition_Nodes', 00H ; `string'
CONST	ENDS
;	COMDAT ??_C@_0CG@FCCOFPLF@?5?$DO?$DO?5Light?5occluder?5not?5set?5prop@
CONST	SEGMENT
??_C@_0CG@FCCOFPLF@?5?$DO?$DO?5Light?5occluder?5not?5set?5prop@ DB ' >> L'
	DB	'ight occluder not set properly!', 0aH, 00H	; `string'
CONST	ENDS
;	COMDAT ??_C@_0CD@PCJAGEED@Assets?1Audio?1Music?1Ambient_Hit?4@
CONST	SEGMENT
??_C@_0CD@PCJAGEED@Assets?1Audio?1Music?1Ambient_Hit?4@ DB 'Assets/Audio/'
	DB	'Music/Ambient_Hit.wav', 00H			; `string'
CONST	ENDS
;	COMDAT ??_C@_0CF@NOHDOMIB@Assets?1Animations?1Murderer_Idle@
CONST	SEGMENT
??_C@_0CF@NOHDOMIB@Assets?1Animations?1Murderer_Idle@ DB 'Assets/Animatio'
	DB	'ns/Murderer_Idle.anim', 00H			; `string'
CONST	ENDS
;	COMDAT ??_C@_0N@MKCJAMLD@Controls?4txt@
CONST	SEGMENT
??_C@_0N@MKCJAMLD@Controls?4txt@ DB 'Controls.txt', 00H	; `string'
CONST	ENDS
;	COMDAT ??_C@_0BB@MDOOCAFM@Music_Volume?4txt@
CONST	SEGMENT
??_C@_0BB@MDOOCAFM@Music_Volume?4txt@ DB 'Music_Volume.txt', 00H ; `string'
CONST	ENDS
;	COMDAT ??_C@_0BH@EANAMNFG@Assets?1UI?1Audio_Up?4png@
CONST	SEGMENT
??_C@_0BH@EANAMNFG@Assets?1UI?1Audio_Up?4png@ DB 'Assets/UI/Audio_Up.png', 00H ; `string'
CONST	ENDS
;	COMDAT ??_C@_0BJ@GFENJCBA@Assets?1UI?1Audio_Down?4png@
CONST	SEGMENT
??_C@_0BJ@GFENJCBA@Assets?1UI?1Audio_Down?4png@ DB 'Assets/UI/Audio_Down.'
	DB	'png', 00H					; `string'
CONST	ENDS
;	COMDAT ??_C@_0BC@BEHDHDAA@Master_Volume?4txt@
CONST	SEGMENT
??_C@_0BC@BEHDHDAA@Master_Volume?4txt@ DB 'Master_Volume.txt', 00H ; `string'
CONST	ENDS
;	COMDAT ??_C@_09OPAJEEMB@Audio?4txt@
CONST	SEGMENT
??_C@_09OPAJEEMB@Audio?4txt@ DB 'Audio.txt', 00H	; `string'
CONST	ENDS
;	COMDAT ??_C@_0N@DIHIFGIP@Settings?4txt@
CONST	SEGMENT
??_C@_0N@DIHIFGIP@Settings?4txt@ DB 'Settings.txt', 00H	; `string'
CONST	ENDS
;	COMDAT ??_C@_0L@JHLPBFFO@Resume?4txt@
CONST	SEGMENT
??_C@_0L@JHLPBFFO@Resume?4txt@ DB 'Resume.txt', 00H	; `string'
CONST	ENDS
;	COMDAT ??_C@_0L@ILPOOBCK@Paused?4txt@
CONST	SEGMENT
??_C@_0L@ILPOOBCK@Paused?4txt@ DB 'Paused.txt', 00H	; `string'
CONST	ENDS
;	COMDAT ??_C@_08KGKDOKKA@Back?4txt@
CONST	SEGMENT
??_C@_08KGKDOKKA@Back?4txt@ DB 'Back.txt', 00H		; `string'
CONST	ENDS
;	COMDAT ??_C@_0P@NJLOBGFL@Close_Game?4txt@
CONST	SEGMENT
??_C@_0P@NJLOBGFL@Close_Game?4txt@ DB 'Close_Game.txt', 00H ; `string'
CONST	ENDS
;	COMDAT ??_C@_0BG@MMDGICE@Close_Game_Prompt?4txt@
CONST	SEGMENT
??_C@_0BG@MMDGICE@Close_Game_Prompt?4txt@ DB 'Close_Game_Prompt.txt', 00H ; `string'
CONST	ENDS
;	COMDAT ??_C@_0BF@JMEKJLAG@Assets?1UI?1German?4png@
CONST	SEGMENT
??_C@_0BF@JMEKJLAG@Assets?1UI?1German?4png@ DB 'Assets/UI/German.png', 00H ; `string'
CONST	ENDS
;	COMDAT ??_C@_0BG@OOHMDALJ@Assets?1UI?1English?4png@
CONST	SEGMENT
??_C@_0BG@OOHMDALJ@Assets?1UI?1English?4png@ DB 'Assets/UI/English.png', 00H ; `string'
CONST	ENDS
;	COMDAT ??_C@_07CHAGMOBK@Deutsch@
CONST	SEGMENT
??_C@_07CHAGMOBK@Deutsch@ DB 'Deutsch', 00H		; `string'
CONST	ENDS
;	COMDAT ??_C@_0BI@GOFJAJJC@Push_Pause_To_Start?4txt@
CONST	SEGMENT
??_C@_0BI@GOFJAJJC@Push_Pause_To_Start?4txt@ DB 'Push_Pause_To_Start.txt', 00H ; `string'
CONST	ENDS
;	COMDAT ??_C@_0M@MHAEIOIH@Loading?4txt@
CONST	SEGMENT
??_C@_0M@MHAEIOIH@Loading?4txt@ DB 'Loading.txt', 00H	; `string'
CONST	ENDS
;	COMDAT ??_C@_0BK@OMMBOCPB@Assets?1Textures?1White?4png@
CONST	SEGMENT
??_C@_0BK@OMMBOCPB@Assets?1Textures?1White?4png@ DB 'Assets/Textures/Whit'
	DB	'e.png', 00H					; `string'
CONST	ENDS
;	COMDAT ??_C@_0BK@GOJGMIEG@Assets?1UI?1Titan_Front?4png@
CONST	SEGMENT
??_C@_0BK@GOJGMIEG@Assets?1UI?1Titan_Front?4png@ DB 'Assets/UI/Titan_Fron'
	DB	't.png', 00H					; `string'
CONST	ENDS
;	COMDAT ??_C@_0BL@MFDDCFGC@Assets?1UI?1Titan_Centre?4png@
CONST	SEGMENT
??_C@_0BL@MFDDCFGC@Assets?1UI?1Titan_Centre?4png@ DB 'Assets/UI/Titan_Cen'
	DB	'tre.png', 00H				; `string'
CONST	ENDS
;	COMDAT ??_C@_0BJ@IIKGFDKH@Assets?1UI?1Titan_Back?4png@
CONST	SEGMENT
??_C@_0BJ@IIKGFDKH@Assets?1UI?1Titan_Back?4png@ DB 'Assets/UI/Titan_Back.'
	DB	'png', 00H					; `string'
CONST	ENDS
;	COMDAT ??_C@_04OKOFBOPB@Time@
CONST	SEGMENT
??_C@_04OKOFBOPB@Time@ DB 'Time', 00H			; `string'
CONST	ENDS
;	COMDAT ??_C@_0N@CHMCNBIM@?5?$DO?$DO?5FPS?3?5?$CFd?6@
CONST	SEGMENT
??_C@_0N@CHMCNBIM@?5?$DO?$DO?5FPS?3?5?$CFd?6@ DB ' >> FPS: %d', 0aH, 00H ; `string'
CONST	ENDS
;	COMDAT ??_C@_0BH@JMOGOFBP@VisionEngineGL?5?$HM?5FPS?3?5@
CONST	SEGMENT
??_C@_0BH@JMOGOFBP@VisionEngineGL?5?$HM?5FPS?3?5@ DB 'VisionEngineGL | FP'
	DB	'S: ', 00H					; `string'
CONST	ENDS
;	COMDAT ??_C@_0CB@HPKOFGJA@Assets?1Textures?1Bullet_Decal?4pn@
CONST	SEGMENT
??_C@_0CB@HPKOFGJA@Assets?1Textures?1Bullet_Decal?4pn@ DB 'Assets/Texture'
	DB	's/Bullet_Decal.png', 00H			; `string'
CONST	ENDS
;	COMDAT ??_C@_0CA@OEEDMNLF@Shader_Code?1Decal_Particle?4vert@
CONST	SEGMENT
??_C@_0CA@OEEDMNLF@Shader_Code?1Decal_Particle?4vert@ DB 'Shader_Code/Dec'
	DB	'al_Particle.vert', 00H			; `string'
CONST	ENDS
;	COMDAT ??_C@_0CA@DGOCGJKK@Shader_Code?1Decal_Particle?4frag@
CONST	SEGMENT
??_C@_0CA@DGOCGJKK@Shader_Code?1Decal_Particle?4frag@ DB 'Shader_Code/Dec'
	DB	'al_Particle.frag', 00H			; `string'
CONST	ENDS
;	COMDAT ??_C@_0CA@CEIALHCD@Assets?1Models?1Makarov_Shell?4obj@
CONST	SEGMENT
??_C@_0CA@CEIALHCD@Assets?1Models?1Makarov_Shell?4obj@ DB 'Assets/Models/'
	DB	'Makarov_Shell.obj', 00H			; `string'
CONST	ENDS
;	COMDAT ??_C@_0CC@IHICIMLB@Assets?1Textures?1Shell_Texture?4p@
CONST	SEGMENT
??_C@_0CC@IHICIMLB@Assets?1Textures?1Shell_Texture?4p@ DB 'Assets/Texture'
	DB	's/Shell_Texture.png', 00H			; `string'
CONST	ENDS
;	COMDAT ??_C@_05MICJANKE@Metal@
CONST	SEGMENT
??_C@_05MICJANKE@Metal@ DB 'Metal', 00H			; `string'
CONST	ENDS
;	COMDAT ??_C@_0CH@GLBPEOBE@Shader_Code?1Shell_Bounce_Partic@
CONST	SEGMENT
??_C@_0CH@GLBPEOBE@Shader_Code?1Shell_Bounce_Partic@ DB 'Shader_Code/Shel'
	DB	'l_Bounce_Particle.vert', 00H		; `string'
CONST	ENDS
;	COMDAT ??_C@_0BN@MAKFGFJB@Shader_Code?1Vertex_Test?4frag@
CONST	SEGMENT
??_C@_0BN@MAKFGFJB@Shader_Code?1Vertex_Test?4frag@ DB 'Shader_Code/Vertex'
	DB	'_Test.frag', 00H				; `string'
CONST	ENDS
;	COMDAT ??_C@_0BN@MAHKOGIH@Shader_Code?1Vertex_Test?4geom@
CONST	SEGMENT
??_C@_0BN@MAHKOGIH@Shader_Code?1Vertex_Test?4geom@ DB 'Shader_Code/Vertex'
	DB	'_Test.geom', 00H				; `string'
CONST	ENDS
;	COMDAT ??_C@_0CF@GEHMJIAH@Assets?1Models?1Test_Makarov_Shoo@
CONST	SEGMENT
??_C@_0CF@GEHMJIAH@Assets?1Models?1Test_Makarov_Shoo@ DB 'Assets/Models/T'
	DB	'est_Makarov_Shoot.obj', 00H			; `string'
CONST	ENDS
;	COMDAT ??_C@_0CA@LNFFFMDK@Assets?1Textures?1Gun_Texture?4png@
CONST	SEGMENT
??_C@_0CA@LNFFFMDK@Assets?1Textures?1Gun_Texture?4png@ DB 'Assets/Texture'
	DB	's/Gun_Texture.png', 00H			; `string'
CONST	ENDS
;	COMDAT ??_C@_05PGDJFNFN@Floor@
CONST	SEGMENT
??_C@_05PGDJFNFN@Floor@ DB 'Floor', 00H			; `string'
CONST	ENDS
;	COMDAT ??_C@_0BP@JOMJFGJD@Assets?1Models?1Test_Makarov?4obj@
CONST	SEGMENT
??_C@_0BP@JOMJFGJD@Assets?1Models?1Test_Makarov?4obj@ DB 'Assets/Models/T'
	DB	'est_Makarov.obj', 00H			; `string'
CONST	ENDS
;	COMDAT ??_C@_0CC@LFBFFGBC@Assets?1Textures?1Arm_Texture_2?4p@
CONST	SEGMENT
??_C@_0CC@LFBFFGBC@Assets?1Textures?1Arm_Texture_2?4p@ DB 'Assets/Texture'
	DB	's/Arm_Texture_2.png', 00H			; `string'
CONST	ENDS
;	COMDAT ??_C@_05FAJDJAI@Brick@
CONST	SEGMENT
??_C@_05FAJDJAI@Brick@ DB 'Brick', 00H			; `string'
CONST	ENDS
;	COMDAT ??_C@_0CL@EKIDONKJ@Assets?1Animations?1Makarov_Hand_@
CONST	SEGMENT
??_C@_0CL@EKIDONKJ@Assets?1Animations?1Makarov_Hand_@ DB 'Assets/Animatio'
